ARM GAS  C:\Users\Yamaan\AppData\Local\Temp\ccBR0E2V.s 			page 1


   1              		.cpu cortex-m33
   2              		.arch armv8-m.main
   3              		.fpu fpv5-sp-d16
   4              		.arch_extension dsp
   5              		.eabi_attribute 27, 1
   6              		.eabi_attribute 28, 1
   7              		.eabi_attribute 20, 1
   8              		.eabi_attribute 21, 1
   9              		.eabi_attribute 23, 3
  10              		.eabi_attribute 24, 1
  11              		.eabi_attribute 25, 1
  12              		.eabi_attribute 26, 1
  13              		.eabi_attribute 30, 1
  14              		.eabi_attribute 34, 1
  15              		.eabi_attribute 18, 4
  16              		.file	"main.c"
  17              		.text
  18              	.Ltext0:
  19              		.cfi_sections	.debug_frame
  20              		.file 1 "Core/Src/main.c"
  21              		.section	.text.MX_GPIO_Init,"ax",%progbits
  22              		.align	1
  23              		.syntax unified
  24              		.thumb
  25              		.thumb_func
  27              	MX_GPIO_Init:
  28              	.LFB1335:
   1:Core/Src/main.c **** /* USER CODE BEGIN Header */
   2:Core/Src/main.c **** /**
   3:Core/Src/main.c ****   ******************************************************************************
   4:Core/Src/main.c ****   * @file           : main.c
   5:Core/Src/main.c ****   * @brief          : Main program body
   6:Core/Src/main.c ****   ******************************************************************************
   7:Core/Src/main.c ****   * @attention
   8:Core/Src/main.c ****   *
   9:Core/Src/main.c ****   * Copyright (c) 2023 STMicroelectronics.
  10:Core/Src/main.c ****   * All rights reserved.
  11:Core/Src/main.c ****   *
  12:Core/Src/main.c ****   * This software is licensed under terms that can be found in the LICENSE file
  13:Core/Src/main.c ****   * in the root directory of this software component.
  14:Core/Src/main.c ****   * If no LICENSE file comes with this software, it is provided AS-IS.
  15:Core/Src/main.c ****   *
  16:Core/Src/main.c ****   ******************************************************************************
  17:Core/Src/main.c ****   */
  18:Core/Src/main.c **** /* USER CODE END Header */
  19:Core/Src/main.c **** /* Includes ------------------------------------------------------------------*/
  20:Core/Src/main.c **** #include "main.h"
  21:Core/Src/main.c **** 
  22:Core/Src/main.c **** /* Private includes ----------------------------------------------------------*/
  23:Core/Src/main.c **** /* USER CODE BEGIN Includes */
  24:Core/Src/main.c **** 
  25:Core/Src/main.c **** /* USER CODE END Includes */
  26:Core/Src/main.c **** 
  27:Core/Src/main.c **** /* Private typedef -----------------------------------------------------------*/
  28:Core/Src/main.c **** /* USER CODE BEGIN PTD */
  29:Core/Src/main.c **** 
  30:Core/Src/main.c **** /* USER CODE END PTD */
ARM GAS  C:\Users\Yamaan\AppData\Local\Temp\ccBR0E2V.s 			page 2


  31:Core/Src/main.c **** 
  32:Core/Src/main.c **** /* Private define ------------------------------------------------------------*/
  33:Core/Src/main.c **** /* USER CODE BEGIN PD */
  34:Core/Src/main.c **** /* USER CODE END PD */
  35:Core/Src/main.c **** 
  36:Core/Src/main.c **** /* Private macro -------------------------------------------------------------*/
  37:Core/Src/main.c **** /* USER CODE BEGIN PM */
  38:Core/Src/main.c **** 
  39:Core/Src/main.c **** /* USER CODE END PM */
  40:Core/Src/main.c **** 
  41:Core/Src/main.c **** /* Private variables ---------------------------------------------------------*/
  42:Core/Src/main.c **** ADC_HandleTypeDef hadc1;
  43:Core/Src/main.c **** 
  44:Core/Src/main.c **** FDCAN_HandleTypeDef hfdcan1;
  45:Core/Src/main.c **** 
  46:Core/Src/main.c **** UART_HandleTypeDef huart1;
  47:Core/Src/main.c **** 
  48:Core/Src/main.c **** PCD_HandleTypeDef hpcd_USB_OTG_FS;
  49:Core/Src/main.c **** 
  50:Core/Src/main.c **** /* USER CODE BEGIN PV */
  51:Core/Src/main.c **** 
  52:Core/Src/main.c **** /* USER CODE END PV */
  53:Core/Src/main.c **** 
  54:Core/Src/main.c **** /* Private function prototypes -----------------------------------------------*/
  55:Core/Src/main.c **** void SystemClock_Config(void);
  56:Core/Src/main.c **** static void SystemPower_Config(void);
  57:Core/Src/main.c **** static void MX_GPIO_Init(void);
  58:Core/Src/main.c **** static void MX_ADC1_Init(void);
  59:Core/Src/main.c **** static void MX_FDCAN1_Init(void);
  60:Core/Src/main.c **** static void MX_UCPD1_Init(void);
  61:Core/Src/main.c **** static void MX_USART1_UART_Init(void);
  62:Core/Src/main.c **** static void MX_USB_OTG_FS_PCD_Init(void);
  63:Core/Src/main.c **** /* USER CODE BEGIN PFP */
  64:Core/Src/main.c **** 
  65:Core/Src/main.c **** /* USER CODE END PFP */
  66:Core/Src/main.c **** 
  67:Core/Src/main.c **** /* Private user code ---------------------------------------------------------*/
  68:Core/Src/main.c **** /* USER CODE BEGIN 0 */
  69:Core/Src/main.c **** 
  70:Core/Src/main.c **** /* USER CODE END 0 */
  71:Core/Src/main.c **** 
  72:Core/Src/main.c **** /**
  73:Core/Src/main.c ****   * @brief  The application entry point.
  74:Core/Src/main.c ****   * @retval int
  75:Core/Src/main.c ****   */
  76:Core/Src/main.c **** int main(void)
  77:Core/Src/main.c **** {
  78:Core/Src/main.c ****   /* USER CODE BEGIN 1 */
  79:Core/Src/main.c **** 
  80:Core/Src/main.c ****   /* USER CODE END 1 */
  81:Core/Src/main.c **** 
  82:Core/Src/main.c ****   /* MCU Configuration--------------------------------------------------------*/
  83:Core/Src/main.c **** 
  84:Core/Src/main.c ****   /* Reset of all peripherals, Initializes the Flash interface and the Systick. */
  85:Core/Src/main.c ****   HAL_Init();
  86:Core/Src/main.c **** 
  87:Core/Src/main.c ****   /* USER CODE BEGIN Init */
ARM GAS  C:\Users\Yamaan\AppData\Local\Temp\ccBR0E2V.s 			page 3


  88:Core/Src/main.c **** 
  89:Core/Src/main.c ****   /* USER CODE END Init */
  90:Core/Src/main.c **** 
  91:Core/Src/main.c ****   /* Configure the system clock */
  92:Core/Src/main.c ****   SystemClock_Config();
  93:Core/Src/main.c **** 
  94:Core/Src/main.c ****   /* Configure the System Power */
  95:Core/Src/main.c ****   SystemPower_Config();
  96:Core/Src/main.c **** 
  97:Core/Src/main.c ****   /* USER CODE BEGIN SysInit */
  98:Core/Src/main.c **** 
  99:Core/Src/main.c ****   /* USER CODE END SysInit */
 100:Core/Src/main.c **** 
 101:Core/Src/main.c ****   /* Initialize all configured peripherals */
 102:Core/Src/main.c ****   MX_GPIO_Init();
 103:Core/Src/main.c ****   MX_ADC1_Init();
 104:Core/Src/main.c ****   MX_FDCAN1_Init();
 105:Core/Src/main.c ****   MX_UCPD1_Init();
 106:Core/Src/main.c ****   MX_USART1_UART_Init();
 107:Core/Src/main.c ****   MX_USB_OTG_FS_PCD_Init();
 108:Core/Src/main.c ****   /* USER CODE BEGIN 2 */
 109:Core/Src/main.c **** 
 110:Core/Src/main.c ****   /* USER CODE END 2 */
 111:Core/Src/main.c **** 
 112:Core/Src/main.c ****   /* Infinite loop */
 113:Core/Src/main.c ****   /* USER CODE BEGIN WHILE */
 114:Core/Src/main.c ****   while (1)
 115:Core/Src/main.c ****   {
 116:Core/Src/main.c ****     /* USER CODE END WHILE */
 117:Core/Src/main.c **** 
 118:Core/Src/main.c ****     /* USER CODE BEGIN 3 */
 119:Core/Src/main.c ****   }
 120:Core/Src/main.c ****   /* USER CODE END 3 */
 121:Core/Src/main.c **** }
 122:Core/Src/main.c **** 
 123:Core/Src/main.c **** /**
 124:Core/Src/main.c ****   * @brief System Clock Configuration
 125:Core/Src/main.c ****   * @retval None
 126:Core/Src/main.c ****   */
 127:Core/Src/main.c **** void SystemClock_Config(void)
 128:Core/Src/main.c **** {
 129:Core/Src/main.c ****   RCC_OscInitTypeDef RCC_OscInitStruct = {0};
 130:Core/Src/main.c ****   RCC_ClkInitTypeDef RCC_ClkInitStruct = {0};
 131:Core/Src/main.c **** 
 132:Core/Src/main.c ****   /** Configure the main internal regulator output voltage
 133:Core/Src/main.c ****   */
 134:Core/Src/main.c ****   if (HAL_PWREx_ControlVoltageScaling(PWR_REGULATOR_VOLTAGE_SCALE1) != HAL_OK)
 135:Core/Src/main.c ****   {
 136:Core/Src/main.c ****     Error_Handler();
 137:Core/Src/main.c ****   }
 138:Core/Src/main.c **** 
 139:Core/Src/main.c ****   /** Initializes the CPU, AHB and APB buses clocks
 140:Core/Src/main.c ****   */
 141:Core/Src/main.c ****   RCC_OscInitStruct.OscillatorType = RCC_OSCILLATORTYPE_HSI48|RCC_OSCILLATORTYPE_HSI
 142:Core/Src/main.c ****                               |RCC_OSCILLATORTYPE_MSI;
 143:Core/Src/main.c ****   RCC_OscInitStruct.HSIState = RCC_HSI_ON;
 144:Core/Src/main.c ****   RCC_OscInitStruct.HSI48State = RCC_HSI48_ON;
ARM GAS  C:\Users\Yamaan\AppData\Local\Temp\ccBR0E2V.s 			page 4


 145:Core/Src/main.c ****   RCC_OscInitStruct.HSICalibrationValue = RCC_HSICALIBRATION_DEFAULT;
 146:Core/Src/main.c ****   RCC_OscInitStruct.MSIState = RCC_MSI_ON;
 147:Core/Src/main.c ****   RCC_OscInitStruct.MSICalibrationValue = RCC_MSICALIBRATION_DEFAULT;
 148:Core/Src/main.c ****   RCC_OscInitStruct.MSIClockRange = RCC_MSIRANGE_4;
 149:Core/Src/main.c ****   RCC_OscInitStruct.PLL.PLLState = RCC_PLL_ON;
 150:Core/Src/main.c ****   RCC_OscInitStruct.PLL.PLLSource = RCC_PLLSOURCE_MSI;
 151:Core/Src/main.c ****   RCC_OscInitStruct.PLL.PLLMBOOST = RCC_PLLMBOOST_DIV1;
 152:Core/Src/main.c ****   RCC_OscInitStruct.PLL.PLLM = 1;
 153:Core/Src/main.c ****   RCC_OscInitStruct.PLL.PLLN = 80;
 154:Core/Src/main.c ****   RCC_OscInitStruct.PLL.PLLP = 2;
 155:Core/Src/main.c ****   RCC_OscInitStruct.PLL.PLLQ = 2;
 156:Core/Src/main.c ****   RCC_OscInitStruct.PLL.PLLR = 2;
 157:Core/Src/main.c ****   RCC_OscInitStruct.PLL.PLLRGE = RCC_PLLVCIRANGE_0;
 158:Core/Src/main.c ****   RCC_OscInitStruct.PLL.PLLFRACN = 0;
 159:Core/Src/main.c ****   if (HAL_RCC_OscConfig(&RCC_OscInitStruct) != HAL_OK)
 160:Core/Src/main.c ****   {
 161:Core/Src/main.c ****     Error_Handler();
 162:Core/Src/main.c ****   }
 163:Core/Src/main.c **** 
 164:Core/Src/main.c ****   /** Initializes the CPU, AHB and APB buses clocks
 165:Core/Src/main.c ****   */
 166:Core/Src/main.c ****   RCC_ClkInitStruct.ClockType = RCC_CLOCKTYPE_HCLK|RCC_CLOCKTYPE_SYSCLK
 167:Core/Src/main.c ****                               |RCC_CLOCKTYPE_PCLK1|RCC_CLOCKTYPE_PCLK2
 168:Core/Src/main.c ****                               |RCC_CLOCKTYPE_PCLK3;
 169:Core/Src/main.c ****   RCC_ClkInitStruct.SYSCLKSource = RCC_SYSCLKSOURCE_PLLCLK;
 170:Core/Src/main.c ****   RCC_ClkInitStruct.AHBCLKDivider = RCC_SYSCLK_DIV1;
 171:Core/Src/main.c ****   RCC_ClkInitStruct.APB1CLKDivider = RCC_HCLK_DIV1;
 172:Core/Src/main.c ****   RCC_ClkInitStruct.APB2CLKDivider = RCC_HCLK_DIV1;
 173:Core/Src/main.c ****   RCC_ClkInitStruct.APB3CLKDivider = RCC_HCLK_DIV1;
 174:Core/Src/main.c **** 
 175:Core/Src/main.c ****   if (HAL_RCC_ClockConfig(&RCC_ClkInitStruct, FLASH_LATENCY_4) != HAL_OK)
 176:Core/Src/main.c ****   {
 177:Core/Src/main.c ****     Error_Handler();
 178:Core/Src/main.c ****   }
 179:Core/Src/main.c **** }
 180:Core/Src/main.c **** 
 181:Core/Src/main.c **** /**
 182:Core/Src/main.c ****   * @brief Power Configuration
 183:Core/Src/main.c ****   * @retval None
 184:Core/Src/main.c ****   */
 185:Core/Src/main.c **** static void SystemPower_Config(void)
 186:Core/Src/main.c **** {
 187:Core/Src/main.c ****   HAL_PWREx_EnableVddIO2();
 188:Core/Src/main.c **** 
 189:Core/Src/main.c ****   /*
 190:Core/Src/main.c ****    * Switch to SMPS regulator instead of LDO
 191:Core/Src/main.c ****    */
 192:Core/Src/main.c ****   if (HAL_PWREx_ConfigSupply(PWR_SMPS_SUPPLY) != HAL_OK)
 193:Core/Src/main.c ****   {
 194:Core/Src/main.c ****     Error_Handler();
 195:Core/Src/main.c ****   }
 196:Core/Src/main.c **** }
 197:Core/Src/main.c **** 
 198:Core/Src/main.c **** /**
 199:Core/Src/main.c ****   * @brief ADC1 Initialization Function
 200:Core/Src/main.c ****   * @param None
 201:Core/Src/main.c ****   * @retval None
ARM GAS  C:\Users\Yamaan\AppData\Local\Temp\ccBR0E2V.s 			page 5


 202:Core/Src/main.c ****   */
 203:Core/Src/main.c **** static void MX_ADC1_Init(void)
 204:Core/Src/main.c **** {
 205:Core/Src/main.c **** 
 206:Core/Src/main.c ****   /* USER CODE BEGIN ADC1_Init 0 */
 207:Core/Src/main.c **** 
 208:Core/Src/main.c ****   /* USER CODE END ADC1_Init 0 */
 209:Core/Src/main.c **** 
 210:Core/Src/main.c ****   /* USER CODE BEGIN ADC1_Init 1 */
 211:Core/Src/main.c **** 
 212:Core/Src/main.c ****   /* USER CODE END ADC1_Init 1 */
 213:Core/Src/main.c **** 
 214:Core/Src/main.c ****   /** Common config
 215:Core/Src/main.c ****   */
 216:Core/Src/main.c ****   hadc1.Instance = ADC1;
 217:Core/Src/main.c ****   hadc1.Init.ClockPrescaler = ADC_CLOCK_ASYNC_DIV1;
 218:Core/Src/main.c ****   hadc1.Init.Resolution = ADC_RESOLUTION_14B;
 219:Core/Src/main.c ****   hadc1.Init.GainCompensation = 0;
 220:Core/Src/main.c ****   hadc1.Init.ScanConvMode = ADC_SCAN_DISABLE;
 221:Core/Src/main.c ****   hadc1.Init.EOCSelection = ADC_EOC_SINGLE_CONV;
 222:Core/Src/main.c ****   hadc1.Init.LowPowerAutoWait = DISABLE;
 223:Core/Src/main.c ****   hadc1.Init.ContinuousConvMode = DISABLE;
 224:Core/Src/main.c ****   hadc1.Init.NbrOfConversion = 1;
 225:Core/Src/main.c ****   hadc1.Init.DiscontinuousConvMode = DISABLE;
 226:Core/Src/main.c ****   hadc1.Init.DMAContinuousRequests = DISABLE;
 227:Core/Src/main.c ****   hadc1.Init.TriggerFrequencyMode = ADC_TRIGGER_FREQ_HIGH;
 228:Core/Src/main.c ****   hadc1.Init.Overrun = ADC_OVR_DATA_PRESERVED;
 229:Core/Src/main.c ****   hadc1.Init.LeftBitShift = ADC_LEFTBITSHIFT_NONE;
 230:Core/Src/main.c ****   hadc1.Init.ConversionDataManagement = ADC_CONVERSIONDATA_DR;
 231:Core/Src/main.c ****   hadc1.Init.OversamplingMode = DISABLE;
 232:Core/Src/main.c ****   if (HAL_ADC_Init(&hadc1) != HAL_OK)
 233:Core/Src/main.c ****   {
 234:Core/Src/main.c ****     Error_Handler();
 235:Core/Src/main.c ****   }
 236:Core/Src/main.c ****   /* USER CODE BEGIN ADC1_Init 2 */
 237:Core/Src/main.c **** 
 238:Core/Src/main.c ****   /* USER CODE END ADC1_Init 2 */
 239:Core/Src/main.c **** 
 240:Core/Src/main.c **** }
 241:Core/Src/main.c **** 
 242:Core/Src/main.c **** /**
 243:Core/Src/main.c ****   * @brief FDCAN1 Initialization Function
 244:Core/Src/main.c ****   * @param None
 245:Core/Src/main.c ****   * @retval None
 246:Core/Src/main.c ****   */
 247:Core/Src/main.c **** static void MX_FDCAN1_Init(void)
 248:Core/Src/main.c **** {
 249:Core/Src/main.c **** 
 250:Core/Src/main.c ****   /* USER CODE BEGIN FDCAN1_Init 0 */
 251:Core/Src/main.c **** 
 252:Core/Src/main.c ****   /* USER CODE END FDCAN1_Init 0 */
 253:Core/Src/main.c **** 
 254:Core/Src/main.c ****   /* USER CODE BEGIN FDCAN1_Init 1 */
 255:Core/Src/main.c **** 
 256:Core/Src/main.c ****   /* USER CODE END FDCAN1_Init 1 */
 257:Core/Src/main.c ****   hfdcan1.Instance = FDCAN1;
 258:Core/Src/main.c ****   hfdcan1.Init.ClockDivider = FDCAN_CLOCK_DIV1;
ARM GAS  C:\Users\Yamaan\AppData\Local\Temp\ccBR0E2V.s 			page 6


 259:Core/Src/main.c ****   hfdcan1.Init.FrameFormat = FDCAN_FRAME_CLASSIC;
 260:Core/Src/main.c ****   hfdcan1.Init.Mode = FDCAN_MODE_NORMAL;
 261:Core/Src/main.c ****   hfdcan1.Init.AutoRetransmission = ENABLE;
 262:Core/Src/main.c ****   hfdcan1.Init.TransmitPause = DISABLE;
 263:Core/Src/main.c ****   hfdcan1.Init.ProtocolException = DISABLE;
 264:Core/Src/main.c ****   hfdcan1.Init.NominalPrescaler = 20;
 265:Core/Src/main.c ****   hfdcan1.Init.NominalSyncJumpWidth = 1;
 266:Core/Src/main.c ****   hfdcan1.Init.NominalTimeSeg1 = 13;
 267:Core/Src/main.c ****   hfdcan1.Init.NominalTimeSeg2 = 2;
 268:Core/Src/main.c ****   hfdcan1.Init.DataPrescaler = 1;
 269:Core/Src/main.c ****   hfdcan1.Init.DataSyncJumpWidth = 1;
 270:Core/Src/main.c ****   hfdcan1.Init.DataTimeSeg1 = 1;
 271:Core/Src/main.c ****   hfdcan1.Init.DataTimeSeg2 = 1;
 272:Core/Src/main.c ****   hfdcan1.Init.StdFiltersNbr = 0;
 273:Core/Src/main.c ****   hfdcan1.Init.ExtFiltersNbr = 0;
 274:Core/Src/main.c ****   hfdcan1.Init.TxFifoQueueMode = FDCAN_TX_FIFO_OPERATION;
 275:Core/Src/main.c ****   if (HAL_FDCAN_Init(&hfdcan1) != HAL_OK)
 276:Core/Src/main.c ****   {
 277:Core/Src/main.c ****     Error_Handler();
 278:Core/Src/main.c ****   }
 279:Core/Src/main.c ****   /* USER CODE BEGIN FDCAN1_Init 2 */
 280:Core/Src/main.c **** 
 281:Core/Src/main.c ****   /* USER CODE END FDCAN1_Init 2 */
 282:Core/Src/main.c **** 
 283:Core/Src/main.c **** }
 284:Core/Src/main.c **** 
 285:Core/Src/main.c **** /**
 286:Core/Src/main.c ****   * @brief UCPD1 Initialization Function
 287:Core/Src/main.c ****   * @param None
 288:Core/Src/main.c ****   * @retval None
 289:Core/Src/main.c ****   */
 290:Core/Src/main.c **** static void MX_UCPD1_Init(void)
 291:Core/Src/main.c **** {
 292:Core/Src/main.c **** 
 293:Core/Src/main.c ****   /* USER CODE BEGIN UCPD1_Init 0 */
 294:Core/Src/main.c **** 
 295:Core/Src/main.c ****   /* USER CODE END UCPD1_Init 0 */
 296:Core/Src/main.c **** 
 297:Core/Src/main.c ****   LL_GPIO_InitTypeDef GPIO_InitStruct = {0};
 298:Core/Src/main.c **** 
 299:Core/Src/main.c ****   /* Peripheral clock enable */
 300:Core/Src/main.c ****   LL_APB1_GRP2_EnableClock(LL_APB1_GRP2_PERIPH_UCPD1);
 301:Core/Src/main.c **** 
 302:Core/Src/main.c ****   LL_AHB2_GRP1_EnableClock(LL_AHB2_GRP1_PERIPH_GPIOB);
 303:Core/Src/main.c ****   LL_AHB2_GRP1_EnableClock(LL_AHB2_GRP1_PERIPH_GPIOA);
 304:Core/Src/main.c ****   /**UCPD1 GPIO Configuration
 305:Core/Src/main.c ****   PB15   ------> UCPD1_CC2
 306:Core/Src/main.c ****   PA15 (JTDI)   ------> UCPD1_CC1
 307:Core/Src/main.c ****   */
 308:Core/Src/main.c ****   GPIO_InitStruct.Pin = LL_GPIO_PIN_15;
 309:Core/Src/main.c ****   GPIO_InitStruct.Mode = LL_GPIO_MODE_ANALOG;
 310:Core/Src/main.c ****   GPIO_InitStruct.Pull = LL_GPIO_PULL_NO;
 311:Core/Src/main.c ****   LL_GPIO_Init(GPIOB, &GPIO_InitStruct);
 312:Core/Src/main.c **** 
 313:Core/Src/main.c ****   GPIO_InitStruct.Pin = LL_GPIO_PIN_15;
 314:Core/Src/main.c ****   GPIO_InitStruct.Mode = LL_GPIO_MODE_ANALOG;
 315:Core/Src/main.c ****   GPIO_InitStruct.Pull = LL_GPIO_PULL_NO;
ARM GAS  C:\Users\Yamaan\AppData\Local\Temp\ccBR0E2V.s 			page 7


 316:Core/Src/main.c ****   LL_GPIO_Init(GPIOA, &GPIO_InitStruct);
 317:Core/Src/main.c **** 
 318:Core/Src/main.c ****   /* USER CODE BEGIN UCPD1_Init 1 */
 319:Core/Src/main.c **** 
 320:Core/Src/main.c ****   /* USER CODE END UCPD1_Init 1 */
 321:Core/Src/main.c ****   /* USER CODE BEGIN UCPD1_Init 2 */
 322:Core/Src/main.c **** 
 323:Core/Src/main.c ****   /* USER CODE END UCPD1_Init 2 */
 324:Core/Src/main.c **** 
 325:Core/Src/main.c **** }
 326:Core/Src/main.c **** 
 327:Core/Src/main.c **** /**
 328:Core/Src/main.c ****   * @brief USART1 Initialization Function
 329:Core/Src/main.c ****   * @param None
 330:Core/Src/main.c ****   * @retval None
 331:Core/Src/main.c ****   */
 332:Core/Src/main.c **** static void MX_USART1_UART_Init(void)
 333:Core/Src/main.c **** {
 334:Core/Src/main.c **** 
 335:Core/Src/main.c ****   /* USER CODE BEGIN USART1_Init 0 */
 336:Core/Src/main.c **** 
 337:Core/Src/main.c ****   /* USER CODE END USART1_Init 0 */
 338:Core/Src/main.c **** 
 339:Core/Src/main.c ****   /* USER CODE BEGIN USART1_Init 1 */
 340:Core/Src/main.c **** 
 341:Core/Src/main.c ****   /* USER CODE END USART1_Init 1 */
 342:Core/Src/main.c ****   huart1.Instance = USART1;
 343:Core/Src/main.c ****   huart1.Init.BaudRate = 115200;
 344:Core/Src/main.c ****   huart1.Init.WordLength = UART_WORDLENGTH_8B;
 345:Core/Src/main.c ****   huart1.Init.StopBits = UART_STOPBITS_1;
 346:Core/Src/main.c ****   huart1.Init.Parity = UART_PARITY_NONE;
 347:Core/Src/main.c ****   huart1.Init.Mode = UART_MODE_TX_RX;
 348:Core/Src/main.c ****   huart1.Init.HwFlowCtl = UART_HWCONTROL_NONE;
 349:Core/Src/main.c ****   huart1.Init.OverSampling = UART_OVERSAMPLING_16;
 350:Core/Src/main.c ****   huart1.Init.OneBitSampling = UART_ONE_BIT_SAMPLE_DISABLE;
 351:Core/Src/main.c ****   huart1.Init.ClockPrescaler = UART_PRESCALER_DIV1;
 352:Core/Src/main.c ****   huart1.AdvancedInit.AdvFeatureInit = UART_ADVFEATURE_NO_INIT;
 353:Core/Src/main.c ****   if (HAL_UART_Init(&huart1) != HAL_OK)
 354:Core/Src/main.c ****   {
 355:Core/Src/main.c ****     Error_Handler();
 356:Core/Src/main.c ****   }
 357:Core/Src/main.c ****   if (HAL_UARTEx_SetTxFifoThreshold(&huart1, UART_TXFIFO_THRESHOLD_1_8) != HAL_OK)
 358:Core/Src/main.c ****   {
 359:Core/Src/main.c ****     Error_Handler();
 360:Core/Src/main.c ****   }
 361:Core/Src/main.c ****   if (HAL_UARTEx_SetRxFifoThreshold(&huart1, UART_RXFIFO_THRESHOLD_1_8) != HAL_OK)
 362:Core/Src/main.c ****   {
 363:Core/Src/main.c ****     Error_Handler();
 364:Core/Src/main.c ****   }
 365:Core/Src/main.c ****   if (HAL_UARTEx_DisableFifoMode(&huart1) != HAL_OK)
 366:Core/Src/main.c ****   {
 367:Core/Src/main.c ****     Error_Handler();
 368:Core/Src/main.c ****   }
 369:Core/Src/main.c ****   /* USER CODE BEGIN USART1_Init 2 */
 370:Core/Src/main.c **** 
 371:Core/Src/main.c ****   /* USER CODE END USART1_Init 2 */
 372:Core/Src/main.c **** 
ARM GAS  C:\Users\Yamaan\AppData\Local\Temp\ccBR0E2V.s 			page 8


 373:Core/Src/main.c **** }
 374:Core/Src/main.c **** 
 375:Core/Src/main.c **** /**
 376:Core/Src/main.c ****   * @brief USB_OTG_FS Initialization Function
 377:Core/Src/main.c ****   * @param None
 378:Core/Src/main.c ****   * @retval None
 379:Core/Src/main.c ****   */
 380:Core/Src/main.c **** static void MX_USB_OTG_FS_PCD_Init(void)
 381:Core/Src/main.c **** {
 382:Core/Src/main.c **** 
 383:Core/Src/main.c ****   /* USER CODE BEGIN USB_OTG_FS_Init 0 */
 384:Core/Src/main.c **** 
 385:Core/Src/main.c ****   /* USER CODE END USB_OTG_FS_Init 0 */
 386:Core/Src/main.c **** 
 387:Core/Src/main.c ****   /* USER CODE BEGIN USB_OTG_FS_Init 1 */
 388:Core/Src/main.c **** 
 389:Core/Src/main.c ****   /* USER CODE END USB_OTG_FS_Init 1 */
 390:Core/Src/main.c ****   hpcd_USB_OTG_FS.Instance = USB_OTG_FS;
 391:Core/Src/main.c ****   hpcd_USB_OTG_FS.Init.dev_endpoints = 6;
 392:Core/Src/main.c ****   hpcd_USB_OTG_FS.Init.phy_itface = PCD_PHY_EMBEDDED;
 393:Core/Src/main.c ****   hpcd_USB_OTG_FS.Init.Sof_enable = DISABLE;
 394:Core/Src/main.c ****   hpcd_USB_OTG_FS.Init.low_power_enable = DISABLE;
 395:Core/Src/main.c ****   hpcd_USB_OTG_FS.Init.lpm_enable = DISABLE;
 396:Core/Src/main.c ****   hpcd_USB_OTG_FS.Init.battery_charging_enable = DISABLE;
 397:Core/Src/main.c ****   hpcd_USB_OTG_FS.Init.use_dedicated_ep1 = DISABLE;
 398:Core/Src/main.c ****   hpcd_USB_OTG_FS.Init.vbus_sensing_enable = DISABLE;
 399:Core/Src/main.c ****   if (HAL_PCD_Init(&hpcd_USB_OTG_FS) != HAL_OK)
 400:Core/Src/main.c ****   {
 401:Core/Src/main.c ****     Error_Handler();
 402:Core/Src/main.c ****   }
 403:Core/Src/main.c ****   /* USER CODE BEGIN USB_OTG_FS_Init 2 */
 404:Core/Src/main.c **** 
 405:Core/Src/main.c ****   /* USER CODE END USB_OTG_FS_Init 2 */
 406:Core/Src/main.c **** 
 407:Core/Src/main.c **** }
 408:Core/Src/main.c **** 
 409:Core/Src/main.c **** /**
 410:Core/Src/main.c ****   * @brief GPIO Initialization Function
 411:Core/Src/main.c ****   * @param None
 412:Core/Src/main.c ****   * @retval None
 413:Core/Src/main.c ****   */
 414:Core/Src/main.c **** static void MX_GPIO_Init(void)
 415:Core/Src/main.c **** {
  29              		.loc 1 415 1 view -0
  30              		.cfi_startproc
  31              		@ args = 0, pretend = 0, frame = 48
  32              		@ frame_needed = 0, uses_anonymous_args = 0
  33 0000 2DE9F04F 		push	{r4, r5, r6, r7, r8, r9, r10, fp, lr}
  34              		.cfi_def_cfa_offset 36
  35              		.cfi_offset 4, -36
  36              		.cfi_offset 5, -32
  37              		.cfi_offset 6, -28
  38              		.cfi_offset 7, -24
  39              		.cfi_offset 8, -20
  40              		.cfi_offset 9, -16
  41              		.cfi_offset 10, -12
  42              		.cfi_offset 11, -8
ARM GAS  C:\Users\Yamaan\AppData\Local\Temp\ccBR0E2V.s 			page 9


  43              		.cfi_offset 14, -4
  44 0004 8DB0     		sub	sp, sp, #52
  45              		.cfi_def_cfa_offset 88
 416:Core/Src/main.c ****   GPIO_InitTypeDef GPIO_InitStruct = {0};
  46              		.loc 1 416 3 view .LVU1
  47              		.loc 1 416 20 is_stmt 0 view .LVU2
  48 0006 0024     		movs	r4, #0
  49 0008 0794     		str	r4, [sp, #28]
  50 000a 0894     		str	r4, [sp, #32]
  51 000c 0994     		str	r4, [sp, #36]
  52 000e 0A94     		str	r4, [sp, #40]
  53 0010 0B94     		str	r4, [sp, #44]
 417:Core/Src/main.c **** 
 418:Core/Src/main.c ****   /* GPIO Ports Clock Enable */
 419:Core/Src/main.c ****   __HAL_RCC_GPIOC_CLK_ENABLE();
  54              		.loc 1 419 3 is_stmt 1 view .LVU3
  55              	.LBB10:
  56              		.loc 1 419 3 view .LVU4
  57              		.loc 1 419 3 view .LVU5
  58 0012 6F4B     		ldr	r3, .L3
  59 0014 D3F88C20 		ldr	r2, [r3, #140]
  60 0018 42F00402 		orr	r2, r2, #4
  61 001c C3F88C20 		str	r2, [r3, #140]
  62              		.loc 1 419 3 view .LVU6
  63 0020 D3F88C20 		ldr	r2, [r3, #140]
  64 0024 02F00402 		and	r2, r2, #4
  65 0028 0092     		str	r2, [sp]
  66              		.loc 1 419 3 view .LVU7
  67 002a 009A     		ldr	r2, [sp]
  68              	.LBE10:
  69              		.loc 1 419 3 view .LVU8
 420:Core/Src/main.c ****   __HAL_RCC_GPIOA_CLK_ENABLE();
  70              		.loc 1 420 3 view .LVU9
  71              	.LBB11:
  72              		.loc 1 420 3 view .LVU10
  73              		.loc 1 420 3 view .LVU11
  74 002c D3F88C20 		ldr	r2, [r3, #140]
  75 0030 42F00102 		orr	r2, r2, #1
  76 0034 C3F88C20 		str	r2, [r3, #140]
  77              		.loc 1 420 3 view .LVU12
  78 0038 D3F88C20 		ldr	r2, [r3, #140]
  79 003c 02F00102 		and	r2, r2, #1
  80 0040 0192     		str	r2, [sp, #4]
  81              		.loc 1 420 3 view .LVU13
  82 0042 019A     		ldr	r2, [sp, #4]
  83              	.LBE11:
  84              		.loc 1 420 3 view .LVU14
 421:Core/Src/main.c ****   __HAL_RCC_GPIOB_CLK_ENABLE();
  85              		.loc 1 421 3 view .LVU15
  86              	.LBB12:
  87              		.loc 1 421 3 view .LVU16
  88              		.loc 1 421 3 view .LVU17
  89 0044 D3F88C20 		ldr	r2, [r3, #140]
  90 0048 42F00202 		orr	r2, r2, #2
  91 004c C3F88C20 		str	r2, [r3, #140]
  92              		.loc 1 421 3 view .LVU18
  93 0050 D3F88C20 		ldr	r2, [r3, #140]
ARM GAS  C:\Users\Yamaan\AppData\Local\Temp\ccBR0E2V.s 			page 10


  94 0054 02F00202 		and	r2, r2, #2
  95 0058 0292     		str	r2, [sp, #8]
  96              		.loc 1 421 3 view .LVU19
  97 005a 029A     		ldr	r2, [sp, #8]
  98              	.LBE12:
  99              		.loc 1 421 3 view .LVU20
 422:Core/Src/main.c ****   __HAL_RCC_GPIOF_CLK_ENABLE();
 100              		.loc 1 422 3 view .LVU21
 101              	.LBB13:
 102              		.loc 1 422 3 view .LVU22
 103              		.loc 1 422 3 view .LVU23
 104 005c D3F88C20 		ldr	r2, [r3, #140]
 105 0060 42F02002 		orr	r2, r2, #32
 106 0064 C3F88C20 		str	r2, [r3, #140]
 107              		.loc 1 422 3 view .LVU24
 108 0068 D3F88C20 		ldr	r2, [r3, #140]
 109 006c 02F02002 		and	r2, r2, #32
 110 0070 0392     		str	r2, [sp, #12]
 111              		.loc 1 422 3 view .LVU25
 112 0072 039A     		ldr	r2, [sp, #12]
 113              	.LBE13:
 114              		.loc 1 422 3 view .LVU26
 423:Core/Src/main.c ****   __HAL_RCC_GPIOE_CLK_ENABLE();
 115              		.loc 1 423 3 view .LVU27
 116              	.LBB14:
 117              		.loc 1 423 3 view .LVU28
 118              		.loc 1 423 3 view .LVU29
 119 0074 D3F88C20 		ldr	r2, [r3, #140]
 120 0078 42F01002 		orr	r2, r2, #16
 121 007c C3F88C20 		str	r2, [r3, #140]
 122              		.loc 1 423 3 view .LVU30
 123 0080 D3F88C20 		ldr	r2, [r3, #140]
 124 0084 02F01002 		and	r2, r2, #16
 125 0088 0492     		str	r2, [sp, #16]
 126              		.loc 1 423 3 view .LVU31
 127 008a 049A     		ldr	r2, [sp, #16]
 128              	.LBE14:
 129              		.loc 1 423 3 view .LVU32
 424:Core/Src/main.c ****   __HAL_RCC_GPIOG_CLK_ENABLE();
 130              		.loc 1 424 3 view .LVU33
 131              	.LBB15:
 132              		.loc 1 424 3 view .LVU34
 133              		.loc 1 424 3 view .LVU35
 134 008c D3F88C20 		ldr	r2, [r3, #140]
 135 0090 42F04002 		orr	r2, r2, #64
 136 0094 C3F88C20 		str	r2, [r3, #140]
 137              		.loc 1 424 3 view .LVU36
 138 0098 D3F88C20 		ldr	r2, [r3, #140]
 139 009c 02F04002 		and	r2, r2, #64
 140 00a0 0592     		str	r2, [sp, #20]
 141              		.loc 1 424 3 view .LVU37
 142 00a2 059A     		ldr	r2, [sp, #20]
 143              	.LBE15:
 144              		.loc 1 424 3 view .LVU38
 425:Core/Src/main.c ****   __HAL_RCC_GPIOD_CLK_ENABLE();
 145              		.loc 1 425 3 view .LVU39
 146              	.LBB16:
ARM GAS  C:\Users\Yamaan\AppData\Local\Temp\ccBR0E2V.s 			page 11


 147              		.loc 1 425 3 view .LVU40
 148              		.loc 1 425 3 view .LVU41
 149 00a4 D3F88C20 		ldr	r2, [r3, #140]
 150 00a8 42F00802 		orr	r2, r2, #8
 151 00ac C3F88C20 		str	r2, [r3, #140]
 152              		.loc 1 425 3 view .LVU42
 153 00b0 D3F88C30 		ldr	r3, [r3, #140]
 154 00b4 03F00803 		and	r3, r3, #8
 155 00b8 0693     		str	r3, [sp, #24]
 156              		.loc 1 425 3 view .LVU43
 157 00ba 069B     		ldr	r3, [sp, #24]
 158              	.LBE16:
 159              		.loc 1 425 3 view .LVU44
 426:Core/Src/main.c **** 
 427:Core/Src/main.c ****   /*Configure GPIO pin Output Level */
 428:Core/Src/main.c ****   HAL_GPIO_WritePin(S0_GPIO_Port, S0_Pin, GPIO_PIN_RESET);
 160              		.loc 1 428 3 view .LVU45
 161 00bc DFF81C91 		ldr	r9, .L3+12
 162 00c0 2246     		mov	r2, r4
 163 00c2 4FF40051 		mov	r1, #8192
 164 00c6 4846     		mov	r0, r9
 165 00c8 FFF7FEFF 		bl	HAL_GPIO_WritePin
 166              	.LVL0:
 429:Core/Src/main.c **** 
 430:Core/Src/main.c ****   /*Configure GPIO pin Output Level */
 431:Core/Src/main.c ****   HAL_GPIO_WritePin(S2_GPIO_Port, S2_Pin, GPIO_PIN_SET);
 167              		.loc 1 431 3 view .LVU46
 168 00cc 0122     		movs	r2, #1
 169 00ce 4FF40041 		mov	r1, #32768
 170 00d2 4846     		mov	r0, r9
 171 00d4 FFF7FEFF 		bl	HAL_GPIO_WritePin
 172              	.LVL1:
 432:Core/Src/main.c **** 
 433:Core/Src/main.c ****   /*Configure GPIO pin Output Level */
 434:Core/Src/main.c ****   HAL_GPIO_WritePin(S1_GPIO_Port, S1_Pin, GPIO_PIN_SET);
 173              		.loc 1 434 3 view .LVU47
 174 00d8 DFF804B1 		ldr	fp, .L3+16
 175 00dc 0122     		movs	r2, #1
 176 00de 4FF40061 		mov	r1, #2048
 177 00e2 5846     		mov	r0, fp
 178 00e4 FFF7FEFF 		bl	HAL_GPIO_WritePin
 179              	.LVL2:
 435:Core/Src/main.c **** 
 436:Core/Src/main.c ****   /*Configure GPIO pin Output Level */
 437:Core/Src/main.c ****   HAL_GPIO_WritePin(LED_RED_GPIO_Port, LED_RED_Pin, GPIO_PIN_RESET);
 180              		.loc 1 437 3 view .LVU48
 181 00e8 DFF8F8A0 		ldr	r10, .L3+20
 182 00ec 2246     		mov	r2, r4
 183 00ee 0421     		movs	r1, #4
 184 00f0 5046     		mov	r0, r10
 185 00f2 FFF7FEFF 		bl	HAL_GPIO_WritePin
 186              	.LVL3:
 438:Core/Src/main.c **** 
 439:Core/Src/main.c ****   /*Configure GPIO pin Output Level */
 440:Core/Src/main.c ****   HAL_GPIO_WritePin(LED_GREEN_GPIO_Port, LED_GREEN_Pin, GPIO_PIN_RESET);
 187              		.loc 1 440 3 view .LVU49
 188 00f6 DFF8F080 		ldr	r8, .L3+24
ARM GAS  C:\Users\Yamaan\AppData\Local\Temp\ccBR0E2V.s 			page 12


 189 00fa 2246     		mov	r2, r4
 190 00fc 8021     		movs	r1, #128
 191 00fe 4046     		mov	r0, r8
 192 0100 FFF7FEFF 		bl	HAL_GPIO_WritePin
 193              	.LVL4:
 441:Core/Src/main.c **** 
 442:Core/Src/main.c ****   /*Configure GPIO pin Output Level */
 443:Core/Src/main.c ****   HAL_GPIO_WritePin(TEMP_OK_GPIO_Port, TEMP_OK_Pin, GPIO_PIN_SET);
 194              		.loc 1 443 3 view .LVU50
 195 0104 334E     		ldr	r6, .L3+4
 196 0106 0122     		movs	r2, #1
 197 0108 1021     		movs	r1, #16
 198 010a 3046     		mov	r0, r6
 199 010c FFF7FEFF 		bl	HAL_GPIO_WritePin
 200              	.LVL5:
 444:Core/Src/main.c **** 
 445:Core/Src/main.c ****   /*Configure GPIO pin Output Level */
 446:Core/Src/main.c ****   HAL_GPIO_WritePin(GPIOB, UCPD_DBn_Pin|LED_BLUE_Pin, GPIO_PIN_RESET);
 201              		.loc 1 446 3 view .LVU51
 202 0110 2246     		mov	r2, r4
 203 0112 A021     		movs	r1, #160
 204 0114 3046     		mov	r0, r6
 205 0116 FFF7FEFF 		bl	HAL_GPIO_WritePin
 206              	.LVL6:
 447:Core/Src/main.c **** 
 448:Core/Src/main.c ****   /*Configure GPIO pin : USER_BUTTON_Pin */
 449:Core/Src/main.c ****   GPIO_InitStruct.Pin = USER_BUTTON_Pin;
 207              		.loc 1 449 3 view .LVU52
 208              		.loc 1 449 23 is_stmt 0 view .LVU53
 209 011a 4FF40053 		mov	r3, #8192
 210 011e 0793     		str	r3, [sp, #28]
 450:Core/Src/main.c ****   GPIO_InitStruct.Mode = GPIO_MODE_IT_FALLING;
 211              		.loc 1 450 3 is_stmt 1 view .LVU54
 212              		.loc 1 450 24 is_stmt 0 view .LVU55
 213 0120 2D4B     		ldr	r3, .L3+8
 214 0122 0893     		str	r3, [sp, #32]
 451:Core/Src/main.c ****   GPIO_InitStruct.Pull = GPIO_NOPULL;
 215              		.loc 1 451 3 is_stmt 1 view .LVU56
 216              		.loc 1 451 24 is_stmt 0 view .LVU57
 217 0124 0994     		str	r4, [sp, #36]
 452:Core/Src/main.c ****   HAL_GPIO_Init(USER_BUTTON_GPIO_Port, &GPIO_InitStruct);
 218              		.loc 1 452 3 is_stmt 1 view .LVU58
 219 0126 07A9     		add	r1, sp, #28
 220 0128 4046     		mov	r0, r8
 221 012a FFF7FEFF 		bl	HAL_GPIO_Init
 222              	.LVL7:
 453:Core/Src/main.c **** 
 454:Core/Src/main.c ****   /*Configure GPIO pins : S0_Pin S2_Pin */
 455:Core/Src/main.c ****   GPIO_InitStruct.Pin = S0_Pin|S2_Pin;
 223              		.loc 1 455 3 view .LVU59
 224              		.loc 1 455 23 is_stmt 0 view .LVU60
 225 012e 4FF42043 		mov	r3, #40960
 226 0132 0793     		str	r3, [sp, #28]
 456:Core/Src/main.c ****   GPIO_InitStruct.Mode = GPIO_MODE_OUTPUT_PP;
 227              		.loc 1 456 3 is_stmt 1 view .LVU61
 228              		.loc 1 456 24 is_stmt 0 view .LVU62
 229 0134 0125     		movs	r5, #1
ARM GAS  C:\Users\Yamaan\AppData\Local\Temp\ccBR0E2V.s 			page 13


 230 0136 0895     		str	r5, [sp, #32]
 457:Core/Src/main.c ****   GPIO_InitStruct.Pull = GPIO_PULLDOWN;
 231              		.loc 1 457 3 is_stmt 1 view .LVU63
 232              		.loc 1 457 24 is_stmt 0 view .LVU64
 233 0138 0227     		movs	r7, #2
 234 013a 0997     		str	r7, [sp, #36]
 458:Core/Src/main.c ****   GPIO_InitStruct.Speed = GPIO_SPEED_FREQ_LOW;
 235              		.loc 1 458 3 is_stmt 1 view .LVU65
 236              		.loc 1 458 25 is_stmt 0 view .LVU66
 237 013c 0A94     		str	r4, [sp, #40]
 459:Core/Src/main.c ****   HAL_GPIO_Init(GPIOF, &GPIO_InitStruct);
 238              		.loc 1 459 3 is_stmt 1 view .LVU67
 239 013e 07A9     		add	r1, sp, #28
 240 0140 4846     		mov	r0, r9
 241 0142 FFF7FEFF 		bl	HAL_GPIO_Init
 242              	.LVL8:
 460:Core/Src/main.c **** 
 461:Core/Src/main.c ****   /*Configure GPIO pin : S1_Pin */
 462:Core/Src/main.c ****   GPIO_InitStruct.Pin = S1_Pin;
 243              		.loc 1 462 3 view .LVU68
 244              		.loc 1 462 23 is_stmt 0 view .LVU69
 245 0146 4FF40063 		mov	r3, #2048
 246 014a 0793     		str	r3, [sp, #28]
 463:Core/Src/main.c ****   GPIO_InitStruct.Mode = GPIO_MODE_OUTPUT_PP;
 247              		.loc 1 463 3 is_stmt 1 view .LVU70
 248              		.loc 1 463 24 is_stmt 0 view .LVU71
 249 014c 0895     		str	r5, [sp, #32]
 464:Core/Src/main.c ****   GPIO_InitStruct.Pull = GPIO_PULLDOWN;
 250              		.loc 1 464 3 is_stmt 1 view .LVU72
 251              		.loc 1 464 24 is_stmt 0 view .LVU73
 252 014e 0997     		str	r7, [sp, #36]
 465:Core/Src/main.c ****   GPIO_InitStruct.Speed = GPIO_SPEED_FREQ_LOW;
 253              		.loc 1 465 3 is_stmt 1 view .LVU74
 254              		.loc 1 465 25 is_stmt 0 view .LVU75
 255 0150 0A94     		str	r4, [sp, #40]
 466:Core/Src/main.c ****   HAL_GPIO_Init(S1_GPIO_Port, &GPIO_InitStruct);
 256              		.loc 1 466 3 is_stmt 1 view .LVU76
 257 0152 07A9     		add	r1, sp, #28
 258 0154 5846     		mov	r0, fp
 259 0156 FFF7FEFF 		bl	HAL_GPIO_Init
 260              	.LVL9:
 467:Core/Src/main.c **** 
 468:Core/Src/main.c ****   /*Configure GPIO pin : UCPD_FLT_Pin */
 469:Core/Src/main.c ****   GPIO_InitStruct.Pin = UCPD_FLT_Pin;
 261              		.loc 1 469 3 view .LVU77
 262              		.loc 1 469 23 is_stmt 0 view .LVU78
 263 015a 4FF48043 		mov	r3, #16384
 264 015e 0793     		str	r3, [sp, #28]
 470:Core/Src/main.c ****   GPIO_InitStruct.Mode = GPIO_MODE_INPUT;
 265              		.loc 1 470 3 is_stmt 1 view .LVU79
 266              		.loc 1 470 24 is_stmt 0 view .LVU80
 267 0160 0894     		str	r4, [sp, #32]
 471:Core/Src/main.c ****   GPIO_InitStruct.Pull = GPIO_NOPULL;
 268              		.loc 1 471 3 is_stmt 1 view .LVU81
 269              		.loc 1 471 24 is_stmt 0 view .LVU82
 270 0162 0994     		str	r4, [sp, #36]
 472:Core/Src/main.c ****   HAL_GPIO_Init(UCPD_FLT_GPIO_Port, &GPIO_InitStruct);
ARM GAS  C:\Users\Yamaan\AppData\Local\Temp\ccBR0E2V.s 			page 14


 271              		.loc 1 472 3 is_stmt 1 view .LVU83
 272 0164 07A9     		add	r1, sp, #28
 273 0166 3046     		mov	r0, r6
 274 0168 FFF7FEFF 		bl	HAL_GPIO_Init
 275              	.LVL10:
 473:Core/Src/main.c **** 
 474:Core/Src/main.c ****   /*Configure GPIO pin : LED_RED_Pin */
 475:Core/Src/main.c ****   GPIO_InitStruct.Pin = LED_RED_Pin;
 276              		.loc 1 475 3 view .LVU84
 277              		.loc 1 475 23 is_stmt 0 view .LVU85
 278 016c 0423     		movs	r3, #4
 279 016e 0793     		str	r3, [sp, #28]
 476:Core/Src/main.c ****   GPIO_InitStruct.Mode = GPIO_MODE_OUTPUT_PP;
 280              		.loc 1 476 3 is_stmt 1 view .LVU86
 281              		.loc 1 476 24 is_stmt 0 view .LVU87
 282 0170 0895     		str	r5, [sp, #32]
 477:Core/Src/main.c ****   GPIO_InitStruct.Pull = GPIO_PULLUP;
 283              		.loc 1 477 3 is_stmt 1 view .LVU88
 284              		.loc 1 477 24 is_stmt 0 view .LVU89
 285 0172 0995     		str	r5, [sp, #36]
 478:Core/Src/main.c ****   GPIO_InitStruct.Speed = GPIO_SPEED_FREQ_HIGH;
 286              		.loc 1 478 3 is_stmt 1 view .LVU90
 287              		.loc 1 478 25 is_stmt 0 view .LVU91
 288 0174 0A97     		str	r7, [sp, #40]
 479:Core/Src/main.c ****   HAL_GPIO_Init(LED_RED_GPIO_Port, &GPIO_InitStruct);
 289              		.loc 1 479 3 is_stmt 1 view .LVU92
 290 0176 07A9     		add	r1, sp, #28
 291 0178 5046     		mov	r0, r10
 292 017a FFF7FEFF 		bl	HAL_GPIO_Init
 293              	.LVL11:
 480:Core/Src/main.c **** 
 481:Core/Src/main.c ****   /*Configure GPIO pin : LED_GREEN_Pin */
 482:Core/Src/main.c ****   GPIO_InitStruct.Pin = LED_GREEN_Pin;
 294              		.loc 1 482 3 view .LVU93
 295              		.loc 1 482 23 is_stmt 0 view .LVU94
 296 017e 4FF08009 		mov	r9, #128
 297 0182 CDF81C90 		str	r9, [sp, #28]
 483:Core/Src/main.c ****   GPIO_InitStruct.Mode = GPIO_MODE_OUTPUT_PP;
 298              		.loc 1 483 3 is_stmt 1 view .LVU95
 299              		.loc 1 483 24 is_stmt 0 view .LVU96
 300 0186 0895     		str	r5, [sp, #32]
 484:Core/Src/main.c ****   GPIO_InitStruct.Pull = GPIO_PULLUP;
 301              		.loc 1 484 3 is_stmt 1 view .LVU97
 302              		.loc 1 484 24 is_stmt 0 view .LVU98
 303 0188 0995     		str	r5, [sp, #36]
 485:Core/Src/main.c ****   GPIO_InitStruct.Speed = GPIO_SPEED_FREQ_HIGH;
 304              		.loc 1 485 3 is_stmt 1 view .LVU99
 305              		.loc 1 485 25 is_stmt 0 view .LVU100
 306 018a 0A97     		str	r7, [sp, #40]
 486:Core/Src/main.c ****   HAL_GPIO_Init(LED_GREEN_GPIO_Port, &GPIO_InitStruct);
 307              		.loc 1 486 3 is_stmt 1 view .LVU101
 308 018c 07A9     		add	r1, sp, #28
 309 018e 4046     		mov	r0, r8
 310 0190 FFF7FEFF 		bl	HAL_GPIO_Init
 311              	.LVL12:
 487:Core/Src/main.c **** 
 488:Core/Src/main.c ****   /*Configure GPIO pin : TEMP_OK_Pin */
ARM GAS  C:\Users\Yamaan\AppData\Local\Temp\ccBR0E2V.s 			page 15


 489:Core/Src/main.c ****   GPIO_InitStruct.Pin = TEMP_OK_Pin;
 312              		.loc 1 489 3 view .LVU102
 313              		.loc 1 489 23 is_stmt 0 view .LVU103
 314 0194 1023     		movs	r3, #16
 315 0196 0793     		str	r3, [sp, #28]
 490:Core/Src/main.c ****   GPIO_InitStruct.Mode = GPIO_MODE_OUTPUT_PP;
 316              		.loc 1 490 3 is_stmt 1 view .LVU104
 317              		.loc 1 490 24 is_stmt 0 view .LVU105
 318 0198 0895     		str	r5, [sp, #32]
 491:Core/Src/main.c ****   GPIO_InitStruct.Pull = GPIO_PULLDOWN;
 319              		.loc 1 491 3 is_stmt 1 view .LVU106
 320              		.loc 1 491 24 is_stmt 0 view .LVU107
 321 019a 0997     		str	r7, [sp, #36]
 492:Core/Src/main.c ****   GPIO_InitStruct.Speed = GPIO_SPEED_FREQ_LOW;
 322              		.loc 1 492 3 is_stmt 1 view .LVU108
 323              		.loc 1 492 25 is_stmt 0 view .LVU109
 324 019c 0A94     		str	r4, [sp, #40]
 493:Core/Src/main.c ****   HAL_GPIO_Init(TEMP_OK_GPIO_Port, &GPIO_InitStruct);
 325              		.loc 1 493 3 is_stmt 1 view .LVU110
 326 019e 07A9     		add	r1, sp, #28
 327 01a0 3046     		mov	r0, r6
 328 01a2 FFF7FEFF 		bl	HAL_GPIO_Init
 329              	.LVL13:
 494:Core/Src/main.c **** 
 495:Core/Src/main.c ****   /*Configure GPIO pin : UCPD_DBn_Pin */
 496:Core/Src/main.c ****   GPIO_InitStruct.Pin = UCPD_DBn_Pin;
 330              		.loc 1 496 3 view .LVU111
 331              		.loc 1 496 23 is_stmt 0 view .LVU112
 332 01a6 2023     		movs	r3, #32
 333 01a8 0793     		str	r3, [sp, #28]
 497:Core/Src/main.c ****   GPIO_InitStruct.Mode = GPIO_MODE_OUTPUT_PP;
 334              		.loc 1 497 3 is_stmt 1 view .LVU113
 335              		.loc 1 497 24 is_stmt 0 view .LVU114
 336 01aa 0895     		str	r5, [sp, #32]
 498:Core/Src/main.c ****   GPIO_InitStruct.Pull = GPIO_NOPULL;
 337              		.loc 1 498 3 is_stmt 1 view .LVU115
 338              		.loc 1 498 24 is_stmt 0 view .LVU116
 339 01ac 0994     		str	r4, [sp, #36]
 499:Core/Src/main.c ****   GPIO_InitStruct.Speed = GPIO_SPEED_FREQ_LOW;
 340              		.loc 1 499 3 is_stmt 1 view .LVU117
 341              		.loc 1 499 25 is_stmt 0 view .LVU118
 342 01ae 0A94     		str	r4, [sp, #40]
 500:Core/Src/main.c ****   HAL_GPIO_Init(UCPD_DBn_GPIO_Port, &GPIO_InitStruct);
 343              		.loc 1 500 3 is_stmt 1 view .LVU119
 344 01b0 07A9     		add	r1, sp, #28
 345 01b2 3046     		mov	r0, r6
 346 01b4 FFF7FEFF 		bl	HAL_GPIO_Init
 347              	.LVL14:
 501:Core/Src/main.c **** 
 502:Core/Src/main.c ****   /*Configure GPIO pin : LED_BLUE_Pin */
 503:Core/Src/main.c ****   GPIO_InitStruct.Pin = LED_BLUE_Pin;
 348              		.loc 1 503 3 view .LVU120
 349              		.loc 1 503 23 is_stmt 0 view .LVU121
 350 01b8 CDF81C90 		str	r9, [sp, #28]
 504:Core/Src/main.c ****   GPIO_InitStruct.Mode = GPIO_MODE_OUTPUT_PP;
 351              		.loc 1 504 3 is_stmt 1 view .LVU122
 352              		.loc 1 504 24 is_stmt 0 view .LVU123
ARM GAS  C:\Users\Yamaan\AppData\Local\Temp\ccBR0E2V.s 			page 16


 353 01bc 0895     		str	r5, [sp, #32]
 505:Core/Src/main.c ****   GPIO_InitStruct.Pull = GPIO_PULLUP;
 354              		.loc 1 505 3 is_stmt 1 view .LVU124
 355              		.loc 1 505 24 is_stmt 0 view .LVU125
 356 01be 0995     		str	r5, [sp, #36]
 506:Core/Src/main.c ****   GPIO_InitStruct.Speed = GPIO_SPEED_FREQ_HIGH;
 357              		.loc 1 506 3 is_stmt 1 view .LVU126
 358              		.loc 1 506 25 is_stmt 0 view .LVU127
 359 01c0 0A97     		str	r7, [sp, #40]
 507:Core/Src/main.c ****   HAL_GPIO_Init(LED_BLUE_GPIO_Port, &GPIO_InitStruct);
 360              		.loc 1 507 3 is_stmt 1 view .LVU128
 361 01c2 07A9     		add	r1, sp, #28
 362 01c4 3046     		mov	r0, r6
 363 01c6 FFF7FEFF 		bl	HAL_GPIO_Init
 364              	.LVL15:
 508:Core/Src/main.c **** 
 509:Core/Src/main.c **** }
 365              		.loc 1 509 1 is_stmt 0 view .LVU129
 366 01ca 0DB0     		add	sp, sp, #52
 367              		.cfi_def_cfa_offset 36
 368              		@ sp needed
 369 01cc BDE8F08F 		pop	{r4, r5, r6, r7, r8, r9, r10, fp, pc}
 370              	.L4:
 371              		.align	2
 372              	.L3:
 373 01d0 000C0246 		.word	1174539264
 374 01d4 00040242 		.word	1107428352
 375 01d8 00002110 		.word	270598144
 376 01dc 00140242 		.word	1107432448
 377 01e0 00100242 		.word	1107431424
 378 01e4 00180242 		.word	1107433472
 379 01e8 00080242 		.word	1107429376
 380              		.cfi_endproc
 381              	.LFE1335:
 383              		.section	.text.MX_UCPD1_Init,"ax",%progbits
 384              		.align	1
 385              		.syntax unified
 386              		.thumb
 387              		.thumb_func
 389              	MX_UCPD1_Init:
 390              	.LFB1332:
 291:Core/Src/main.c **** 
 391              		.loc 1 291 1 is_stmt 1 view -0
 392              		.cfi_startproc
 393              		@ args = 0, pretend = 0, frame = 40
 394              		@ frame_needed = 0, uses_anonymous_args = 0
 395 0000 70B5     		push	{r4, r5, r6, lr}
 396              		.cfi_def_cfa_offset 16
 397              		.cfi_offset 4, -16
 398              		.cfi_offset 5, -12
 399              		.cfi_offset 6, -8
 400              		.cfi_offset 14, -4
 401 0002 8AB0     		sub	sp, sp, #40
 402              		.cfi_def_cfa_offset 56
 297:Core/Src/main.c **** 
 403              		.loc 1 297 3 view .LVU131
 297:Core/Src/main.c **** 
ARM GAS  C:\Users\Yamaan\AppData\Local\Temp\ccBR0E2V.s 			page 17


 404              		.loc 1 297 23 is_stmt 0 view .LVU132
 405 0004 0024     		movs	r4, #0
 406 0006 0494     		str	r4, [sp, #16]
 407 0008 0594     		str	r4, [sp, #20]
 408 000a 0694     		str	r4, [sp, #24]
 409 000c 0794     		str	r4, [sp, #28]
 410 000e 0894     		str	r4, [sp, #32]
 411 0010 0994     		str	r4, [sp, #36]
 300:Core/Src/main.c **** 
 412              		.loc 1 300 3 is_stmt 1 view .LVU133
 413              	.LVL16:
 414              	.LBB17:
 415              	.LBI17:
 416              		.file 2 "Drivers/STM32U5xx_HAL_Driver/Inc/stm32u5xx_ll_bus.h"
   1:Drivers/STM32U5xx_HAL_Driver/Inc/stm32u5xx_ll_bus.h **** /**
   2:Drivers/STM32U5xx_HAL_Driver/Inc/stm32u5xx_ll_bus.h ****   ******************************************************************************
   3:Drivers/STM32U5xx_HAL_Driver/Inc/stm32u5xx_ll_bus.h ****   * @file    stm32u5xx_ll_bus.h
   4:Drivers/STM32U5xx_HAL_Driver/Inc/stm32u5xx_ll_bus.h ****   * @author  MCD Application Team
   5:Drivers/STM32U5xx_HAL_Driver/Inc/stm32u5xx_ll_bus.h ****   * @brief   Header file of BUS LL module.
   6:Drivers/STM32U5xx_HAL_Driver/Inc/stm32u5xx_ll_bus.h **** 
   7:Drivers/STM32U5xx_HAL_Driver/Inc/stm32u5xx_ll_bus.h ****   ******************************************************************************
   8:Drivers/STM32U5xx_HAL_Driver/Inc/stm32u5xx_ll_bus.h ****   * @attention
   9:Drivers/STM32U5xx_HAL_Driver/Inc/stm32u5xx_ll_bus.h ****   *
  10:Drivers/STM32U5xx_HAL_Driver/Inc/stm32u5xx_ll_bus.h ****   * Copyright (c) 2021 STMicroelectronics.
  11:Drivers/STM32U5xx_HAL_Driver/Inc/stm32u5xx_ll_bus.h ****   * All rights reserved.
  12:Drivers/STM32U5xx_HAL_Driver/Inc/stm32u5xx_ll_bus.h ****   *
  13:Drivers/STM32U5xx_HAL_Driver/Inc/stm32u5xx_ll_bus.h ****   * This software is licensed under terms that can be found in the LICENSE file
  14:Drivers/STM32U5xx_HAL_Driver/Inc/stm32u5xx_ll_bus.h ****   * in the root directory of this software component.
  15:Drivers/STM32U5xx_HAL_Driver/Inc/stm32u5xx_ll_bus.h ****   * If no LICENSE file comes with this software, it is provided AS-IS.
  16:Drivers/STM32U5xx_HAL_Driver/Inc/stm32u5xx_ll_bus.h ****   *
  17:Drivers/STM32U5xx_HAL_Driver/Inc/stm32u5xx_ll_bus.h ****   ******************************************************************************
  18:Drivers/STM32U5xx_HAL_Driver/Inc/stm32u5xx_ll_bus.h ****   @verbatim
  19:Drivers/STM32U5xx_HAL_Driver/Inc/stm32u5xx_ll_bus.h ****                       ##### RCC Limitations #####
  20:Drivers/STM32U5xx_HAL_Driver/Inc/stm32u5xx_ll_bus.h ****   ==============================================================================
  21:Drivers/STM32U5xx_HAL_Driver/Inc/stm32u5xx_ll_bus.h ****     [..]
  22:Drivers/STM32U5xx_HAL_Driver/Inc/stm32u5xx_ll_bus.h ****       A delay between an RCC peripheral clock enable and the effective peripheral
  23:Drivers/STM32U5xx_HAL_Driver/Inc/stm32u5xx_ll_bus.h ****       enabling should be taken into account in order to manage the peripheral read/write
  24:Drivers/STM32U5xx_HAL_Driver/Inc/stm32u5xx_ll_bus.h ****       from/to registers.
  25:Drivers/STM32U5xx_HAL_Driver/Inc/stm32u5xx_ll_bus.h ****       (+) This delay depends on the peripheral mapping.
  26:Drivers/STM32U5xx_HAL_Driver/Inc/stm32u5xx_ll_bus.h ****         (++) AHB , APB peripherals,  1 dummy read is necessary
  27:Drivers/STM32U5xx_HAL_Driver/Inc/stm32u5xx_ll_bus.h **** 
  28:Drivers/STM32U5xx_HAL_Driver/Inc/stm32u5xx_ll_bus.h ****     [..]
  29:Drivers/STM32U5xx_HAL_Driver/Inc/stm32u5xx_ll_bus.h ****       Workarounds:
  30:Drivers/STM32U5xx_HAL_Driver/Inc/stm32u5xx_ll_bus.h ****       (#) For AHB , APB peripherals, a dummy read to the peripheral register has been
  31:Drivers/STM32U5xx_HAL_Driver/Inc/stm32u5xx_ll_bus.h ****           inserted in each LL_{BUS}_GRP{x}_EnableClock() function.
  32:Drivers/STM32U5xx_HAL_Driver/Inc/stm32u5xx_ll_bus.h **** 
  33:Drivers/STM32U5xx_HAL_Driver/Inc/stm32u5xx_ll_bus.h ****   @endverbatim
  34:Drivers/STM32U5xx_HAL_Driver/Inc/stm32u5xx_ll_bus.h ****   ******************************************************************************
  35:Drivers/STM32U5xx_HAL_Driver/Inc/stm32u5xx_ll_bus.h ****   */
  36:Drivers/STM32U5xx_HAL_Driver/Inc/stm32u5xx_ll_bus.h **** 
  37:Drivers/STM32U5xx_HAL_Driver/Inc/stm32u5xx_ll_bus.h **** /* Define to prevent recursive inclusion -------------------------------------*/
  38:Drivers/STM32U5xx_HAL_Driver/Inc/stm32u5xx_ll_bus.h **** #ifndef STM32U5xx_LL_BUS_H
  39:Drivers/STM32U5xx_HAL_Driver/Inc/stm32u5xx_ll_bus.h **** #define STM32U5xx_LL_BUS_H
  40:Drivers/STM32U5xx_HAL_Driver/Inc/stm32u5xx_ll_bus.h **** 
  41:Drivers/STM32U5xx_HAL_Driver/Inc/stm32u5xx_ll_bus.h **** #ifdef __cplusplus
  42:Drivers/STM32U5xx_HAL_Driver/Inc/stm32u5xx_ll_bus.h **** extern "C" {
  43:Drivers/STM32U5xx_HAL_Driver/Inc/stm32u5xx_ll_bus.h **** #endif
ARM GAS  C:\Users\Yamaan\AppData\Local\Temp\ccBR0E2V.s 			page 18


  44:Drivers/STM32U5xx_HAL_Driver/Inc/stm32u5xx_ll_bus.h **** 
  45:Drivers/STM32U5xx_HAL_Driver/Inc/stm32u5xx_ll_bus.h **** /* Includes ------------------------------------------------------------------*/
  46:Drivers/STM32U5xx_HAL_Driver/Inc/stm32u5xx_ll_bus.h **** #include "stm32u5xx.h"
  47:Drivers/STM32U5xx_HAL_Driver/Inc/stm32u5xx_ll_bus.h **** 
  48:Drivers/STM32U5xx_HAL_Driver/Inc/stm32u5xx_ll_bus.h **** /** @addtogroup STM32U5xx_LL_Driver
  49:Drivers/STM32U5xx_HAL_Driver/Inc/stm32u5xx_ll_bus.h ****   * @{
  50:Drivers/STM32U5xx_HAL_Driver/Inc/stm32u5xx_ll_bus.h ****   */
  51:Drivers/STM32U5xx_HAL_Driver/Inc/stm32u5xx_ll_bus.h **** 
  52:Drivers/STM32U5xx_HAL_Driver/Inc/stm32u5xx_ll_bus.h **** #if defined(RCC)
  53:Drivers/STM32U5xx_HAL_Driver/Inc/stm32u5xx_ll_bus.h **** 
  54:Drivers/STM32U5xx_HAL_Driver/Inc/stm32u5xx_ll_bus.h **** /** @defgroup BUS_LL BUS
  55:Drivers/STM32U5xx_HAL_Driver/Inc/stm32u5xx_ll_bus.h ****   * @{
  56:Drivers/STM32U5xx_HAL_Driver/Inc/stm32u5xx_ll_bus.h ****   */
  57:Drivers/STM32U5xx_HAL_Driver/Inc/stm32u5xx_ll_bus.h **** 
  58:Drivers/STM32U5xx_HAL_Driver/Inc/stm32u5xx_ll_bus.h **** /* Private types -------------------------------------------------------------*/
  59:Drivers/STM32U5xx_HAL_Driver/Inc/stm32u5xx_ll_bus.h **** /* Private variables ---------------------------------------------------------*/
  60:Drivers/STM32U5xx_HAL_Driver/Inc/stm32u5xx_ll_bus.h **** /* Private constants ---------------------------------------------------------*/
  61:Drivers/STM32U5xx_HAL_Driver/Inc/stm32u5xx_ll_bus.h **** /* Private macros ------------------------------------------------------------*/
  62:Drivers/STM32U5xx_HAL_Driver/Inc/stm32u5xx_ll_bus.h **** 
  63:Drivers/STM32U5xx_HAL_Driver/Inc/stm32u5xx_ll_bus.h **** /* Exported types ------------------------------------------------------------*/
  64:Drivers/STM32U5xx_HAL_Driver/Inc/stm32u5xx_ll_bus.h **** /* Exported constants --------------------------------------------------------*/
  65:Drivers/STM32U5xx_HAL_Driver/Inc/stm32u5xx_ll_bus.h **** /** @defgroup BUS_LL_Exported_Constants BUS Exported Constants
  66:Drivers/STM32U5xx_HAL_Driver/Inc/stm32u5xx_ll_bus.h ****   * @{
  67:Drivers/STM32U5xx_HAL_Driver/Inc/stm32u5xx_ll_bus.h ****   */
  68:Drivers/STM32U5xx_HAL_Driver/Inc/stm32u5xx_ll_bus.h **** 
  69:Drivers/STM32U5xx_HAL_Driver/Inc/stm32u5xx_ll_bus.h **** /** @defgroup BUS_LL_EC_AHB1_GRP1_PERIPH  AHB1 GRP1 PERIPH
  70:Drivers/STM32U5xx_HAL_Driver/Inc/stm32u5xx_ll_bus.h ****   * @{
  71:Drivers/STM32U5xx_HAL_Driver/Inc/stm32u5xx_ll_bus.h ****   */
  72:Drivers/STM32U5xx_HAL_Driver/Inc/stm32u5xx_ll_bus.h **** #define LL_AHB1_GRP1_PERIPH_ALL           0xFFFFFFFFU
  73:Drivers/STM32U5xx_HAL_Driver/Inc/stm32u5xx_ll_bus.h **** #define LL_AHB1_GRP1_PERIPH_GPDMA1        RCC_AHB1ENR_GPDMA1EN
  74:Drivers/STM32U5xx_HAL_Driver/Inc/stm32u5xx_ll_bus.h **** #define LL_AHB1_GRP1_PERIPH_CORDIC        RCC_AHB1ENR_CORDICEN
  75:Drivers/STM32U5xx_HAL_Driver/Inc/stm32u5xx_ll_bus.h **** #define LL_AHB1_GRP1_PERIPH_FMAC          RCC_AHB1ENR_FMACEN
  76:Drivers/STM32U5xx_HAL_Driver/Inc/stm32u5xx_ll_bus.h **** #define LL_AHB1_GRP1_PERIPH_MDF1          RCC_AHB1ENR_MDF1EN
  77:Drivers/STM32U5xx_HAL_Driver/Inc/stm32u5xx_ll_bus.h **** #define LL_AHB1_GRP1_PERIPH_FLASH         RCC_AHB1ENR_FLASHEN
  78:Drivers/STM32U5xx_HAL_Driver/Inc/stm32u5xx_ll_bus.h **** #define LL_AHB1_GRP1_PERIPH_CRC           RCC_AHB1ENR_CRCEN
  79:Drivers/STM32U5xx_HAL_Driver/Inc/stm32u5xx_ll_bus.h **** #define LL_AHB1_GRP1_PERIPH_TSC           RCC_AHB1ENR_TSCEN
  80:Drivers/STM32U5xx_HAL_Driver/Inc/stm32u5xx_ll_bus.h **** #define LL_AHB1_GRP1_PERIPH_RAMCFG        RCC_AHB1ENR_RAMCFGEN
  81:Drivers/STM32U5xx_HAL_Driver/Inc/stm32u5xx_ll_bus.h **** #define LL_AHB1_GRP1_PERIPH_DMA2D         RCC_AHB1ENR_DMA2DEN
  82:Drivers/STM32U5xx_HAL_Driver/Inc/stm32u5xx_ll_bus.h **** #if defined(GFXMMU)
  83:Drivers/STM32U5xx_HAL_Driver/Inc/stm32u5xx_ll_bus.h **** #define LL_AHB1_GRP1_PERIPH_GFXMMU        RCC_AHB1ENR_GFXMMUEN
  84:Drivers/STM32U5xx_HAL_Driver/Inc/stm32u5xx_ll_bus.h **** #endif /* defined(GFXMMU) */
  85:Drivers/STM32U5xx_HAL_Driver/Inc/stm32u5xx_ll_bus.h **** #if defined(GPU2D)
  86:Drivers/STM32U5xx_HAL_Driver/Inc/stm32u5xx_ll_bus.h **** #define LL_AHB1_GRP1_PERIPH_GPU2D         RCC_AHB1ENR_GPU2DEN
  87:Drivers/STM32U5xx_HAL_Driver/Inc/stm32u5xx_ll_bus.h **** #endif /* defined(GPU2D) */
  88:Drivers/STM32U5xx_HAL_Driver/Inc/stm32u5xx_ll_bus.h **** #if defined(DCACHE2)
  89:Drivers/STM32U5xx_HAL_Driver/Inc/stm32u5xx_ll_bus.h **** #define LL_AHB1_GRP1_PERIPH_DCACHE2        RCC_AHB1ENR_DCACHE2EN
  90:Drivers/STM32U5xx_HAL_Driver/Inc/stm32u5xx_ll_bus.h **** #endif /* defined(DCACHE2) */
  91:Drivers/STM32U5xx_HAL_Driver/Inc/stm32u5xx_ll_bus.h **** #define LL_AHB1_GRP1_PERIPH_GTZC1         RCC_AHB1ENR_GTZC1EN
  92:Drivers/STM32U5xx_HAL_Driver/Inc/stm32u5xx_ll_bus.h **** #define LL_AHB1_GRP1_PERIPH_BKPSRAM       RCC_AHB1ENR_BKPSRAMEN
  93:Drivers/STM32U5xx_HAL_Driver/Inc/stm32u5xx_ll_bus.h **** #define LL_AHB1_GRP1_PERIPH_DCACHE1       RCC_AHB1ENR_DCACHE1EN
  94:Drivers/STM32U5xx_HAL_Driver/Inc/stm32u5xx_ll_bus.h **** #define LL_AHB1_GRP1_PERIPH_SRAM1         RCC_AHB1ENR_SRAM1EN
  95:Drivers/STM32U5xx_HAL_Driver/Inc/stm32u5xx_ll_bus.h **** /**
  96:Drivers/STM32U5xx_HAL_Driver/Inc/stm32u5xx_ll_bus.h ****   * @}
  97:Drivers/STM32U5xx_HAL_Driver/Inc/stm32u5xx_ll_bus.h ****   */
  98:Drivers/STM32U5xx_HAL_Driver/Inc/stm32u5xx_ll_bus.h **** 
  99:Drivers/STM32U5xx_HAL_Driver/Inc/stm32u5xx_ll_bus.h **** /** @defgroup BUS_LL_EC_AHB2_GRP1_PERIPH  AHB2 GRP1 PERIPH
 100:Drivers/STM32U5xx_HAL_Driver/Inc/stm32u5xx_ll_bus.h ****   * @{
ARM GAS  C:\Users\Yamaan\AppData\Local\Temp\ccBR0E2V.s 			page 19


 101:Drivers/STM32U5xx_HAL_Driver/Inc/stm32u5xx_ll_bus.h ****   */
 102:Drivers/STM32U5xx_HAL_Driver/Inc/stm32u5xx_ll_bus.h **** #define LL_AHB2_GRP1_PERIPH_ALL            0xFFFFFFFFU
 103:Drivers/STM32U5xx_HAL_Driver/Inc/stm32u5xx_ll_bus.h **** #define LL_AHB2_GRP1_PERIPH_GPIOA          RCC_AHB2ENR1_GPIOAEN
 104:Drivers/STM32U5xx_HAL_Driver/Inc/stm32u5xx_ll_bus.h **** #define LL_AHB2_GRP1_PERIPH_GPIOB          RCC_AHB2ENR1_GPIOBEN
 105:Drivers/STM32U5xx_HAL_Driver/Inc/stm32u5xx_ll_bus.h **** #define LL_AHB2_GRP1_PERIPH_GPIOC          RCC_AHB2ENR1_GPIOCEN
 106:Drivers/STM32U5xx_HAL_Driver/Inc/stm32u5xx_ll_bus.h **** #define LL_AHB2_GRP1_PERIPH_GPIOD          RCC_AHB2ENR1_GPIODEN
 107:Drivers/STM32U5xx_HAL_Driver/Inc/stm32u5xx_ll_bus.h **** #define LL_AHB2_GRP1_PERIPH_GPIOE          RCC_AHB2ENR1_GPIOEEN
 108:Drivers/STM32U5xx_HAL_Driver/Inc/stm32u5xx_ll_bus.h **** #define LL_AHB2_GRP1_PERIPH_GPIOF          RCC_AHB2ENR1_GPIOFEN
 109:Drivers/STM32U5xx_HAL_Driver/Inc/stm32u5xx_ll_bus.h **** #define LL_AHB2_GRP1_PERIPH_GPIOG          RCC_AHB2ENR1_GPIOGEN
 110:Drivers/STM32U5xx_HAL_Driver/Inc/stm32u5xx_ll_bus.h **** #define LL_AHB2_GRP1_PERIPH_GPIOH          RCC_AHB2ENR1_GPIOHEN
 111:Drivers/STM32U5xx_HAL_Driver/Inc/stm32u5xx_ll_bus.h **** #define LL_AHB2_GRP1_PERIPH_GPIOI          RCC_AHB2ENR1_GPIOIEN
 112:Drivers/STM32U5xx_HAL_Driver/Inc/stm32u5xx_ll_bus.h **** #if defined (GPIOJ)
 113:Drivers/STM32U5xx_HAL_Driver/Inc/stm32u5xx_ll_bus.h **** #define LL_AHB2_GRP1_PERIPH_GPIOJ          RCC_AHB2ENR1_GPIOJEN
 114:Drivers/STM32U5xx_HAL_Driver/Inc/stm32u5xx_ll_bus.h **** #endif /* defined (GPIOJ) */
 115:Drivers/STM32U5xx_HAL_Driver/Inc/stm32u5xx_ll_bus.h **** #define LL_AHB2_GRP1_PERIPH_ADC12          RCC_AHB2ENR1_ADC12EN
 116:Drivers/STM32U5xx_HAL_Driver/Inc/stm32u5xx_ll_bus.h **** #define LL_AHB2_GRP1_PERIPH_DCMI_PSSI      RCC_AHB2ENR1_DCMI_PSSIEN
 117:Drivers/STM32U5xx_HAL_Driver/Inc/stm32u5xx_ll_bus.h **** #if defined(USB_OTG_FS)
 118:Drivers/STM32U5xx_HAL_Driver/Inc/stm32u5xx_ll_bus.h **** #define LL_AHB2_GRP1_PERIPH_USBFS          RCC_AHB2ENR1_OTGEN
 119:Drivers/STM32U5xx_HAL_Driver/Inc/stm32u5xx_ll_bus.h **** #elif defined(USB_OTG_HS)
 120:Drivers/STM32U5xx_HAL_Driver/Inc/stm32u5xx_ll_bus.h **** #define LL_AHB2_GRP1_PERIPH_USBHS          RCC_AHB2ENR1_OTGEN
 121:Drivers/STM32U5xx_HAL_Driver/Inc/stm32u5xx_ll_bus.h **** #endif /* defined(USB_OTG_HS) */
 122:Drivers/STM32U5xx_HAL_Driver/Inc/stm32u5xx_ll_bus.h **** #if defined(RCC_AHB2ENR1_USBPHYCEN)
 123:Drivers/STM32U5xx_HAL_Driver/Inc/stm32u5xx_ll_bus.h **** #define LL_AHB2_GRP1_PERIPH_USBPHY         RCC_AHB2ENR1_USBPHYCEN
 124:Drivers/STM32U5xx_HAL_Driver/Inc/stm32u5xx_ll_bus.h **** #endif /* defined(RCC_AHB2ENR1_USBPHYCEN) */
 125:Drivers/STM32U5xx_HAL_Driver/Inc/stm32u5xx_ll_bus.h **** #if defined(AES)
 126:Drivers/STM32U5xx_HAL_Driver/Inc/stm32u5xx_ll_bus.h **** #define LL_AHB2_GRP1_PERIPH_AES            RCC_AHB2ENR1_AESEN
 127:Drivers/STM32U5xx_HAL_Driver/Inc/stm32u5xx_ll_bus.h **** #endif /* AES */
 128:Drivers/STM32U5xx_HAL_Driver/Inc/stm32u5xx_ll_bus.h **** #if defined(HASH)
 129:Drivers/STM32U5xx_HAL_Driver/Inc/stm32u5xx_ll_bus.h **** #define LL_AHB2_GRP1_PERIPH_HASH           RCC_AHB2ENR1_HASHEN
 130:Drivers/STM32U5xx_HAL_Driver/Inc/stm32u5xx_ll_bus.h **** #endif /* HASH */
 131:Drivers/STM32U5xx_HAL_Driver/Inc/stm32u5xx_ll_bus.h **** #define LL_AHB2_GRP1_PERIPH_RNG            RCC_AHB2ENR1_RNGEN
 132:Drivers/STM32U5xx_HAL_Driver/Inc/stm32u5xx_ll_bus.h **** #define LL_AHB2_GRP1_PERIPH_PKA            RCC_AHB2ENR1_PKAEN
 133:Drivers/STM32U5xx_HAL_Driver/Inc/stm32u5xx_ll_bus.h **** #if defined(SAES)
 134:Drivers/STM32U5xx_HAL_Driver/Inc/stm32u5xx_ll_bus.h **** #define LL_AHB2_GRP1_PERIPH_SAES           RCC_AHB2ENR1_SAESEN
 135:Drivers/STM32U5xx_HAL_Driver/Inc/stm32u5xx_ll_bus.h **** #endif /* SAES */
 136:Drivers/STM32U5xx_HAL_Driver/Inc/stm32u5xx_ll_bus.h **** #define LL_AHB2_GRP1_PERIPH_OCTOSPIM       RCC_AHB2ENR1_OCTOSPIMEN
 137:Drivers/STM32U5xx_HAL_Driver/Inc/stm32u5xx_ll_bus.h **** #define LL_AHB2_GRP1_PERIPH_OTFDEC1        RCC_AHB2ENR1_OTFDEC1EN
 138:Drivers/STM32U5xx_HAL_Driver/Inc/stm32u5xx_ll_bus.h **** #define LL_AHB2_GRP1_PERIPH_OTFDEC2        RCC_AHB2ENR1_OTFDEC2EN
 139:Drivers/STM32U5xx_HAL_Driver/Inc/stm32u5xx_ll_bus.h **** #define LL_AHB2_GRP1_PERIPH_SDMMC1         RCC_AHB2ENR1_SDMMC1EN
 140:Drivers/STM32U5xx_HAL_Driver/Inc/stm32u5xx_ll_bus.h **** #define LL_AHB2_GRP1_PERIPH_SDMMC2         RCC_AHB2ENR1_SDMMC2EN
 141:Drivers/STM32U5xx_HAL_Driver/Inc/stm32u5xx_ll_bus.h **** #define LL_AHB2_GRP1_PERIPH_SRAM2          RCC_AHB2ENR1_SRAM2EN
 142:Drivers/STM32U5xx_HAL_Driver/Inc/stm32u5xx_ll_bus.h **** #define LL_AHB2_GRP1_PERIPH_SRAM3          RCC_AHB2ENR1_SRAM3EN
 143:Drivers/STM32U5xx_HAL_Driver/Inc/stm32u5xx_ll_bus.h **** 
 144:Drivers/STM32U5xx_HAL_Driver/Inc/stm32u5xx_ll_bus.h **** /**
 145:Drivers/STM32U5xx_HAL_Driver/Inc/stm32u5xx_ll_bus.h ****   * @}
 146:Drivers/STM32U5xx_HAL_Driver/Inc/stm32u5xx_ll_bus.h ****   */
 147:Drivers/STM32U5xx_HAL_Driver/Inc/stm32u5xx_ll_bus.h **** 
 148:Drivers/STM32U5xx_HAL_Driver/Inc/stm32u5xx_ll_bus.h **** /** @defgroup BUS_LL_EC_AHB3_GRP1_PERIPH  AHB3 GRP1 PERIPH
 149:Drivers/STM32U5xx_HAL_Driver/Inc/stm32u5xx_ll_bus.h ****   * @{
 150:Drivers/STM32U5xx_HAL_Driver/Inc/stm32u5xx_ll_bus.h ****   */
 151:Drivers/STM32U5xx_HAL_Driver/Inc/stm32u5xx_ll_bus.h **** #define LL_AHB3_GRP1_PERIPH_ALL            0xFFFFFFFFU
 152:Drivers/STM32U5xx_HAL_Driver/Inc/stm32u5xx_ll_bus.h **** #define LL_AHB3_GRP1_PERIPH_LPGPIO1        RCC_AHB3ENR_LPGPIO1EN
 153:Drivers/STM32U5xx_HAL_Driver/Inc/stm32u5xx_ll_bus.h **** #define LL_AHB3_GRP1_PERIPH_PWR            RCC_AHB3ENR_PWREN
 154:Drivers/STM32U5xx_HAL_Driver/Inc/stm32u5xx_ll_bus.h **** #define LL_AHB3_GRP1_PERIPH_ADC4           RCC_AHB3ENR_ADC4EN
 155:Drivers/STM32U5xx_HAL_Driver/Inc/stm32u5xx_ll_bus.h **** #define LL_AHB3_GRP1_PERIPH_DAC1           RCC_AHB3ENR_DAC1EN
 156:Drivers/STM32U5xx_HAL_Driver/Inc/stm32u5xx_ll_bus.h **** #define LL_AHB3_GRP1_PERIPH_LPDMA1         RCC_AHB3ENR_LPDMA1EN
 157:Drivers/STM32U5xx_HAL_Driver/Inc/stm32u5xx_ll_bus.h **** #define LL_AHB3_GRP1_PERIPH_ADF1           RCC_AHB3ENR_ADF1EN
ARM GAS  C:\Users\Yamaan\AppData\Local\Temp\ccBR0E2V.s 			page 20


 158:Drivers/STM32U5xx_HAL_Driver/Inc/stm32u5xx_ll_bus.h **** #define LL_AHB3_GRP1_PERIPH_GTZC2          RCC_AHB3ENR_GTZC2EN
 159:Drivers/STM32U5xx_HAL_Driver/Inc/stm32u5xx_ll_bus.h **** #define LL_AHB3_GRP1_PERIPH_SRAM4          RCC_AHB3ENR_SRAM4EN
 160:Drivers/STM32U5xx_HAL_Driver/Inc/stm32u5xx_ll_bus.h **** 
 161:Drivers/STM32U5xx_HAL_Driver/Inc/stm32u5xx_ll_bus.h **** /**
 162:Drivers/STM32U5xx_HAL_Driver/Inc/stm32u5xx_ll_bus.h ****   * @}
 163:Drivers/STM32U5xx_HAL_Driver/Inc/stm32u5xx_ll_bus.h ****   */
 164:Drivers/STM32U5xx_HAL_Driver/Inc/stm32u5xx_ll_bus.h **** 
 165:Drivers/STM32U5xx_HAL_Driver/Inc/stm32u5xx_ll_bus.h **** /** @defgroup BUS_LL_EC_AHB2_GRP2_PERIPH  AHB2 GRP2 PERIPH
 166:Drivers/STM32U5xx_HAL_Driver/Inc/stm32u5xx_ll_bus.h ****   * @{
 167:Drivers/STM32U5xx_HAL_Driver/Inc/stm32u5xx_ll_bus.h ****   */
 168:Drivers/STM32U5xx_HAL_Driver/Inc/stm32u5xx_ll_bus.h **** #define LL_AHB2_GRP2_PERIPH_ALL            0xFFFFFFFFU
 169:Drivers/STM32U5xx_HAL_Driver/Inc/stm32u5xx_ll_bus.h **** #define LL_AHB2_GRP2_PERIPH_FSMC           RCC_AHB2ENR2_FSMCEN
 170:Drivers/STM32U5xx_HAL_Driver/Inc/stm32u5xx_ll_bus.h **** #define LL_AHB2_GRP2_PERIPH_OCTOSPI1       RCC_AHB2ENR2_OCTOSPI1EN
 171:Drivers/STM32U5xx_HAL_Driver/Inc/stm32u5xx_ll_bus.h **** #define LL_AHB2_GRP2_PERIPH_OCTOSPI2       RCC_AHB2ENR2_OCTOSPI2EN
 172:Drivers/STM32U5xx_HAL_Driver/Inc/stm32u5xx_ll_bus.h **** #if defined(HSPI1)
 173:Drivers/STM32U5xx_HAL_Driver/Inc/stm32u5xx_ll_bus.h **** #define LL_AHB2_GRP2_PERIPH_HSPI1          RCC_AHB2ENR2_HSPI1EN
 174:Drivers/STM32U5xx_HAL_Driver/Inc/stm32u5xx_ll_bus.h **** #endif /* defined(HSPI1) */
 175:Drivers/STM32U5xx_HAL_Driver/Inc/stm32u5xx_ll_bus.h **** #if defined(SRAM5_SIZE)
 176:Drivers/STM32U5xx_HAL_Driver/Inc/stm32u5xx_ll_bus.h **** #define LL_AHB2_GRP2_PERIPH_SRAM5          RCC_AHB2ENR2_SRAM5EN
 177:Drivers/STM32U5xx_HAL_Driver/Inc/stm32u5xx_ll_bus.h **** #endif /* defined(SRAM5_SIZE) */
 178:Drivers/STM32U5xx_HAL_Driver/Inc/stm32u5xx_ll_bus.h **** /**
 179:Drivers/STM32U5xx_HAL_Driver/Inc/stm32u5xx_ll_bus.h ****   * @}
 180:Drivers/STM32U5xx_HAL_Driver/Inc/stm32u5xx_ll_bus.h ****   */
 181:Drivers/STM32U5xx_HAL_Driver/Inc/stm32u5xx_ll_bus.h **** 
 182:Drivers/STM32U5xx_HAL_Driver/Inc/stm32u5xx_ll_bus.h **** /** @defgroup BUS_LL_EC_APB1_GRP1_PERIPH  APB1 GRP1 PERIPH
 183:Drivers/STM32U5xx_HAL_Driver/Inc/stm32u5xx_ll_bus.h ****   * @{
 184:Drivers/STM32U5xx_HAL_Driver/Inc/stm32u5xx_ll_bus.h ****   */
 185:Drivers/STM32U5xx_HAL_Driver/Inc/stm32u5xx_ll_bus.h **** #define LL_APB1_GRP1_PERIPH_ALL           0xFFFFFFFFU
 186:Drivers/STM32U5xx_HAL_Driver/Inc/stm32u5xx_ll_bus.h **** #define LL_APB1_GRP1_PERIPH_TIM2          RCC_APB1ENR1_TIM2EN
 187:Drivers/STM32U5xx_HAL_Driver/Inc/stm32u5xx_ll_bus.h **** #define LL_APB1_GRP1_PERIPH_TIM3          RCC_APB1ENR1_TIM3EN
 188:Drivers/STM32U5xx_HAL_Driver/Inc/stm32u5xx_ll_bus.h **** #define LL_APB1_GRP1_PERIPH_TIM4          RCC_APB1ENR1_TIM4EN
 189:Drivers/STM32U5xx_HAL_Driver/Inc/stm32u5xx_ll_bus.h **** #define LL_APB1_GRP1_PERIPH_TIM5          RCC_APB1ENR1_TIM5EN
 190:Drivers/STM32U5xx_HAL_Driver/Inc/stm32u5xx_ll_bus.h **** #define LL_APB1_GRP1_PERIPH_TIM6          RCC_APB1ENR1_TIM6EN
 191:Drivers/STM32U5xx_HAL_Driver/Inc/stm32u5xx_ll_bus.h **** #define LL_APB1_GRP1_PERIPH_TIM7          RCC_APB1ENR1_TIM7EN
 192:Drivers/STM32U5xx_HAL_Driver/Inc/stm32u5xx_ll_bus.h **** #define LL_APB1_GRP1_PERIPH_WWDG          RCC_APB1ENR1_WWDGEN
 193:Drivers/STM32U5xx_HAL_Driver/Inc/stm32u5xx_ll_bus.h **** #define LL_APB1_GRP1_PERIPH_SPI2          RCC_APB1ENR1_SPI2EN
 194:Drivers/STM32U5xx_HAL_Driver/Inc/stm32u5xx_ll_bus.h **** #define LL_APB1_GRP1_PERIPH_USART2        RCC_APB1ENR1_USART2EN
 195:Drivers/STM32U5xx_HAL_Driver/Inc/stm32u5xx_ll_bus.h **** #define LL_APB1_GRP1_PERIPH_USART3        RCC_APB1ENR1_USART3EN
 196:Drivers/STM32U5xx_HAL_Driver/Inc/stm32u5xx_ll_bus.h **** #define LL_APB1_GRP1_PERIPH_UART4         RCC_APB1ENR1_UART4EN
 197:Drivers/STM32U5xx_HAL_Driver/Inc/stm32u5xx_ll_bus.h **** #define LL_APB1_GRP1_PERIPH_UART5         RCC_APB1ENR1_UART5EN
 198:Drivers/STM32U5xx_HAL_Driver/Inc/stm32u5xx_ll_bus.h **** #define LL_APB1_GRP1_PERIPH_I2C1          RCC_APB1ENR1_I2C1EN
 199:Drivers/STM32U5xx_HAL_Driver/Inc/stm32u5xx_ll_bus.h **** #define LL_APB1_GRP1_PERIPH_I2C2          RCC_APB1ENR1_I2C2EN
 200:Drivers/STM32U5xx_HAL_Driver/Inc/stm32u5xx_ll_bus.h **** #define LL_APB1_GRP1_PERIPH_CRS           RCC_APB1ENR1_CRSEN
 201:Drivers/STM32U5xx_HAL_Driver/Inc/stm32u5xx_ll_bus.h **** #if defined(USART6)
 202:Drivers/STM32U5xx_HAL_Driver/Inc/stm32u5xx_ll_bus.h **** #define LL_APB1_GRP1_PERIPH_USART6        RCC_APB1ENR1_USART6EN
 203:Drivers/STM32U5xx_HAL_Driver/Inc/stm32u5xx_ll_bus.h **** #endif /* defined(USART6) */
 204:Drivers/STM32U5xx_HAL_Driver/Inc/stm32u5xx_ll_bus.h **** /**
 205:Drivers/STM32U5xx_HAL_Driver/Inc/stm32u5xx_ll_bus.h ****   * @}
 206:Drivers/STM32U5xx_HAL_Driver/Inc/stm32u5xx_ll_bus.h ****   */
 207:Drivers/STM32U5xx_HAL_Driver/Inc/stm32u5xx_ll_bus.h **** 
 208:Drivers/STM32U5xx_HAL_Driver/Inc/stm32u5xx_ll_bus.h **** 
 209:Drivers/STM32U5xx_HAL_Driver/Inc/stm32u5xx_ll_bus.h **** /** @defgroup BUS_LL_EC_APB1_GRP2_PERIPH  APB1 GRP2 PERIPH
 210:Drivers/STM32U5xx_HAL_Driver/Inc/stm32u5xx_ll_bus.h ****   * @{
 211:Drivers/STM32U5xx_HAL_Driver/Inc/stm32u5xx_ll_bus.h ****   */
 212:Drivers/STM32U5xx_HAL_Driver/Inc/stm32u5xx_ll_bus.h **** #define LL_APB1_GRP2_PERIPH_ALL            0xFFFFFFFFU
 213:Drivers/STM32U5xx_HAL_Driver/Inc/stm32u5xx_ll_bus.h **** #define LL_APB1_GRP2_PERIPH_I2C4           RCC_APB1ENR2_I2C4EN
 214:Drivers/STM32U5xx_HAL_Driver/Inc/stm32u5xx_ll_bus.h **** #define LL_APB1_GRP2_PERIPH_LPTIM2         RCC_APB1ENR2_LPTIM2EN
ARM GAS  C:\Users\Yamaan\AppData\Local\Temp\ccBR0E2V.s 			page 21


 215:Drivers/STM32U5xx_HAL_Driver/Inc/stm32u5xx_ll_bus.h **** #define LL_APB1_GRP2_PERIPH_FDCAN1         RCC_APB1ENR2_FDCAN1EN
 216:Drivers/STM32U5xx_HAL_Driver/Inc/stm32u5xx_ll_bus.h **** #define LL_APB1_GRP2_PERIPH_UCPD1          RCC_APB1ENR2_UCPD1EN
 217:Drivers/STM32U5xx_HAL_Driver/Inc/stm32u5xx_ll_bus.h **** #if defined(I2C5)
 218:Drivers/STM32U5xx_HAL_Driver/Inc/stm32u5xx_ll_bus.h **** #define LL_APB1_GRP2_PERIPH_I2C5           RCC_APB1ENR2_I2C5EN
 219:Drivers/STM32U5xx_HAL_Driver/Inc/stm32u5xx_ll_bus.h **** #endif /* defined(I2C5) */
 220:Drivers/STM32U5xx_HAL_Driver/Inc/stm32u5xx_ll_bus.h **** #if defined(I2C6)
 221:Drivers/STM32U5xx_HAL_Driver/Inc/stm32u5xx_ll_bus.h **** #define LL_APB1_GRP2_PERIPH_I2C6           RCC_APB1ENR2_I2C6EN
 222:Drivers/STM32U5xx_HAL_Driver/Inc/stm32u5xx_ll_bus.h **** #endif /* defined(I2C6) */
 223:Drivers/STM32U5xx_HAL_Driver/Inc/stm32u5xx_ll_bus.h **** /**
 224:Drivers/STM32U5xx_HAL_Driver/Inc/stm32u5xx_ll_bus.h ****   * @}
 225:Drivers/STM32U5xx_HAL_Driver/Inc/stm32u5xx_ll_bus.h ****   */
 226:Drivers/STM32U5xx_HAL_Driver/Inc/stm32u5xx_ll_bus.h **** 
 227:Drivers/STM32U5xx_HAL_Driver/Inc/stm32u5xx_ll_bus.h **** /** @defgroup BUS_LL_EC_APB2_GRP1_PERIPH  APB2 GRP1 PERIPH
 228:Drivers/STM32U5xx_HAL_Driver/Inc/stm32u5xx_ll_bus.h ****   * @{
 229:Drivers/STM32U5xx_HAL_Driver/Inc/stm32u5xx_ll_bus.h ****   */
 230:Drivers/STM32U5xx_HAL_Driver/Inc/stm32u5xx_ll_bus.h **** #define LL_APB2_GRP1_PERIPH_ALL            0xFFFFFFFFU
 231:Drivers/STM32U5xx_HAL_Driver/Inc/stm32u5xx_ll_bus.h **** #define LL_APB2_GRP1_PERIPH_TIM1           RCC_APB2ENR_TIM1EN
 232:Drivers/STM32U5xx_HAL_Driver/Inc/stm32u5xx_ll_bus.h **** #define LL_APB2_GRP1_PERIPH_SPI1           RCC_APB2ENR_SPI1EN
 233:Drivers/STM32U5xx_HAL_Driver/Inc/stm32u5xx_ll_bus.h **** #define LL_APB2_GRP1_PERIPH_TIM8           RCC_APB2ENR_TIM8EN
 234:Drivers/STM32U5xx_HAL_Driver/Inc/stm32u5xx_ll_bus.h **** #define LL_APB2_GRP1_PERIPH_USART1         RCC_APB2ENR_USART1EN
 235:Drivers/STM32U5xx_HAL_Driver/Inc/stm32u5xx_ll_bus.h **** #define LL_APB2_GRP1_PERIPH_TIM15          RCC_APB2ENR_TIM15EN
 236:Drivers/STM32U5xx_HAL_Driver/Inc/stm32u5xx_ll_bus.h **** #define LL_APB2_GRP1_PERIPH_TIM16          RCC_APB2ENR_TIM16EN
 237:Drivers/STM32U5xx_HAL_Driver/Inc/stm32u5xx_ll_bus.h **** #define LL_APB2_GRP1_PERIPH_TIM17          RCC_APB2ENR_TIM17EN
 238:Drivers/STM32U5xx_HAL_Driver/Inc/stm32u5xx_ll_bus.h **** #define LL_APB2_GRP1_PERIPH_SAI1           RCC_APB2ENR_SAI1EN
 239:Drivers/STM32U5xx_HAL_Driver/Inc/stm32u5xx_ll_bus.h **** #define LL_APB2_GRP1_PERIPH_SAI2           RCC_APB2ENR_SAI2EN
 240:Drivers/STM32U5xx_HAL_Driver/Inc/stm32u5xx_ll_bus.h **** #if defined(LTDC)
 241:Drivers/STM32U5xx_HAL_Driver/Inc/stm32u5xx_ll_bus.h **** #define LL_APB2_GRP1_PERIPH_LTDC           RCC_APB2ENR_LTDCEN
 242:Drivers/STM32U5xx_HAL_Driver/Inc/stm32u5xx_ll_bus.h **** #endif /* defined(LTDC) */
 243:Drivers/STM32U5xx_HAL_Driver/Inc/stm32u5xx_ll_bus.h **** #if defined(DSI)
 244:Drivers/STM32U5xx_HAL_Driver/Inc/stm32u5xx_ll_bus.h **** #define LL_APB2_GRP1_PERIPH_DSI           RCC_APB2ENR_DSIHOSTEN
 245:Drivers/STM32U5xx_HAL_Driver/Inc/stm32u5xx_ll_bus.h **** #endif /* defined(DSI) */
 246:Drivers/STM32U5xx_HAL_Driver/Inc/stm32u5xx_ll_bus.h **** /**
 247:Drivers/STM32U5xx_HAL_Driver/Inc/stm32u5xx_ll_bus.h ****   * @}
 248:Drivers/STM32U5xx_HAL_Driver/Inc/stm32u5xx_ll_bus.h ****   */
 249:Drivers/STM32U5xx_HAL_Driver/Inc/stm32u5xx_ll_bus.h **** 
 250:Drivers/STM32U5xx_HAL_Driver/Inc/stm32u5xx_ll_bus.h **** /** @defgroup BUS_LL_EC_APB3_GRP1_PERIPH  APB3 GRP1 PERIPH
 251:Drivers/STM32U5xx_HAL_Driver/Inc/stm32u5xx_ll_bus.h ****   * @{
 252:Drivers/STM32U5xx_HAL_Driver/Inc/stm32u5xx_ll_bus.h ****   */
 253:Drivers/STM32U5xx_HAL_Driver/Inc/stm32u5xx_ll_bus.h **** #define LL_APB3_GRP1_PERIPH_ALL           0xFFFFFFFFU
 254:Drivers/STM32U5xx_HAL_Driver/Inc/stm32u5xx_ll_bus.h **** #define LL_APB3_GRP1_PERIPH_SYSCFG        RCC_APB3ENR_SYSCFGEN
 255:Drivers/STM32U5xx_HAL_Driver/Inc/stm32u5xx_ll_bus.h **** #define LL_APB3_GRP1_PERIPH_SPI3          RCC_APB3ENR_SPI3EN
 256:Drivers/STM32U5xx_HAL_Driver/Inc/stm32u5xx_ll_bus.h **** #define LL_APB3_GRP1_PERIPH_LPUART1       RCC_APB3ENR_LPUART1EN
 257:Drivers/STM32U5xx_HAL_Driver/Inc/stm32u5xx_ll_bus.h **** #define LL_APB3_GRP1_PERIPH_I2C3          RCC_APB3ENR_I2C3EN
 258:Drivers/STM32U5xx_HAL_Driver/Inc/stm32u5xx_ll_bus.h **** #define LL_APB3_GRP1_PERIPH_LPTIM1        RCC_APB3ENR_LPTIM1EN
 259:Drivers/STM32U5xx_HAL_Driver/Inc/stm32u5xx_ll_bus.h **** #define LL_APB3_GRP1_PERIPH_LPTIM3        RCC_APB3ENR_LPTIM3EN
 260:Drivers/STM32U5xx_HAL_Driver/Inc/stm32u5xx_ll_bus.h **** #define LL_APB3_GRP1_PERIPH_LPTIM4        RCC_APB3ENR_LPTIM4EN
 261:Drivers/STM32U5xx_HAL_Driver/Inc/stm32u5xx_ll_bus.h **** #define LL_APB3_GRP1_PERIPH_OPAMP         RCC_APB3ENR_OPAMPEN
 262:Drivers/STM32U5xx_HAL_Driver/Inc/stm32u5xx_ll_bus.h **** #define LL_APB3_GRP1_PERIPH_COMP          RCC_APB3ENR_COMPEN
 263:Drivers/STM32U5xx_HAL_Driver/Inc/stm32u5xx_ll_bus.h **** #define LL_APB3_GRP1_PERIPH_VREF          RCC_APB3ENR_VREFEN
 264:Drivers/STM32U5xx_HAL_Driver/Inc/stm32u5xx_ll_bus.h **** #define LL_APB3_GRP1_PERIPH_RTCAPB        RCC_APB3ENR_RTCAPBEN
 265:Drivers/STM32U5xx_HAL_Driver/Inc/stm32u5xx_ll_bus.h **** /**
 266:Drivers/STM32U5xx_HAL_Driver/Inc/stm32u5xx_ll_bus.h ****   * @}
 267:Drivers/STM32U5xx_HAL_Driver/Inc/stm32u5xx_ll_bus.h ****   */
 268:Drivers/STM32U5xx_HAL_Driver/Inc/stm32u5xx_ll_bus.h **** 
 269:Drivers/STM32U5xx_HAL_Driver/Inc/stm32u5xx_ll_bus.h **** /** @defgroup BUS_LL_EC_SRDAMR_GRP1_PERIPH  SRDAMR GRP1 PERIPH
 270:Drivers/STM32U5xx_HAL_Driver/Inc/stm32u5xx_ll_bus.h ****   * @{
 271:Drivers/STM32U5xx_HAL_Driver/Inc/stm32u5xx_ll_bus.h ****   */
ARM GAS  C:\Users\Yamaan\AppData\Local\Temp\ccBR0E2V.s 			page 22


 272:Drivers/STM32U5xx_HAL_Driver/Inc/stm32u5xx_ll_bus.h **** #define LL_SRDAMR_GRP1_PERIPH_ALL            0xFFFFFFFFU
 273:Drivers/STM32U5xx_HAL_Driver/Inc/stm32u5xx_ll_bus.h **** #define LL_SRDAMR_GRP1_PERIPH_SPI3AMEN       RCC_SRDAMR_SPI3AMEN
 274:Drivers/STM32U5xx_HAL_Driver/Inc/stm32u5xx_ll_bus.h **** #define LL_SRDAMR_GRP1_PERIPH_LPUART1AMEN    RCC_SRDAMR_LPUART1AMEN
 275:Drivers/STM32U5xx_HAL_Driver/Inc/stm32u5xx_ll_bus.h **** #define LL_SRDAMR_GRP1_PERIPH_I2C3AMEN       RCC_SRDAMR_I2C3AMEN
 276:Drivers/STM32U5xx_HAL_Driver/Inc/stm32u5xx_ll_bus.h **** #define LL_SRDAMR_GRP1_PERIPH_LPTIM1AMEN     RCC_SRDAMR_LPTIM1AMEN
 277:Drivers/STM32U5xx_HAL_Driver/Inc/stm32u5xx_ll_bus.h **** #define LL_SRDAMR_GRP1_PERIPH_LPTIM3AMEN     RCC_SRDAMR_LPTIM3AMEN
 278:Drivers/STM32U5xx_HAL_Driver/Inc/stm32u5xx_ll_bus.h **** #define LL_SRDAMR_GRP1_PERIPH_LPTIM4AMEN     RCC_SRDAMR_LPTIM4AMEN
 279:Drivers/STM32U5xx_HAL_Driver/Inc/stm32u5xx_ll_bus.h **** #define LL_SRDAMR_GRP1_PERIPH_OPAMPAMEN      RCC_SRDAMR_OPAMPAMEN
 280:Drivers/STM32U5xx_HAL_Driver/Inc/stm32u5xx_ll_bus.h **** #define LL_SRDAMR_GRP1_PERIPH_COMPAMEN       RCC_SRDAMR_COMPAMEN
 281:Drivers/STM32U5xx_HAL_Driver/Inc/stm32u5xx_ll_bus.h **** #define LL_SRDAMR_GRP1_PERIPH_VREFAMEN       RCC_SRDAMR_VREFAMEN
 282:Drivers/STM32U5xx_HAL_Driver/Inc/stm32u5xx_ll_bus.h **** #define LL_SRDAMR_GRP1_PERIPH_RTCAPBAMEN     RCC_SRDAMR_RTCAPBAMEN
 283:Drivers/STM32U5xx_HAL_Driver/Inc/stm32u5xx_ll_bus.h **** #define LL_SRDAMR_GRP1_PERIPH_ADC4AMEN       RCC_SRDAMR_ADC4AMEN
 284:Drivers/STM32U5xx_HAL_Driver/Inc/stm32u5xx_ll_bus.h **** #define LL_SRDAMR_GRP1_PERIPH_LPGPIO1AMEN    RCC_SRDAMR_LPGPIO1AMEN
 285:Drivers/STM32U5xx_HAL_Driver/Inc/stm32u5xx_ll_bus.h **** #define LL_SRDAMR_GRP1_PERIPH_DAC1AMEN       RCC_SRDAMR_DAC1AMEN
 286:Drivers/STM32U5xx_HAL_Driver/Inc/stm32u5xx_ll_bus.h **** #define LL_SRDAMR_GRP1_PERIPH_LPDMA1AMEN     RCC_SRDAMR_LPDMA1AMEN
 287:Drivers/STM32U5xx_HAL_Driver/Inc/stm32u5xx_ll_bus.h **** #define LL_SRDAMR_GRP1_PERIPH_ADF1AMEN       RCC_SRDAMR_ADF1AMEN
 288:Drivers/STM32U5xx_HAL_Driver/Inc/stm32u5xx_ll_bus.h **** #define LL_SRDAMR_GRP1_PERIPH_SRAM4AMEN      RCC_SRDAMR_SRAM4AMEN
 289:Drivers/STM32U5xx_HAL_Driver/Inc/stm32u5xx_ll_bus.h **** /**
 290:Drivers/STM32U5xx_HAL_Driver/Inc/stm32u5xx_ll_bus.h ****   * @}
 291:Drivers/STM32U5xx_HAL_Driver/Inc/stm32u5xx_ll_bus.h ****   */
 292:Drivers/STM32U5xx_HAL_Driver/Inc/stm32u5xx_ll_bus.h **** /** @defgroup LL_RCC_Aliased_Constants  LL RCC Aliased Constants maintained for legacy purpose
 293:Drivers/STM32U5xx_HAL_Driver/Inc/stm32u5xx_ll_bus.h ****   * @{
 294:Drivers/STM32U5xx_HAL_Driver/Inc/stm32u5xx_ll_bus.h ****   */
 295:Drivers/STM32U5xx_HAL_Driver/Inc/stm32u5xx_ll_bus.h **** #define LL_AHB2_GRP1_PERIPH_ADC1    LL_AHB2_GRP1_PERIPH_ADC12
 296:Drivers/STM32U5xx_HAL_Driver/Inc/stm32u5xx_ll_bus.h **** /**
 297:Drivers/STM32U5xx_HAL_Driver/Inc/stm32u5xx_ll_bus.h ****   * @}
 298:Drivers/STM32U5xx_HAL_Driver/Inc/stm32u5xx_ll_bus.h ****   */
 299:Drivers/STM32U5xx_HAL_Driver/Inc/stm32u5xx_ll_bus.h **** /**
 300:Drivers/STM32U5xx_HAL_Driver/Inc/stm32u5xx_ll_bus.h ****   * @}
 301:Drivers/STM32U5xx_HAL_Driver/Inc/stm32u5xx_ll_bus.h ****   */
 302:Drivers/STM32U5xx_HAL_Driver/Inc/stm32u5xx_ll_bus.h **** 
 303:Drivers/STM32U5xx_HAL_Driver/Inc/stm32u5xx_ll_bus.h **** /* Exported macro ------------------------------------------------------------*/
 304:Drivers/STM32U5xx_HAL_Driver/Inc/stm32u5xx_ll_bus.h **** /* Exported functions --------------------------------------------------------*/
 305:Drivers/STM32U5xx_HAL_Driver/Inc/stm32u5xx_ll_bus.h **** /** @defgroup BUS_LL_Exported_Functions BUS Exported Functions
 306:Drivers/STM32U5xx_HAL_Driver/Inc/stm32u5xx_ll_bus.h ****   * @{
 307:Drivers/STM32U5xx_HAL_Driver/Inc/stm32u5xx_ll_bus.h ****   */
 308:Drivers/STM32U5xx_HAL_Driver/Inc/stm32u5xx_ll_bus.h **** 
 309:Drivers/STM32U5xx_HAL_Driver/Inc/stm32u5xx_ll_bus.h **** /** @defgroup BUS_LL_EF_AHB1 AHB1
 310:Drivers/STM32U5xx_HAL_Driver/Inc/stm32u5xx_ll_bus.h ****   * @{
 311:Drivers/STM32U5xx_HAL_Driver/Inc/stm32u5xx_ll_bus.h ****   */
 312:Drivers/STM32U5xx_HAL_Driver/Inc/stm32u5xx_ll_bus.h **** /**
 313:Drivers/STM32U5xx_HAL_Driver/Inc/stm32u5xx_ll_bus.h ****   * @brief  Enable AHB1 peripherals clock.
 314:Drivers/STM32U5xx_HAL_Driver/Inc/stm32u5xx_ll_bus.h ****   * @rmtoll AHB1ENR    GPDMA1EN     LL_AHB1_GRP1_EnableClock\n
 315:Drivers/STM32U5xx_HAL_Driver/Inc/stm32u5xx_ll_bus.h ****   *         AHB1ENR    CORDICEN     LL_AHB1_GRP1_EnableClock\n
 316:Drivers/STM32U5xx_HAL_Driver/Inc/stm32u5xx_ll_bus.h ****   *         AHB1ENR    FMACEN       LL_AHB1_GRP1_EnableClock\n
 317:Drivers/STM32U5xx_HAL_Driver/Inc/stm32u5xx_ll_bus.h ****   *         AHB1ENR    MDF1EN       LL_AHB1_GRP1_EnableClock\n
 318:Drivers/STM32U5xx_HAL_Driver/Inc/stm32u5xx_ll_bus.h ****   *         AHB1ENR    FLASHEN      LL_AHB1_GRP1_EnableClock\n
 319:Drivers/STM32U5xx_HAL_Driver/Inc/stm32u5xx_ll_bus.h ****   *         AHB1ENR    CRCEN        LL_AHB1_GRP1_EnableClock\n
 320:Drivers/STM32U5xx_HAL_Driver/Inc/stm32u5xx_ll_bus.h ****   *         AHB1ENR    TSCEN        LL_AHB1_GRP1_EnableClock\n
 321:Drivers/STM32U5xx_HAL_Driver/Inc/stm32u5xx_ll_bus.h ****   *         AHB1ENR    RAMCFGEN     LL_AHB1_GRP1_EnableClock\n
 322:Drivers/STM32U5xx_HAL_Driver/Inc/stm32u5xx_ll_bus.h ****   *         AHB1ENR    DMA2DEN      LL_AHB1_GRP1_EnableClock\n
 323:Drivers/STM32U5xx_HAL_Driver/Inc/stm32u5xx_ll_bus.h ****   *         AHB1ENR    GFXMMUEN     LL_AHB1_GRP1_EnableClock\n
 324:Drivers/STM32U5xx_HAL_Driver/Inc/stm32u5xx_ll_bus.h ****   *         AHB1ENR    GPU2DEN      LL_AHB1_GRP1_EnableClock\n
 325:Drivers/STM32U5xx_HAL_Driver/Inc/stm32u5xx_ll_bus.h ****   *         AHB1ENR    DCACHE2EN    LL_AHB1_GRP1_EnableClock\n
 326:Drivers/STM32U5xx_HAL_Driver/Inc/stm32u5xx_ll_bus.h ****   *         AHB1ENR    GTZC1EN      LL_AHB1_GRP1_EnableClock\n
 327:Drivers/STM32U5xx_HAL_Driver/Inc/stm32u5xx_ll_bus.h ****   *         AHB1ENR    BKPSRAMEN    LL_AHB1_GRP1_EnableClock\n
 328:Drivers/STM32U5xx_HAL_Driver/Inc/stm32u5xx_ll_bus.h ****   *         AHB1ENR    DCACHE1EN    LL_AHB1_GRP1_EnableClock\n
ARM GAS  C:\Users\Yamaan\AppData\Local\Temp\ccBR0E2V.s 			page 23


 329:Drivers/STM32U5xx_HAL_Driver/Inc/stm32u5xx_ll_bus.h ****   *         AHB1ENR    SRAM1EN      LL_AHB1_GRP1_EnableClock\n
 330:Drivers/STM32U5xx_HAL_Driver/Inc/stm32u5xx_ll_bus.h ****   * @param  Periphs This parameter can be a combination of the following values:
 331:Drivers/STM32U5xx_HAL_Driver/Inc/stm32u5xx_ll_bus.h ****   *         @arg @ref LL_AHB1_GRP1_PERIPH_ALL
 332:Drivers/STM32U5xx_HAL_Driver/Inc/stm32u5xx_ll_bus.h ****   *         @arg @ref LL_AHB1_GRP1_PERIPH_GPDMA1
 333:Drivers/STM32U5xx_HAL_Driver/Inc/stm32u5xx_ll_bus.h ****   *         @arg @ref LL_AHB1_GRP1_PERIPH_CORDIC
 334:Drivers/STM32U5xx_HAL_Driver/Inc/stm32u5xx_ll_bus.h ****   *         @arg @ref LL_AHB1_GRP1_PERIPH_FMAC
 335:Drivers/STM32U5xx_HAL_Driver/Inc/stm32u5xx_ll_bus.h ****   *         @arg @ref LL_AHB1_GRP1_PERIPH_MDF1
 336:Drivers/STM32U5xx_HAL_Driver/Inc/stm32u5xx_ll_bus.h ****   *         @arg @ref LL_AHB1_GRP1_PERIPH_FLASH
 337:Drivers/STM32U5xx_HAL_Driver/Inc/stm32u5xx_ll_bus.h ****   *         @arg @ref LL_AHB1_GRP1_PERIPH_CRC
 338:Drivers/STM32U5xx_HAL_Driver/Inc/stm32u5xx_ll_bus.h ****   *         @arg @ref LL_AHB1_GRP1_PERIPH_TSC
 339:Drivers/STM32U5xx_HAL_Driver/Inc/stm32u5xx_ll_bus.h ****   *         @arg @ref LL_AHB1_GRP1_PERIPH_RAMCFG
 340:Drivers/STM32U5xx_HAL_Driver/Inc/stm32u5xx_ll_bus.h ****   *         @arg @ref LL_AHB1_GRP1_PERIPH_DMA2D
 341:Drivers/STM32U5xx_HAL_Driver/Inc/stm32u5xx_ll_bus.h ****   *         @arg @ref LL_AHB1_GRP1_PERIPH_GFXMMU (*)
 342:Drivers/STM32U5xx_HAL_Driver/Inc/stm32u5xx_ll_bus.h ****   *         @arg @ref LL_AHB1_GRP1_PERIPH_GPU2D (*)
 343:Drivers/STM32U5xx_HAL_Driver/Inc/stm32u5xx_ll_bus.h ****   *         @arg @ref LL_AHB1_GRP1_PERIPH_DCACHE2 (*)
 344:Drivers/STM32U5xx_HAL_Driver/Inc/stm32u5xx_ll_bus.h ****   *         @arg @ref LL_AHB1_GRP1_PERIPH_GTZC1
 345:Drivers/STM32U5xx_HAL_Driver/Inc/stm32u5xx_ll_bus.h ****   *         @arg @ref LL_AHB1_GRP1_PERIPH_BKPSRAM
 346:Drivers/STM32U5xx_HAL_Driver/Inc/stm32u5xx_ll_bus.h ****   *         @arg @ref LL_AHB1_GRP1_PERIPH_DCACHE1
 347:Drivers/STM32U5xx_HAL_Driver/Inc/stm32u5xx_ll_bus.h ****   *         @arg @ref LL_AHB1_GRP1_PERIPH_SRAM1
 348:Drivers/STM32U5xx_HAL_Driver/Inc/stm32u5xx_ll_bus.h ****   *
 349:Drivers/STM32U5xx_HAL_Driver/Inc/stm32u5xx_ll_bus.h ****   *        (*) value not defined in all devices.
 350:Drivers/STM32U5xx_HAL_Driver/Inc/stm32u5xx_ll_bus.h ****   * @retval None
 351:Drivers/STM32U5xx_HAL_Driver/Inc/stm32u5xx_ll_bus.h ****   */
 352:Drivers/STM32U5xx_HAL_Driver/Inc/stm32u5xx_ll_bus.h **** __STATIC_INLINE void LL_AHB1_GRP1_EnableClock(uint32_t Periphs)
 353:Drivers/STM32U5xx_HAL_Driver/Inc/stm32u5xx_ll_bus.h **** {
 354:Drivers/STM32U5xx_HAL_Driver/Inc/stm32u5xx_ll_bus.h ****   __IO uint32_t tmpreg;
 355:Drivers/STM32U5xx_HAL_Driver/Inc/stm32u5xx_ll_bus.h ****   SET_BIT(RCC->AHB1ENR, Periphs);
 356:Drivers/STM32U5xx_HAL_Driver/Inc/stm32u5xx_ll_bus.h ****   /* Delay after an RCC peripheral clock enabling */
 357:Drivers/STM32U5xx_HAL_Driver/Inc/stm32u5xx_ll_bus.h ****   tmpreg = READ_BIT(RCC->AHB1ENR, Periphs);
 358:Drivers/STM32U5xx_HAL_Driver/Inc/stm32u5xx_ll_bus.h ****   (void)tmpreg;
 359:Drivers/STM32U5xx_HAL_Driver/Inc/stm32u5xx_ll_bus.h **** }
 360:Drivers/STM32U5xx_HAL_Driver/Inc/stm32u5xx_ll_bus.h **** 
 361:Drivers/STM32U5xx_HAL_Driver/Inc/stm32u5xx_ll_bus.h **** /**
 362:Drivers/STM32U5xx_HAL_Driver/Inc/stm32u5xx_ll_bus.h ****   * @brief  Check if AHB1 peripheral clock is enabled or not
 363:Drivers/STM32U5xx_HAL_Driver/Inc/stm32u5xx_ll_bus.h ****   * @rmtoll AHB1ENR    GPDMA1EN     LL_AHB1_GRP1_IsEnabledClock\n
 364:Drivers/STM32U5xx_HAL_Driver/Inc/stm32u5xx_ll_bus.h ****   *         AHB1ENR    CORDICEN     LL_AHB1_GRP1_IsEnabledClock\n
 365:Drivers/STM32U5xx_HAL_Driver/Inc/stm32u5xx_ll_bus.h ****   *         AHB1ENR    FMACEN       LL_AHB1_GRP1_IsEnabledClock\n
 366:Drivers/STM32U5xx_HAL_Driver/Inc/stm32u5xx_ll_bus.h ****   *         AHB1ENR    MDF1EN       LL_AHB1_GRP1_IsEnabledClock\n
 367:Drivers/STM32U5xx_HAL_Driver/Inc/stm32u5xx_ll_bus.h ****   *         AHB1ENR    FLASHEN      LL_AHB1_GRP1_IsEnabledClock\n
 368:Drivers/STM32U5xx_HAL_Driver/Inc/stm32u5xx_ll_bus.h ****   *         AHB1ENR    CRCEN        LL_AHB1_GRP1_IsEnabledClock\n
 369:Drivers/STM32U5xx_HAL_Driver/Inc/stm32u5xx_ll_bus.h ****   *         AHB1ENR    TSCEN        LL_AHB1_GRP1_IsEnabledClock\n
 370:Drivers/STM32U5xx_HAL_Driver/Inc/stm32u5xx_ll_bus.h ****   *         AHB1ENR    RAMCFGEN     LL_AHB1_GRP1_IsEnabledClock\n
 371:Drivers/STM32U5xx_HAL_Driver/Inc/stm32u5xx_ll_bus.h ****   *         AHB1ENR    DMA2DEN      LL_AHB1_GRP1_IsEnabledClock\n
 372:Drivers/STM32U5xx_HAL_Driver/Inc/stm32u5xx_ll_bus.h ****   *         AHB1ENR    GFXMMUEN     LL_AHB1_GRP1_IsEnabledClock\n
 373:Drivers/STM32U5xx_HAL_Driver/Inc/stm32u5xx_ll_bus.h ****   *         AHB1ENR    GPU2DEN      LL_AHB1_GRP1_IsEnabledClock\n
 374:Drivers/STM32U5xx_HAL_Driver/Inc/stm32u5xx_ll_bus.h ****   *         AHB1ENR    DCACHE2EN    LL_AHB1_GRP1_IsEnabledClock\n
 375:Drivers/STM32U5xx_HAL_Driver/Inc/stm32u5xx_ll_bus.h ****   *         AHB1ENR    GTZC1EN      LL_AHB1_GRP1_IsEnabledClock\n
 376:Drivers/STM32U5xx_HAL_Driver/Inc/stm32u5xx_ll_bus.h ****   *         AHB1ENR    BKPSRAMEN    LL_AHB1_GRP1_IsEnabledClock\n
 377:Drivers/STM32U5xx_HAL_Driver/Inc/stm32u5xx_ll_bus.h ****   *         AHB1ENR    DCACHEEN     LL_AHB1_GRP1_IsEnabledClock\n
 378:Drivers/STM32U5xx_HAL_Driver/Inc/stm32u5xx_ll_bus.h ****   *         AHB1ENR    SRAM1EN      LL_AHB1_GRP1_IsEnabledClock\n
 379:Drivers/STM32U5xx_HAL_Driver/Inc/stm32u5xx_ll_bus.h ****   * @param  Periphs This parameter can be a combination of the following values:
 380:Drivers/STM32U5xx_HAL_Driver/Inc/stm32u5xx_ll_bus.h ****   *         @arg @ref LL_AHB1_GRP1_PERIPH_ALL
 381:Drivers/STM32U5xx_HAL_Driver/Inc/stm32u5xx_ll_bus.h ****   *         @arg @ref LL_AHB1_GRP1_PERIPH_GPDMA1
 382:Drivers/STM32U5xx_HAL_Driver/Inc/stm32u5xx_ll_bus.h ****   *         @arg @ref LL_AHB1_GRP1_PERIPH_CORDIC
 383:Drivers/STM32U5xx_HAL_Driver/Inc/stm32u5xx_ll_bus.h ****   *         @arg @ref LL_AHB1_GRP1_PERIPH_FMAC
 384:Drivers/STM32U5xx_HAL_Driver/Inc/stm32u5xx_ll_bus.h ****   *         @arg @ref LL_AHB1_GRP1_PERIPH_MDF1
 385:Drivers/STM32U5xx_HAL_Driver/Inc/stm32u5xx_ll_bus.h ****   *         @arg @ref LL_AHB1_GRP1_PERIPH_FLASH
ARM GAS  C:\Users\Yamaan\AppData\Local\Temp\ccBR0E2V.s 			page 24


 386:Drivers/STM32U5xx_HAL_Driver/Inc/stm32u5xx_ll_bus.h ****   *         @arg @ref LL_AHB1_GRP1_PERIPH_CRC
 387:Drivers/STM32U5xx_HAL_Driver/Inc/stm32u5xx_ll_bus.h ****   *         @arg @ref LL_AHB1_GRP1_PERIPH_TSC
 388:Drivers/STM32U5xx_HAL_Driver/Inc/stm32u5xx_ll_bus.h ****   *         @arg @ref LL_AHB1_GRP1_PERIPH_RAMCFG
 389:Drivers/STM32U5xx_HAL_Driver/Inc/stm32u5xx_ll_bus.h ****   *         @arg @ref LL_AHB1_GRP1_PERIPH_DMA2D
 390:Drivers/STM32U5xx_HAL_Driver/Inc/stm32u5xx_ll_bus.h ****   *         @arg @ref LL_AHB1_GRP1_PERIPH_GFXMMU (*)
 391:Drivers/STM32U5xx_HAL_Driver/Inc/stm32u5xx_ll_bus.h ****   *         @arg @ref LL_AHB1_GRP1_PERIPH_GPU2D (*)
 392:Drivers/STM32U5xx_HAL_Driver/Inc/stm32u5xx_ll_bus.h ****   *         @arg @ref LL_AHB1_GRP1_PERIPH_DCACHE2 (*)
 393:Drivers/STM32U5xx_HAL_Driver/Inc/stm32u5xx_ll_bus.h ****   *         @arg @ref LL_AHB1_GRP1_PERIPH_GTZC1
 394:Drivers/STM32U5xx_HAL_Driver/Inc/stm32u5xx_ll_bus.h ****   *         @arg @ref LL_AHB1_GRP1_PERIPH_BKPSRAM
 395:Drivers/STM32U5xx_HAL_Driver/Inc/stm32u5xx_ll_bus.h ****   *         @arg @ref LL_AHB1_GRP1_PERIPH_DCACHE1
 396:Drivers/STM32U5xx_HAL_Driver/Inc/stm32u5xx_ll_bus.h ****   *         @arg @ref LL_AHB1_GRP1_PERIPH_SRAM1
 397:Drivers/STM32U5xx_HAL_Driver/Inc/stm32u5xx_ll_bus.h ****   *
 398:Drivers/STM32U5xx_HAL_Driver/Inc/stm32u5xx_ll_bus.h ****   *        (*) value not defined in all devices.
 399:Drivers/STM32U5xx_HAL_Driver/Inc/stm32u5xx_ll_bus.h ****   * @retval State of Periphs (1 or 0).
 400:Drivers/STM32U5xx_HAL_Driver/Inc/stm32u5xx_ll_bus.h ****   */
 401:Drivers/STM32U5xx_HAL_Driver/Inc/stm32u5xx_ll_bus.h **** __STATIC_INLINE uint32_t LL_AHB1_GRP1_IsEnabledClock(uint32_t Periphs)
 402:Drivers/STM32U5xx_HAL_Driver/Inc/stm32u5xx_ll_bus.h **** {
 403:Drivers/STM32U5xx_HAL_Driver/Inc/stm32u5xx_ll_bus.h ****   return ((READ_BIT(RCC->AHB1ENR, Periphs) == Periphs) ? 1UL : 0UL);
 404:Drivers/STM32U5xx_HAL_Driver/Inc/stm32u5xx_ll_bus.h **** }
 405:Drivers/STM32U5xx_HAL_Driver/Inc/stm32u5xx_ll_bus.h **** 
 406:Drivers/STM32U5xx_HAL_Driver/Inc/stm32u5xx_ll_bus.h **** /**
 407:Drivers/STM32U5xx_HAL_Driver/Inc/stm32u5xx_ll_bus.h ****   * @brief  Disable AHB1 peripherals clock.
 408:Drivers/STM32U5xx_HAL_Driver/Inc/stm32u5xx_ll_bus.h ****   * @rmtoll AHB1ENR    GPDMA1EN     LL_AHB1_GRP1_DisableClock\n
 409:Drivers/STM32U5xx_HAL_Driver/Inc/stm32u5xx_ll_bus.h ****   *         AHB1ENR    CORDICEN     LL_AHB1_GRP1_DisableClock\n
 410:Drivers/STM32U5xx_HAL_Driver/Inc/stm32u5xx_ll_bus.h ****   *         AHB1ENR    FMACEN       LL_AHB1_GRP1_DisableClock\n
 411:Drivers/STM32U5xx_HAL_Driver/Inc/stm32u5xx_ll_bus.h ****   *         AHB1ENR    MDF1EN       LL_AHB1_GRP1_DisableClock\n
 412:Drivers/STM32U5xx_HAL_Driver/Inc/stm32u5xx_ll_bus.h ****   *         AHB1ENR    FLASHEN      LL_AHB1_GRP1_DisableClock\n
 413:Drivers/STM32U5xx_HAL_Driver/Inc/stm32u5xx_ll_bus.h ****   *         AHB1ENR    CRCEN        LL_AHB1_GRP1_DisableClock\n
 414:Drivers/STM32U5xx_HAL_Driver/Inc/stm32u5xx_ll_bus.h ****   *         AHB1ENR    TSCEN        LL_AHB1_GRP1_DisableClock\n
 415:Drivers/STM32U5xx_HAL_Driver/Inc/stm32u5xx_ll_bus.h ****   *         AHB1ENR    RAMCFGEN     LL_AHB1_GRP1_DisableClock\n
 416:Drivers/STM32U5xx_HAL_Driver/Inc/stm32u5xx_ll_bus.h ****   *         AHB1ENR    DMA2DEN      LL_AHB1_GRP1_DisableClock\n
 417:Drivers/STM32U5xx_HAL_Driver/Inc/stm32u5xx_ll_bus.h ****   *         AHB1ENR    GFXMMUEN     LL_AHB1_GRP1_DisableClock\n
 418:Drivers/STM32U5xx_HAL_Driver/Inc/stm32u5xx_ll_bus.h ****   *         AHB1ENR    GPU2DEN      LL_AHB1_GRP1_DisableClock\n
 419:Drivers/STM32U5xx_HAL_Driver/Inc/stm32u5xx_ll_bus.h ****   *         AHB1ENR    DCACHE2EN    LL_AHB1_GRP1_DisableClock\n
 420:Drivers/STM32U5xx_HAL_Driver/Inc/stm32u5xx_ll_bus.h ****   *         AHB1ENR    GTZC1EN      LL_AHB1_GRP1_DisableClock\n
 421:Drivers/STM32U5xx_HAL_Driver/Inc/stm32u5xx_ll_bus.h ****   *         AHB1ENR    BKPSRAMEN    LL_AHB1_GRP1_DisableClock\n
 422:Drivers/STM32U5xx_HAL_Driver/Inc/stm32u5xx_ll_bus.h ****   *         AHB1ENR    DCACHEEN     LL_AHB1_GRP1_DisableClock\n
 423:Drivers/STM32U5xx_HAL_Driver/Inc/stm32u5xx_ll_bus.h ****   *         AHB1ENR    SRAM1EN      LL_AHB1_GRP1_DisableClock\n
 424:Drivers/STM32U5xx_HAL_Driver/Inc/stm32u5xx_ll_bus.h ****   * @param  Periphs This parameter can be a combination of the following values:
 425:Drivers/STM32U5xx_HAL_Driver/Inc/stm32u5xx_ll_bus.h ****   *         @arg @ref LL_AHB1_GRP1_PERIPH_ALL
 426:Drivers/STM32U5xx_HAL_Driver/Inc/stm32u5xx_ll_bus.h ****   *         @arg @ref LL_AHB1_GRP1_PERIPH_GPDMA1
 427:Drivers/STM32U5xx_HAL_Driver/Inc/stm32u5xx_ll_bus.h ****   *         @arg @ref LL_AHB1_GRP1_PERIPH_CORDIC
 428:Drivers/STM32U5xx_HAL_Driver/Inc/stm32u5xx_ll_bus.h ****   *         @arg @ref LL_AHB1_GRP1_PERIPH_FMAC
 429:Drivers/STM32U5xx_HAL_Driver/Inc/stm32u5xx_ll_bus.h ****   *         @arg @ref LL_AHB1_GRP1_PERIPH_MDF1
 430:Drivers/STM32U5xx_HAL_Driver/Inc/stm32u5xx_ll_bus.h ****   *         @arg @ref LL_AHB1_GRP1_PERIPH_FLASH
 431:Drivers/STM32U5xx_HAL_Driver/Inc/stm32u5xx_ll_bus.h ****   *         @arg @ref LL_AHB1_GRP1_PERIPH_CRC
 432:Drivers/STM32U5xx_HAL_Driver/Inc/stm32u5xx_ll_bus.h ****   *         @arg @ref LL_AHB1_GRP1_PERIPH_TSC
 433:Drivers/STM32U5xx_HAL_Driver/Inc/stm32u5xx_ll_bus.h ****   *         @arg @ref LL_AHB1_GRP1_PERIPH_RAMCFG
 434:Drivers/STM32U5xx_HAL_Driver/Inc/stm32u5xx_ll_bus.h ****   *         @arg @ref LL_AHB1_GRP1_PERIPH_DMA2D
 435:Drivers/STM32U5xx_HAL_Driver/Inc/stm32u5xx_ll_bus.h ****   *         @arg @ref LL_AHB1_GRP1_PERIPH_GFXMMU (*)
 436:Drivers/STM32U5xx_HAL_Driver/Inc/stm32u5xx_ll_bus.h ****   *         @arg @ref LL_AHB1_GRP1_PERIPH_GPU2D (*)
 437:Drivers/STM32U5xx_HAL_Driver/Inc/stm32u5xx_ll_bus.h ****   *         @arg @ref LL_AHB1_GRP1_PERIPH_DCACHE2 (*)
 438:Drivers/STM32U5xx_HAL_Driver/Inc/stm32u5xx_ll_bus.h ****   *         @arg @ref LL_AHB1_GRP1_PERIPH_GTZC1
 439:Drivers/STM32U5xx_HAL_Driver/Inc/stm32u5xx_ll_bus.h ****   *         @arg @ref LL_AHB1_GRP1_PERIPH_BKPSRAM
 440:Drivers/STM32U5xx_HAL_Driver/Inc/stm32u5xx_ll_bus.h ****   *         @arg @ref LL_AHB1_GRP1_PERIPH_DCACHE1
 441:Drivers/STM32U5xx_HAL_Driver/Inc/stm32u5xx_ll_bus.h ****   *         @arg @ref LL_AHB1_GRP1_PERIPH_SRAM1
 442:Drivers/STM32U5xx_HAL_Driver/Inc/stm32u5xx_ll_bus.h ****   *
ARM GAS  C:\Users\Yamaan\AppData\Local\Temp\ccBR0E2V.s 			page 25


 443:Drivers/STM32U5xx_HAL_Driver/Inc/stm32u5xx_ll_bus.h ****   *        (*) value not defined in all devices.
 444:Drivers/STM32U5xx_HAL_Driver/Inc/stm32u5xx_ll_bus.h ****   * @retval None
 445:Drivers/STM32U5xx_HAL_Driver/Inc/stm32u5xx_ll_bus.h ****   */
 446:Drivers/STM32U5xx_HAL_Driver/Inc/stm32u5xx_ll_bus.h **** __STATIC_INLINE void LL_AHB1_GRP1_DisableClock(uint32_t Periphs)
 447:Drivers/STM32U5xx_HAL_Driver/Inc/stm32u5xx_ll_bus.h **** {
 448:Drivers/STM32U5xx_HAL_Driver/Inc/stm32u5xx_ll_bus.h ****   CLEAR_BIT(RCC->AHB1ENR, Periphs);
 449:Drivers/STM32U5xx_HAL_Driver/Inc/stm32u5xx_ll_bus.h **** }
 450:Drivers/STM32U5xx_HAL_Driver/Inc/stm32u5xx_ll_bus.h **** 
 451:Drivers/STM32U5xx_HAL_Driver/Inc/stm32u5xx_ll_bus.h **** /**
 452:Drivers/STM32U5xx_HAL_Driver/Inc/stm32u5xx_ll_bus.h ****   * @brief  Force AHB1 peripherals reset.
 453:Drivers/STM32U5xx_HAL_Driver/Inc/stm32u5xx_ll_bus.h ****   * @rmtoll AHB1RSTR    GPDMA1RSTR     LL_AHB1_GRP1_ForceReset\n
 454:Drivers/STM32U5xx_HAL_Driver/Inc/stm32u5xx_ll_bus.h ****   *         AHB1RSTR    CORDICRSTR     LL_AHB1_GRP1_ForceReset\n
 455:Drivers/STM32U5xx_HAL_Driver/Inc/stm32u5xx_ll_bus.h ****   *         AHB1RSTR    FMACRSTR       LL_AHB1_GRP1_ForceReset\n
 456:Drivers/STM32U5xx_HAL_Driver/Inc/stm32u5xx_ll_bus.h ****   *         AHB1RSTR    MDF1RSTR       LL_AHB1_GRP1_ForceReset\n
 457:Drivers/STM32U5xx_HAL_Driver/Inc/stm32u5xx_ll_bus.h ****   *         AHB1RSTR    CRCRSTR        LL_AHB1_GRP1_ForceReset\n
 458:Drivers/STM32U5xx_HAL_Driver/Inc/stm32u5xx_ll_bus.h ****   *         AHB1RSTR    TSCRSTR        LL_AHB1_GRP1_ForceReset\n
 459:Drivers/STM32U5xx_HAL_Driver/Inc/stm32u5xx_ll_bus.h ****   *         AHB1RSTR    RAMCFGRSTR     LL_AHB1_GRP1_ForceReset\n
 460:Drivers/STM32U5xx_HAL_Driver/Inc/stm32u5xx_ll_bus.h ****   *         AHB1RSTR    DMA2DRSTR      LL_AHB1_GRP1_ForceReset\n
 461:Drivers/STM32U5xx_HAL_Driver/Inc/stm32u5xx_ll_bus.h ****   *         AHB1RSTR    GFXMMURSTR     LL_AHB1_GRP1_ForceReset\n
 462:Drivers/STM32U5xx_HAL_Driver/Inc/stm32u5xx_ll_bus.h ****   *         AHB1RSTR    GPU2DRSTR      LL_AHB1_GRP1_ForceReset\n
 463:Drivers/STM32U5xx_HAL_Driver/Inc/stm32u5xx_ll_bus.h ****   *         AHB1RSTR    DCACHE2RSTR    LL_AHB1_GRP1_ForceReset\n
 464:Drivers/STM32U5xx_HAL_Driver/Inc/stm32u5xx_ll_bus.h ****   * @param  Periphs This parameter can be a combination of the following values:
 465:Drivers/STM32U5xx_HAL_Driver/Inc/stm32u5xx_ll_bus.h ****   *         @arg @ref LL_AHB1_GRP1_PERIPH_ALL
 466:Drivers/STM32U5xx_HAL_Driver/Inc/stm32u5xx_ll_bus.h ****   *         @arg @ref LL_AHB1_GRP1_PERIPH_GPDMA1
 467:Drivers/STM32U5xx_HAL_Driver/Inc/stm32u5xx_ll_bus.h ****   *         @arg @ref LL_AHB1_GRP1_PERIPH_CORDIC
 468:Drivers/STM32U5xx_HAL_Driver/Inc/stm32u5xx_ll_bus.h ****   *         @arg @ref LL_AHB1_GRP1_PERIPH_FMAC
 469:Drivers/STM32U5xx_HAL_Driver/Inc/stm32u5xx_ll_bus.h ****   *         @arg @ref LL_AHB1_GRP1_PERIPH_MDF1
 470:Drivers/STM32U5xx_HAL_Driver/Inc/stm32u5xx_ll_bus.h ****   *         @arg @ref LL_AHB1_GRP1_PERIPH_CRC
 471:Drivers/STM32U5xx_HAL_Driver/Inc/stm32u5xx_ll_bus.h ****   *         @arg @ref LL_AHB1_GRP1_PERIPH_TSC
 472:Drivers/STM32U5xx_HAL_Driver/Inc/stm32u5xx_ll_bus.h ****   *         @arg @ref LL_AHB1_GRP1_PERIPH_RAMCFG
 473:Drivers/STM32U5xx_HAL_Driver/Inc/stm32u5xx_ll_bus.h ****   *         @arg @ref LL_AHB1_GRP1_PERIPH_DMA2D
 474:Drivers/STM32U5xx_HAL_Driver/Inc/stm32u5xx_ll_bus.h ****   *         @arg @ref LL_AHB1_GRP1_PERIPH_GFXMMU (*)
 475:Drivers/STM32U5xx_HAL_Driver/Inc/stm32u5xx_ll_bus.h ****   *         @arg @ref LL_AHB1_GRP1_PERIPH_GPU2D (*)
 476:Drivers/STM32U5xx_HAL_Driver/Inc/stm32u5xx_ll_bus.h ****   *         @arg @ref LL_AHB1_GRP1_PERIPH_DCACHE2 (*)
 477:Drivers/STM32U5xx_HAL_Driver/Inc/stm32u5xx_ll_bus.h ****   *        (*) value not defined in all devices.
 478:Drivers/STM32U5xx_HAL_Driver/Inc/stm32u5xx_ll_bus.h ****   * @retval None
 479:Drivers/STM32U5xx_HAL_Driver/Inc/stm32u5xx_ll_bus.h ****   */
 480:Drivers/STM32U5xx_HAL_Driver/Inc/stm32u5xx_ll_bus.h **** __STATIC_INLINE void LL_AHB1_GRP1_ForceReset(uint32_t Periphs)
 481:Drivers/STM32U5xx_HAL_Driver/Inc/stm32u5xx_ll_bus.h **** {
 482:Drivers/STM32U5xx_HAL_Driver/Inc/stm32u5xx_ll_bus.h ****   SET_BIT(RCC->AHB1RSTR, Periphs);
 483:Drivers/STM32U5xx_HAL_Driver/Inc/stm32u5xx_ll_bus.h **** }
 484:Drivers/STM32U5xx_HAL_Driver/Inc/stm32u5xx_ll_bus.h **** 
 485:Drivers/STM32U5xx_HAL_Driver/Inc/stm32u5xx_ll_bus.h **** /**
 486:Drivers/STM32U5xx_HAL_Driver/Inc/stm32u5xx_ll_bus.h ****   * @brief  Release AHB1 peripherals reset.
 487:Drivers/STM32U5xx_HAL_Driver/Inc/stm32u5xx_ll_bus.h ****   * @rmtoll AHB1RSTR    GPDMA1RSTR      LL_AHB1_GRP1_ReleaseReset\n
 488:Drivers/STM32U5xx_HAL_Driver/Inc/stm32u5xx_ll_bus.h ****   *         AHB1RSTR    CORDICRSTR      LL_AHB1_GRP1_ReleaseReset\n
 489:Drivers/STM32U5xx_HAL_Driver/Inc/stm32u5xx_ll_bus.h ****   *         AHB1RSTR    FMACRSTR        LL_AHB1_GRP1_ReleaseReset\n
 490:Drivers/STM32U5xx_HAL_Driver/Inc/stm32u5xx_ll_bus.h ****   *         AHB1RSTR    MDF1RSTR        LL_AHB1_GRP1_ReleaseReset\n
 491:Drivers/STM32U5xx_HAL_Driver/Inc/stm32u5xx_ll_bus.h ****   *         AHB1RSTR    CRCRSTR         LL_AHB1_GRP1_ReleaseReset\n
 492:Drivers/STM32U5xx_HAL_Driver/Inc/stm32u5xx_ll_bus.h ****   *         AHB1RSTR    TSCRSTR         LL_AHB1_GRP1_ReleaseReset\n
 493:Drivers/STM32U5xx_HAL_Driver/Inc/stm32u5xx_ll_bus.h ****   *         AHB1RSTR    RAMCFGRSTR      LL_AHB1_GRP1_ReleaseReset\n
 494:Drivers/STM32U5xx_HAL_Driver/Inc/stm32u5xx_ll_bus.h ****   *         AHB1RSTR    DMA2DRSTR       LL_AHB1_GRP1_ReleaseReset\n
 495:Drivers/STM32U5xx_HAL_Driver/Inc/stm32u5xx_ll_bus.h ****   *         AHB1RSTR    GFXMMURSTR      LL_AHB1_GRP1_ReleaseReset\n
 496:Drivers/STM32U5xx_HAL_Driver/Inc/stm32u5xx_ll_bus.h ****   *         AHB1RSTR    GPU2DRSTR       LL_AHB1_GRP1_ReleaseReset\n
 497:Drivers/STM32U5xx_HAL_Driver/Inc/stm32u5xx_ll_bus.h ****   *         AHB1RSTR    DCACHE2RSTR     LL_AHB1_GRP1_ReleaseReset\n
 498:Drivers/STM32U5xx_HAL_Driver/Inc/stm32u5xx_ll_bus.h ****   * @param  Periphs This parameter can be a combination of the following values:
 499:Drivers/STM32U5xx_HAL_Driver/Inc/stm32u5xx_ll_bus.h ****   *         @arg @ref LL_AHB1_GRP1_PERIPH_ALL
ARM GAS  C:\Users\Yamaan\AppData\Local\Temp\ccBR0E2V.s 			page 26


 500:Drivers/STM32U5xx_HAL_Driver/Inc/stm32u5xx_ll_bus.h ****   *         @arg @ref LL_AHB1_GRP1_PERIPH_GPDMA1
 501:Drivers/STM32U5xx_HAL_Driver/Inc/stm32u5xx_ll_bus.h ****   *         @arg @ref LL_AHB1_GRP1_PERIPH_CORDIC
 502:Drivers/STM32U5xx_HAL_Driver/Inc/stm32u5xx_ll_bus.h ****   *         @arg @ref LL_AHB1_GRP1_PERIPH_FMAC
 503:Drivers/STM32U5xx_HAL_Driver/Inc/stm32u5xx_ll_bus.h ****   *         @arg @ref LL_AHB1_GRP1_PERIPH_MDF1
 504:Drivers/STM32U5xx_HAL_Driver/Inc/stm32u5xx_ll_bus.h ****   *         @arg @ref LL_AHB1_GRP1_PERIPH_CRC
 505:Drivers/STM32U5xx_HAL_Driver/Inc/stm32u5xx_ll_bus.h ****   *         @arg @ref LL_AHB1_GRP1_PERIPH_TSC
 506:Drivers/STM32U5xx_HAL_Driver/Inc/stm32u5xx_ll_bus.h ****   *         @arg @ref LL_AHB1_GRP1_PERIPH_RAMCFG
 507:Drivers/STM32U5xx_HAL_Driver/Inc/stm32u5xx_ll_bus.h ****   *         @arg @ref LL_AHB1_GRP1_PERIPH_DMA2D
 508:Drivers/STM32U5xx_HAL_Driver/Inc/stm32u5xx_ll_bus.h ****   *         @arg @ref LL_AHB1_GRP1_PERIPH_GFXMMU (*)
 509:Drivers/STM32U5xx_HAL_Driver/Inc/stm32u5xx_ll_bus.h ****   *         @arg @ref LL_AHB1_GRP1_PERIPH_GPU2D (*)
 510:Drivers/STM32U5xx_HAL_Driver/Inc/stm32u5xx_ll_bus.h ****   *         @arg @ref LL_AHB1_GRP1_PERIPH_DCACHE2 (*)
 511:Drivers/STM32U5xx_HAL_Driver/Inc/stm32u5xx_ll_bus.h ****   *
 512:Drivers/STM32U5xx_HAL_Driver/Inc/stm32u5xx_ll_bus.h ****   *        (*) value not defined in all devices.
 513:Drivers/STM32U5xx_HAL_Driver/Inc/stm32u5xx_ll_bus.h ****   * @retval None
 514:Drivers/STM32U5xx_HAL_Driver/Inc/stm32u5xx_ll_bus.h ****   */
 515:Drivers/STM32U5xx_HAL_Driver/Inc/stm32u5xx_ll_bus.h **** __STATIC_INLINE void LL_AHB1_GRP1_ReleaseReset(uint32_t Periphs)
 516:Drivers/STM32U5xx_HAL_Driver/Inc/stm32u5xx_ll_bus.h **** {
 517:Drivers/STM32U5xx_HAL_Driver/Inc/stm32u5xx_ll_bus.h ****   CLEAR_BIT(RCC->AHB1RSTR, Periphs);
 518:Drivers/STM32U5xx_HAL_Driver/Inc/stm32u5xx_ll_bus.h **** }
 519:Drivers/STM32U5xx_HAL_Driver/Inc/stm32u5xx_ll_bus.h **** 
 520:Drivers/STM32U5xx_HAL_Driver/Inc/stm32u5xx_ll_bus.h **** /**
 521:Drivers/STM32U5xx_HAL_Driver/Inc/stm32u5xx_ll_bus.h ****   * @brief  Enable AHB1 peripheral clocks in Sleep and Stop modes
 522:Drivers/STM32U5xx_HAL_Driver/Inc/stm32u5xx_ll_bus.h ****   * @rmtoll AHB1SMENR   GPDMA1SMEN     LL_AHB1_GRP1_EnableClockStopSleep\n
 523:Drivers/STM32U5xx_HAL_Driver/Inc/stm32u5xx_ll_bus.h ****   *         AHB1SMENR   CORDICSMEN     LL_AHB1_GRP1_EnableClockStopSleep\n
 524:Drivers/STM32U5xx_HAL_Driver/Inc/stm32u5xx_ll_bus.h ****   *         AHB1SMENR   FMACSMEN       LL_AHB1_GRP1_EnableClockStopSleep\n
 525:Drivers/STM32U5xx_HAL_Driver/Inc/stm32u5xx_ll_bus.h ****   *         AHB1SMENR   MDF1SMEN       LL_AHB1_GRP1_EnableClockStopSleep\n
 526:Drivers/STM32U5xx_HAL_Driver/Inc/stm32u5xx_ll_bus.h ****   *         AHB1SMENR   FLASHSMEN      LL_AHB1_GRP1_EnableClockStopSleep\n
 527:Drivers/STM32U5xx_HAL_Driver/Inc/stm32u5xx_ll_bus.h ****   *         AHB1SMENR   CRCSMEN        LL_AHB1_GRP1_EnableClockStopSleep\n
 528:Drivers/STM32U5xx_HAL_Driver/Inc/stm32u5xx_ll_bus.h ****   *         AHB1SMENR   TSCSMEN        LL_AHB1_GRP1_EnableClockStopSleep\n
 529:Drivers/STM32U5xx_HAL_Driver/Inc/stm32u5xx_ll_bus.h ****   *         AHB1SMENR   RAMCFGSMEN     LL_AHB1_GRP1_EnableClockStopSleep\n
 530:Drivers/STM32U5xx_HAL_Driver/Inc/stm32u5xx_ll_bus.h ****   *         AHB1SMENR   DMA2DSMEN      LL_AHB1_GRP1_EnableClockStopSleep\n
 531:Drivers/STM32U5xx_HAL_Driver/Inc/stm32u5xx_ll_bus.h ****   *         AHB1SMENR   GFXMMUSMEN     LL_AHB1_GRP1_EnableClockStopSleep\n
 532:Drivers/STM32U5xx_HAL_Driver/Inc/stm32u5xx_ll_bus.h ****   *         AHB1SMENR   GPU2DSMEN      LL_AHB1_GRP1_EnableClockStopSleep\n
 533:Drivers/STM32U5xx_HAL_Driver/Inc/stm32u5xx_ll_bus.h ****   *         AHB1SMENR   DCACHE2SMEN    LL_AHB1_GRP1_EnableClockStopSleep\n
 534:Drivers/STM32U5xx_HAL_Driver/Inc/stm32u5xx_ll_bus.h ****   *         AHB1SMENR   GTZC1SMEN      LL_AHB1_GRP1_EnableClockStopSleep\n
 535:Drivers/STM32U5xx_HAL_Driver/Inc/stm32u5xx_ll_bus.h ****   *         AHB1SMENR   BKPSRAMSMEN    LL_AHB1_GRP1_EnableClockStopSleep\n
 536:Drivers/STM32U5xx_HAL_Driver/Inc/stm32u5xx_ll_bus.h ****   *         AHB1SMENR   DCACHESMEN     LL_AHB1_GRP1_EnableClockStopSleep\n
 537:Drivers/STM32U5xx_HAL_Driver/Inc/stm32u5xx_ll_bus.h ****   *         AHB1SMENR   SRAM1SMEN      LL_AHB1_GRP1_EnableClockStopSleep\n
 538:Drivers/STM32U5xx_HAL_Driver/Inc/stm32u5xx_ll_bus.h ****   * @param  Periphs This parameter can be a combination of the following values:
 539:Drivers/STM32U5xx_HAL_Driver/Inc/stm32u5xx_ll_bus.h ****   *         @arg @ref LL_AHB1_GRP1_PERIPH_ALL
 540:Drivers/STM32U5xx_HAL_Driver/Inc/stm32u5xx_ll_bus.h ****   *         @arg @ref LL_AHB1_GRP1_PERIPH_GPDMA1
 541:Drivers/STM32U5xx_HAL_Driver/Inc/stm32u5xx_ll_bus.h ****   *         @arg @ref LL_AHB1_GRP1_PERIPH_CORDIC
 542:Drivers/STM32U5xx_HAL_Driver/Inc/stm32u5xx_ll_bus.h ****   *         @arg @ref LL_AHB1_GRP1_PERIPH_FMAC
 543:Drivers/STM32U5xx_HAL_Driver/Inc/stm32u5xx_ll_bus.h ****   *         @arg @ref LL_AHB1_GRP1_PERIPH_MDF1
 544:Drivers/STM32U5xx_HAL_Driver/Inc/stm32u5xx_ll_bus.h ****   *         @arg @ref LL_AHB1_GRP1_PERIPH_FLASH
 545:Drivers/STM32U5xx_HAL_Driver/Inc/stm32u5xx_ll_bus.h ****   *         @arg @ref LL_AHB1_GRP1_PERIPH_CRC
 546:Drivers/STM32U5xx_HAL_Driver/Inc/stm32u5xx_ll_bus.h ****   *         @arg @ref LL_AHB1_GRP1_PERIPH_TSC
 547:Drivers/STM32U5xx_HAL_Driver/Inc/stm32u5xx_ll_bus.h ****   *         @arg @ref LL_AHB1_GRP1_PERIPH_RAMCFG
 548:Drivers/STM32U5xx_HAL_Driver/Inc/stm32u5xx_ll_bus.h ****   *         @arg @ref LL_AHB1_GRP1_PERIPH_DMA2D
 549:Drivers/STM32U5xx_HAL_Driver/Inc/stm32u5xx_ll_bus.h ****   *         @arg @ref LL_AHB1_GRP1_PERIPH_GFXMMU (*)
 550:Drivers/STM32U5xx_HAL_Driver/Inc/stm32u5xx_ll_bus.h ****   *         @arg @ref LL_AHB1_GRP1_PERIPH_GPU2D (*)
 551:Drivers/STM32U5xx_HAL_Driver/Inc/stm32u5xx_ll_bus.h ****   *         @arg @ref LL_AHB1_GRP1_PERIPH_DCACHE2 (*)
 552:Drivers/STM32U5xx_HAL_Driver/Inc/stm32u5xx_ll_bus.h ****   *         @arg @ref LL_AHB1_GRP1_PERIPH_GTZC1
 553:Drivers/STM32U5xx_HAL_Driver/Inc/stm32u5xx_ll_bus.h ****   *         @arg @ref LL_AHB1_GRP1_PERIPH_BKPSRAM
 554:Drivers/STM32U5xx_HAL_Driver/Inc/stm32u5xx_ll_bus.h ****   *         @arg @ref LL_AHB1_GRP1_PERIPH_DCACHE1
 555:Drivers/STM32U5xx_HAL_Driver/Inc/stm32u5xx_ll_bus.h ****   *         @arg @ref LL_AHB1_GRP1_PERIPH_SRAM1
 556:Drivers/STM32U5xx_HAL_Driver/Inc/stm32u5xx_ll_bus.h ****   *
ARM GAS  C:\Users\Yamaan\AppData\Local\Temp\ccBR0E2V.s 			page 27


 557:Drivers/STM32U5xx_HAL_Driver/Inc/stm32u5xx_ll_bus.h ****   *        (*) value not defined in all devices.
 558:Drivers/STM32U5xx_HAL_Driver/Inc/stm32u5xx_ll_bus.h ****   * @retval None
 559:Drivers/STM32U5xx_HAL_Driver/Inc/stm32u5xx_ll_bus.h ****   */
 560:Drivers/STM32U5xx_HAL_Driver/Inc/stm32u5xx_ll_bus.h **** __STATIC_INLINE void LL_AHB1_GRP1_EnableClockStopSleep(uint32_t Periphs)
 561:Drivers/STM32U5xx_HAL_Driver/Inc/stm32u5xx_ll_bus.h **** {
 562:Drivers/STM32U5xx_HAL_Driver/Inc/stm32u5xx_ll_bus.h ****   __IO uint32_t tmpreg;
 563:Drivers/STM32U5xx_HAL_Driver/Inc/stm32u5xx_ll_bus.h ****   SET_BIT(RCC->AHB1SMENR, Periphs);
 564:Drivers/STM32U5xx_HAL_Driver/Inc/stm32u5xx_ll_bus.h ****   /* Delay after an RCC peripheral clock enabling */
 565:Drivers/STM32U5xx_HAL_Driver/Inc/stm32u5xx_ll_bus.h ****   tmpreg = READ_BIT(RCC->AHB1SMENR, Periphs);
 566:Drivers/STM32U5xx_HAL_Driver/Inc/stm32u5xx_ll_bus.h ****   (void)tmpreg;
 567:Drivers/STM32U5xx_HAL_Driver/Inc/stm32u5xx_ll_bus.h **** }
 568:Drivers/STM32U5xx_HAL_Driver/Inc/stm32u5xx_ll_bus.h **** 
 569:Drivers/STM32U5xx_HAL_Driver/Inc/stm32u5xx_ll_bus.h **** /**
 570:Drivers/STM32U5xx_HAL_Driver/Inc/stm32u5xx_ll_bus.h ****   * @brief  Check if AHB1 peripheral clocks in Sleep and Stop modes is enabled or not
 571:Drivers/STM32U5xx_HAL_Driver/Inc/stm32u5xx_ll_bus.h ****   * @rmtoll AHB1SMENR   GPDMA1SMEN     LL_AHB1_GRP1_IsEnabledClockStopSleep\n
 572:Drivers/STM32U5xx_HAL_Driver/Inc/stm32u5xx_ll_bus.h ****   *         AHB1SMENR   CORDICSMEN     LL_AHB1_GRP1_IsEnabledClockStopSleep\n
 573:Drivers/STM32U5xx_HAL_Driver/Inc/stm32u5xx_ll_bus.h ****   *         AHB1SMENR   FMACSMEN       LL_AHB1_GRP1_IsEnabledClockStopSleep\n
 574:Drivers/STM32U5xx_HAL_Driver/Inc/stm32u5xx_ll_bus.h ****   *         AHB1SMENR   MDF1SMEN       LL_AHB1_GRP1_IsEnabledClockStopSleep\n
 575:Drivers/STM32U5xx_HAL_Driver/Inc/stm32u5xx_ll_bus.h ****   *         AHB1SMENR   FLASHSMEN      LL_AHB1_GRP1_IsEnabledClockStopSleep\n
 576:Drivers/STM32U5xx_HAL_Driver/Inc/stm32u5xx_ll_bus.h ****   *         AHB1SMENR   CRCSMEN        LL_AHB1_GRP1_IsEnabledClockStopSleep\n
 577:Drivers/STM32U5xx_HAL_Driver/Inc/stm32u5xx_ll_bus.h ****   *         AHB1SMENR   TSCSMEN        LL_AHB1_GRP1_IsEnabledClockStopSleep\n
 578:Drivers/STM32U5xx_HAL_Driver/Inc/stm32u5xx_ll_bus.h ****   *         AHB1SMENR   RAMCFGSMEN     LL_AHB1_GRP1_IsEnabledClockStopSleep\n
 579:Drivers/STM32U5xx_HAL_Driver/Inc/stm32u5xx_ll_bus.h ****   *         AHB1SMENR   DMA2DSMEN      LL_AHB1_GRP1_IsEnabledClockStopSleep\n
 580:Drivers/STM32U5xx_HAL_Driver/Inc/stm32u5xx_ll_bus.h ****   *         AHB1SMENR   GFXMMUSMEN     LL_AHB1_GRP1_IsEnabledClockStopSleep\n
 581:Drivers/STM32U5xx_HAL_Driver/Inc/stm32u5xx_ll_bus.h ****   *         AHB1SMENR   GPU2DSMEN      LL_AHB1_GRP1_IsEnabledClockStopSleep\n
 582:Drivers/STM32U5xx_HAL_Driver/Inc/stm32u5xx_ll_bus.h ****   *         AHB1SMENR   DCACHE2SMEN    LL_AHB1_GRP1_IsEnabledClockStopSleep\n
 583:Drivers/STM32U5xx_HAL_Driver/Inc/stm32u5xx_ll_bus.h ****   *         AHB1SMENR   GTZC1SMEN      LL_AHB1_GRP1_IsEnabledClockStopSleep\n
 584:Drivers/STM32U5xx_HAL_Driver/Inc/stm32u5xx_ll_bus.h ****   *         AHB1SMENR   BKPSRAMSMEN    LL_AHB1_GRP1_IsEnabledClockStopSleep\n
 585:Drivers/STM32U5xx_HAL_Driver/Inc/stm32u5xx_ll_bus.h ****   *         AHB1SMENR   DCACHESMEN     LL_AHB1_GRP1_IsEnabledClockStopSleep\n
 586:Drivers/STM32U5xx_HAL_Driver/Inc/stm32u5xx_ll_bus.h ****   *         AHB1SMENR   SRAM1SMEN      LL_AHB1_GRP1_IsEnabledClockStopSleep\n
 587:Drivers/STM32U5xx_HAL_Driver/Inc/stm32u5xx_ll_bus.h ****   * @param  Periphs This parameter can be a combination of the following values:
 588:Drivers/STM32U5xx_HAL_Driver/Inc/stm32u5xx_ll_bus.h ****   *         @arg @ref LL_AHB1_GRP1_PERIPH_ALL
 589:Drivers/STM32U5xx_HAL_Driver/Inc/stm32u5xx_ll_bus.h ****   *         @arg @ref LL_AHB1_GRP1_PERIPH_GPDMA1
 590:Drivers/STM32U5xx_HAL_Driver/Inc/stm32u5xx_ll_bus.h ****   *         @arg @ref LL_AHB1_GRP1_PERIPH_CORDIC
 591:Drivers/STM32U5xx_HAL_Driver/Inc/stm32u5xx_ll_bus.h ****   *         @arg @ref LL_AHB1_GRP1_PERIPH_FMAC
 592:Drivers/STM32U5xx_HAL_Driver/Inc/stm32u5xx_ll_bus.h ****   *         @arg @ref LL_AHB1_GRP1_PERIPH_MDF1
 593:Drivers/STM32U5xx_HAL_Driver/Inc/stm32u5xx_ll_bus.h ****   *         @arg @ref LL_AHB1_GRP1_PERIPH_FLASH
 594:Drivers/STM32U5xx_HAL_Driver/Inc/stm32u5xx_ll_bus.h ****   *         @arg @ref LL_AHB1_GRP1_PERIPH_CRC
 595:Drivers/STM32U5xx_HAL_Driver/Inc/stm32u5xx_ll_bus.h ****   *         @arg @ref LL_AHB1_GRP1_PERIPH_TSC
 596:Drivers/STM32U5xx_HAL_Driver/Inc/stm32u5xx_ll_bus.h ****   *         @arg @ref LL_AHB1_GRP1_PERIPH_RAMCFG
 597:Drivers/STM32U5xx_HAL_Driver/Inc/stm32u5xx_ll_bus.h ****   *         @arg @ref LL_AHB1_GRP1_PERIPH_DMA2D
 598:Drivers/STM32U5xx_HAL_Driver/Inc/stm32u5xx_ll_bus.h ****   *         @arg @ref LL_AHB1_GRP1_PERIPH_GFXMMU (*)
 599:Drivers/STM32U5xx_HAL_Driver/Inc/stm32u5xx_ll_bus.h ****   *         @arg @ref LL_AHB1_GRP1_PERIPH_GPU2D (*)
 600:Drivers/STM32U5xx_HAL_Driver/Inc/stm32u5xx_ll_bus.h ****   *         @arg @ref LL_AHB1_GRP1_PERIPH_DCACHE2 (*)
 601:Drivers/STM32U5xx_HAL_Driver/Inc/stm32u5xx_ll_bus.h ****   *         @arg @ref LL_AHB1_GRP1_PERIPH_GTZC1
 602:Drivers/STM32U5xx_HAL_Driver/Inc/stm32u5xx_ll_bus.h ****   *         @arg @ref LL_AHB1_GRP1_PERIPH_BKPSRAM
 603:Drivers/STM32U5xx_HAL_Driver/Inc/stm32u5xx_ll_bus.h ****   *         @arg @ref LL_AHB1_GRP1_PERIPH_DCACHE1
 604:Drivers/STM32U5xx_HAL_Driver/Inc/stm32u5xx_ll_bus.h ****   *         @arg @ref LL_AHB1_GRP1_PERIPH_SRAM1
 605:Drivers/STM32U5xx_HAL_Driver/Inc/stm32u5xx_ll_bus.h ****   *
 606:Drivers/STM32U5xx_HAL_Driver/Inc/stm32u5xx_ll_bus.h ****   *        (*) value not defined in all devices.
 607:Drivers/STM32U5xx_HAL_Driver/Inc/stm32u5xx_ll_bus.h ****   * @retval State of Periphs (1 or 0).
 608:Drivers/STM32U5xx_HAL_Driver/Inc/stm32u5xx_ll_bus.h ****   */
 609:Drivers/STM32U5xx_HAL_Driver/Inc/stm32u5xx_ll_bus.h **** __STATIC_INLINE uint32_t LL_AHB1_GRP1_IsEnabledClockStopSleep(uint32_t Periphs)
 610:Drivers/STM32U5xx_HAL_Driver/Inc/stm32u5xx_ll_bus.h **** {
 611:Drivers/STM32U5xx_HAL_Driver/Inc/stm32u5xx_ll_bus.h ****   return ((READ_BIT(RCC->AHB1SMENR, Periphs) == Periphs) ? 1UL : 0UL);
 612:Drivers/STM32U5xx_HAL_Driver/Inc/stm32u5xx_ll_bus.h **** }
 613:Drivers/STM32U5xx_HAL_Driver/Inc/stm32u5xx_ll_bus.h **** 
ARM GAS  C:\Users\Yamaan\AppData\Local\Temp\ccBR0E2V.s 			page 28


 614:Drivers/STM32U5xx_HAL_Driver/Inc/stm32u5xx_ll_bus.h **** /**
 615:Drivers/STM32U5xx_HAL_Driver/Inc/stm32u5xx_ll_bus.h ****   * @brief  Disable AHB1 peripheral clocks in Sleep and Stop modes
 616:Drivers/STM32U5xx_HAL_Driver/Inc/stm32u5xx_ll_bus.h ****   * @rmtoll AHB1SMENR   GPDMA1SMEN     LL_AHB1_GRP1_DisableClockStopSleep\n
 617:Drivers/STM32U5xx_HAL_Driver/Inc/stm32u5xx_ll_bus.h ****   *         AHB1SMENR   CORDICSMEN     LL_AHB1_GRP1_DisableClockStopSleep\n
 618:Drivers/STM32U5xx_HAL_Driver/Inc/stm32u5xx_ll_bus.h ****   *         AHB1SMENR   FMACSMEN       LL_AHB1_GRP1_DisableClockStopSleep\n
 619:Drivers/STM32U5xx_HAL_Driver/Inc/stm32u5xx_ll_bus.h ****   *         AHB1SMENR   MDF1SMEN       LL_AHB1_GRP1_DisableClockStopSleep\n
 620:Drivers/STM32U5xx_HAL_Driver/Inc/stm32u5xx_ll_bus.h ****   *         AHB1SMENR   FLASHSMEN      LL_AHB1_GRP1_DisableClockStopSleep\n
 621:Drivers/STM32U5xx_HAL_Driver/Inc/stm32u5xx_ll_bus.h ****   *         AHB1SMENR   CRCSMEN        LL_AHB1_GRP1_DisableClockStopSleep\n
 622:Drivers/STM32U5xx_HAL_Driver/Inc/stm32u5xx_ll_bus.h ****   *         AHB1SMENR   TSCSMEN        LL_AHB1_GRP1_DisableClockStopSleep\n
 623:Drivers/STM32U5xx_HAL_Driver/Inc/stm32u5xx_ll_bus.h ****   *         AHB1SMENR   RAMCFGSMEN     LL_AHB1_GRP1_DisableClockStopSleep\n
 624:Drivers/STM32U5xx_HAL_Driver/Inc/stm32u5xx_ll_bus.h ****   *         AHB1SMENR   DMA2DSMEN      LL_AHB1_GRP1_DisableClockStopSleep\n
 625:Drivers/STM32U5xx_HAL_Driver/Inc/stm32u5xx_ll_bus.h ****   *         AHB1SMENR   GFXMMUSMEN     LL_AHB1_GRP1_DisableClockStopSleep\n
 626:Drivers/STM32U5xx_HAL_Driver/Inc/stm32u5xx_ll_bus.h ****   *         AHB1SMENR   GPU2DSMEN      LL_AHB1_GRP1_DisableClockStopSleep\n
 627:Drivers/STM32U5xx_HAL_Driver/Inc/stm32u5xx_ll_bus.h ****   *         AHB1SMENR   DCACHE2SMEN    LL_AHB1_GRP1_DisableClockStopSleep\n
 628:Drivers/STM32U5xx_HAL_Driver/Inc/stm32u5xx_ll_bus.h ****   *         AHB1SMENR   GTZC1SMEN      LL_AHB1_GRP1_DisableClockStopSleep\n
 629:Drivers/STM32U5xx_HAL_Driver/Inc/stm32u5xx_ll_bus.h ****   *         AHB1SMENR   BKPSRAMSMEN    LL_AHB1_GRP1_DisableClockStopSleep\n
 630:Drivers/STM32U5xx_HAL_Driver/Inc/stm32u5xx_ll_bus.h ****   *         AHB1SMENR   DCACHESMEN     LL_AHB1_GRP1_DisableClockStopSleep\n
 631:Drivers/STM32U5xx_HAL_Driver/Inc/stm32u5xx_ll_bus.h ****   *         AHB1SMENR   SRAM1SMEN      LL_AHB1_GRP1_DisableClockStopSleep\n
 632:Drivers/STM32U5xx_HAL_Driver/Inc/stm32u5xx_ll_bus.h ****   * @param  Periphs This parameter can be a combination of the following values:
 633:Drivers/STM32U5xx_HAL_Driver/Inc/stm32u5xx_ll_bus.h ****   *         @arg @ref LL_AHB1_GRP1_PERIPH_ALL
 634:Drivers/STM32U5xx_HAL_Driver/Inc/stm32u5xx_ll_bus.h ****   *         @arg @ref LL_AHB1_GRP1_PERIPH_GPDMA1
 635:Drivers/STM32U5xx_HAL_Driver/Inc/stm32u5xx_ll_bus.h ****   *         @arg @ref LL_AHB1_GRP1_PERIPH_CORDIC
 636:Drivers/STM32U5xx_HAL_Driver/Inc/stm32u5xx_ll_bus.h ****   *         @arg @ref LL_AHB1_GRP1_PERIPH_FMAC
 637:Drivers/STM32U5xx_HAL_Driver/Inc/stm32u5xx_ll_bus.h ****   *         @arg @ref LL_AHB1_GRP1_PERIPH_MDF1
 638:Drivers/STM32U5xx_HAL_Driver/Inc/stm32u5xx_ll_bus.h ****   *         @arg @ref LL_AHB1_GRP1_PERIPH_FLASH
 639:Drivers/STM32U5xx_HAL_Driver/Inc/stm32u5xx_ll_bus.h ****   *         @arg @ref LL_AHB1_GRP1_PERIPH_CRC
 640:Drivers/STM32U5xx_HAL_Driver/Inc/stm32u5xx_ll_bus.h ****   *         @arg @ref LL_AHB1_GRP1_PERIPH_TSC
 641:Drivers/STM32U5xx_HAL_Driver/Inc/stm32u5xx_ll_bus.h ****   *         @arg @ref LL_AHB1_GRP1_PERIPH_RAMCFG
 642:Drivers/STM32U5xx_HAL_Driver/Inc/stm32u5xx_ll_bus.h ****   *         @arg @ref LL_AHB1_GRP1_PERIPH_DMA2D
 643:Drivers/STM32U5xx_HAL_Driver/Inc/stm32u5xx_ll_bus.h ****   *         @arg @ref LL_AHB1_GRP1_PERIPH_GFXMMU (*)
 644:Drivers/STM32U5xx_HAL_Driver/Inc/stm32u5xx_ll_bus.h ****   *         @arg @ref LL_AHB1_GRP1_PERIPH_GPU2D (*)
 645:Drivers/STM32U5xx_HAL_Driver/Inc/stm32u5xx_ll_bus.h ****   *         @arg @ref LL_AHB1_GRP1_PERIPH_DCACHE2 (*)
 646:Drivers/STM32U5xx_HAL_Driver/Inc/stm32u5xx_ll_bus.h ****   *         @arg @ref LL_AHB1_GRP1_PERIPH_GTZC1
 647:Drivers/STM32U5xx_HAL_Driver/Inc/stm32u5xx_ll_bus.h ****   *         @arg @ref LL_AHB1_GRP1_PERIPH_BKPSRAM
 648:Drivers/STM32U5xx_HAL_Driver/Inc/stm32u5xx_ll_bus.h ****   *         @arg @ref LL_AHB1_GRP1_PERIPH_DCACHE1
 649:Drivers/STM32U5xx_HAL_Driver/Inc/stm32u5xx_ll_bus.h ****   *         @arg @ref LL_AHB1_GRP1_PERIPH_SRAM1
 650:Drivers/STM32U5xx_HAL_Driver/Inc/stm32u5xx_ll_bus.h ****   *
 651:Drivers/STM32U5xx_HAL_Driver/Inc/stm32u5xx_ll_bus.h ****   *        (*) value not defined in all devices.
 652:Drivers/STM32U5xx_HAL_Driver/Inc/stm32u5xx_ll_bus.h ****   * @retval None
 653:Drivers/STM32U5xx_HAL_Driver/Inc/stm32u5xx_ll_bus.h ****   */
 654:Drivers/STM32U5xx_HAL_Driver/Inc/stm32u5xx_ll_bus.h **** __STATIC_INLINE void LL_AHB1_GRP1_DisableClockStopSleep(uint32_t Periphs)
 655:Drivers/STM32U5xx_HAL_Driver/Inc/stm32u5xx_ll_bus.h **** {
 656:Drivers/STM32U5xx_HAL_Driver/Inc/stm32u5xx_ll_bus.h ****   CLEAR_BIT(RCC->AHB1SMENR, Periphs);
 657:Drivers/STM32U5xx_HAL_Driver/Inc/stm32u5xx_ll_bus.h **** }
 658:Drivers/STM32U5xx_HAL_Driver/Inc/stm32u5xx_ll_bus.h **** 
 659:Drivers/STM32U5xx_HAL_Driver/Inc/stm32u5xx_ll_bus.h **** /**
 660:Drivers/STM32U5xx_HAL_Driver/Inc/stm32u5xx_ll_bus.h ****   * @}
 661:Drivers/STM32U5xx_HAL_Driver/Inc/stm32u5xx_ll_bus.h ****   */
 662:Drivers/STM32U5xx_HAL_Driver/Inc/stm32u5xx_ll_bus.h **** 
 663:Drivers/STM32U5xx_HAL_Driver/Inc/stm32u5xx_ll_bus.h **** /** @defgroup BUS_LL_EF_AHB2_GRP1_PERIPH AHB2 GRP1 PERIPH
 664:Drivers/STM32U5xx_HAL_Driver/Inc/stm32u5xx_ll_bus.h ****   * @{
 665:Drivers/STM32U5xx_HAL_Driver/Inc/stm32u5xx_ll_bus.h ****   */
 666:Drivers/STM32U5xx_HAL_Driver/Inc/stm32u5xx_ll_bus.h **** /**
 667:Drivers/STM32U5xx_HAL_Driver/Inc/stm32u5xx_ll_bus.h ****   * @brief  Enable AHB2 peripherals clock.
 668:Drivers/STM32U5xx_HAL_Driver/Inc/stm32u5xx_ll_bus.h ****   * @rmtoll AHB2ENR1      GPIOAEN       LL_AHB2_GRP1_EnableClock\n
 669:Drivers/STM32U5xx_HAL_Driver/Inc/stm32u5xx_ll_bus.h ****   *         AHB2ENR1      GPIOBEN       LL_AHB2_GRP1_EnableClock\n
 670:Drivers/STM32U5xx_HAL_Driver/Inc/stm32u5xx_ll_bus.h ****   *         AHB2ENR1      GPIOCEN       LL_AHB2_GRP1_EnableClock\n
ARM GAS  C:\Users\Yamaan\AppData\Local\Temp\ccBR0E2V.s 			page 29


 671:Drivers/STM32U5xx_HAL_Driver/Inc/stm32u5xx_ll_bus.h ****   *         AHB2ENR1      GPIODEN       LL_AHB2_GRP1_EnableClock\n
 672:Drivers/STM32U5xx_HAL_Driver/Inc/stm32u5xx_ll_bus.h ****   *         AHB2ENR1      GPIOEEN       LL_AHB2_GRP1_EnableClock\n
 673:Drivers/STM32U5xx_HAL_Driver/Inc/stm32u5xx_ll_bus.h ****   *         AHB2ENR1      GPIOFEN       LL_AHB2_GRP1_EnableClock\n
 674:Drivers/STM32U5xx_HAL_Driver/Inc/stm32u5xx_ll_bus.h ****   *         AHB2ENR1      GPIOGEN       LL_AHB2_GRP1_EnableClock\n
 675:Drivers/STM32U5xx_HAL_Driver/Inc/stm32u5xx_ll_bus.h ****   *         AHB2ENR1      GPIOHEN       LL_AHB2_GRP1_EnableClock\n
 676:Drivers/STM32U5xx_HAL_Driver/Inc/stm32u5xx_ll_bus.h ****   *         AHB2ENR1      GPIOIEN       LL_AHB2_GRP1_EnableClock\n
 677:Drivers/STM32U5xx_HAL_Driver/Inc/stm32u5xx_ll_bus.h ****   *         AHB2ENR1      GPIOJEN       LL_AHB2_GRP1_EnableClock\n
 678:Drivers/STM32U5xx_HAL_Driver/Inc/stm32u5xx_ll_bus.h ****   *         AHB2ENR1      ADC12EN       LL_AHB2_GRP1_EnableClock\n
 679:Drivers/STM32U5xx_HAL_Driver/Inc/stm32u5xx_ll_bus.h ****   *         AHB2ENR1      DCMI_PSSIEN   LL_AHB2_GRP1_EnableClock\n
 680:Drivers/STM32U5xx_HAL_Driver/Inc/stm32u5xx_ll_bus.h ****   *         AHB2ENR1      OTGEN         LL_AHB2_GRP1_EnableClock\n
 681:Drivers/STM32U5xx_HAL_Driver/Inc/stm32u5xx_ll_bus.h ****   *         AHB2ENR1      USBPHYCEN     LL_AHB2_GRP1_EnableClock\n
 682:Drivers/STM32U5xx_HAL_Driver/Inc/stm32u5xx_ll_bus.h ****   *         AHB2ENR1      AESEN         LL_AHB2_GRP1_EnableClock\n
 683:Drivers/STM32U5xx_HAL_Driver/Inc/stm32u5xx_ll_bus.h ****   *         AHB2ENR1      HASHEN        LL_AHB2_GRP1_EnableClock\n
 684:Drivers/STM32U5xx_HAL_Driver/Inc/stm32u5xx_ll_bus.h ****   *         AHB2ENR1      RNGEN         LL_AHB2_GRP1_EnableClock\n
 685:Drivers/STM32U5xx_HAL_Driver/Inc/stm32u5xx_ll_bus.h ****   *         AHB2ENR1      PKAEN         LL_AHB2_GRP1_EnableClock\n
 686:Drivers/STM32U5xx_HAL_Driver/Inc/stm32u5xx_ll_bus.h ****   *         AHB2ENR1      SAESEN        LL_AHB2_GRP1_EnableClock\n
 687:Drivers/STM32U5xx_HAL_Driver/Inc/stm32u5xx_ll_bus.h ****   *         AHB2ENR1      OCTOSPIMEN    LL_AHB2_GRP1_EnableClock\n
 688:Drivers/STM32U5xx_HAL_Driver/Inc/stm32u5xx_ll_bus.h ****   *         AHB2ENR1      OTFDEC1EN     LL_AHB2_GRP1_EnableClock\n
 689:Drivers/STM32U5xx_HAL_Driver/Inc/stm32u5xx_ll_bus.h ****   *         AHB2ENR1      OTFDEC2EN     LL_AHB2_GRP1_EnableClock\n
 690:Drivers/STM32U5xx_HAL_Driver/Inc/stm32u5xx_ll_bus.h ****   *         AHB2ENR1      SDMMC1EN      LL_AHB2_GRP1_EnableClock\n
 691:Drivers/STM32U5xx_HAL_Driver/Inc/stm32u5xx_ll_bus.h ****   *         AHB2ENR1      SDMMC2EN      LL_AHB2_GRP1_EnableClock\n
 692:Drivers/STM32U5xx_HAL_Driver/Inc/stm32u5xx_ll_bus.h ****   *         AHB2ENR1      SRAM2EN       LL_AHB2_GRP1_EnableClock\n
 693:Drivers/STM32U5xx_HAL_Driver/Inc/stm32u5xx_ll_bus.h ****   *         AHB2ENR1      SRAM3EN       LL_AHB2_GRP1_EnableClock\n
 694:Drivers/STM32U5xx_HAL_Driver/Inc/stm32u5xx_ll_bus.h ****   * @param  Periphs This parameter can be a combination of the following values:
 695:Drivers/STM32U5xx_HAL_Driver/Inc/stm32u5xx_ll_bus.h ****   *         @arg @ref LL_AHB2_GRP1_PERIPH_ALL
 696:Drivers/STM32U5xx_HAL_Driver/Inc/stm32u5xx_ll_bus.h ****   *         @arg @ref LL_AHB2_GRP1_PERIPH_GPIOA
 697:Drivers/STM32U5xx_HAL_Driver/Inc/stm32u5xx_ll_bus.h ****   *         @arg @ref LL_AHB2_GRP1_PERIPH_GPIOB
 698:Drivers/STM32U5xx_HAL_Driver/Inc/stm32u5xx_ll_bus.h ****   *         @arg @ref LL_AHB2_GRP1_PERIPH_GPIOC
 699:Drivers/STM32U5xx_HAL_Driver/Inc/stm32u5xx_ll_bus.h ****   *         @arg @ref LL_AHB2_GRP1_PERIPH_GPIOD
 700:Drivers/STM32U5xx_HAL_Driver/Inc/stm32u5xx_ll_bus.h ****   *         @arg @ref LL_AHB2_GRP1_PERIPH_GPIOE
 701:Drivers/STM32U5xx_HAL_Driver/Inc/stm32u5xx_ll_bus.h ****   *         @arg @ref LL_AHB2_GRP1_PERIPH_GPIOF
 702:Drivers/STM32U5xx_HAL_Driver/Inc/stm32u5xx_ll_bus.h ****   *         @arg @ref LL_AHB2_GRP1_PERIPH_GPIOG
 703:Drivers/STM32U5xx_HAL_Driver/Inc/stm32u5xx_ll_bus.h ****   *         @arg @ref LL_AHB2_GRP1_PERIPH_GPIOH
 704:Drivers/STM32U5xx_HAL_Driver/Inc/stm32u5xx_ll_bus.h ****   *         @arg @ref LL_AHB2_GRP1_PERIPH_GPIOI
 705:Drivers/STM32U5xx_HAL_Driver/Inc/stm32u5xx_ll_bus.h ****   *         @arg @ref LL_AHB2_GRP1_PERIPH_GPIOJ (*)
 706:Drivers/STM32U5xx_HAL_Driver/Inc/stm32u5xx_ll_bus.h ****   *         @arg @ref LL_AHB2_GRP1_PERIPH_ADC12
 707:Drivers/STM32U5xx_HAL_Driver/Inc/stm32u5xx_ll_bus.h ****   *         @arg @ref LL_AHB2_GRP1_PERIPH_DCMI_PSSI
 708:Drivers/STM32U5xx_HAL_Driver/Inc/stm32u5xx_ll_bus.h ****   *         @arg @ref LL_AHB2_GRP1_PERIPH_USBFS (*)
 709:Drivers/STM32U5xx_HAL_Driver/Inc/stm32u5xx_ll_bus.h ****   *         @arg @ref LL_AHB2_GRP1_PERIPH_USBHS (*)
 710:Drivers/STM32U5xx_HAL_Driver/Inc/stm32u5xx_ll_bus.h ****   *         @arg @ref LL_AHB2_GRP1_PERIPH_USBPHY (*)
 711:Drivers/STM32U5xx_HAL_Driver/Inc/stm32u5xx_ll_bus.h ****   *         @arg @ref LL_AHB2_GRP1_PERIPH_AES
 712:Drivers/STM32U5xx_HAL_Driver/Inc/stm32u5xx_ll_bus.h ****   *         @arg @ref LL_AHB2_GRP1_PERIPH_HASH
 713:Drivers/STM32U5xx_HAL_Driver/Inc/stm32u5xx_ll_bus.h ****   *         @arg @ref LL_AHB2_GRP1_PERIPH_RNG
 714:Drivers/STM32U5xx_HAL_Driver/Inc/stm32u5xx_ll_bus.h ****   *         @arg @ref LL_AHB2_GRP1_PERIPH_PKA
 715:Drivers/STM32U5xx_HAL_Driver/Inc/stm32u5xx_ll_bus.h ****   *         @arg @ref LL_AHB2_GRP1_PERIPH_SAES
 716:Drivers/STM32U5xx_HAL_Driver/Inc/stm32u5xx_ll_bus.h ****   *         @arg @ref LL_AHB2_GRP1_PERIPH_OCTOSPIM
 717:Drivers/STM32U5xx_HAL_Driver/Inc/stm32u5xx_ll_bus.h ****   *         @arg @ref LL_AHB2_GRP1_PERIPH_OTFDEC1
 718:Drivers/STM32U5xx_HAL_Driver/Inc/stm32u5xx_ll_bus.h ****   *         @arg @ref LL_AHB2_GRP1_PERIPH_OTFDEC2
 719:Drivers/STM32U5xx_HAL_Driver/Inc/stm32u5xx_ll_bus.h ****   *         @arg @ref LL_AHB2_GRP1_PERIPH_SDMMC1
 720:Drivers/STM32U5xx_HAL_Driver/Inc/stm32u5xx_ll_bus.h ****   *         @arg @ref LL_AHB2_GRP1_PERIPH_SDMMC2
 721:Drivers/STM32U5xx_HAL_Driver/Inc/stm32u5xx_ll_bus.h ****   *         @arg @ref LL_AHB2_GRP1_PERIPH_SRAM2
 722:Drivers/STM32U5xx_HAL_Driver/Inc/stm32u5xx_ll_bus.h ****   *         @arg @ref LL_AHB2_GRP1_PERIPH_SRAM3
 723:Drivers/STM32U5xx_HAL_Driver/Inc/stm32u5xx_ll_bus.h ****   *
 724:Drivers/STM32U5xx_HAL_Driver/Inc/stm32u5xx_ll_bus.h ****   *        (*) value not defined in all devices.
 725:Drivers/STM32U5xx_HAL_Driver/Inc/stm32u5xx_ll_bus.h ****   * @retval None
 726:Drivers/STM32U5xx_HAL_Driver/Inc/stm32u5xx_ll_bus.h ****   */
 727:Drivers/STM32U5xx_HAL_Driver/Inc/stm32u5xx_ll_bus.h **** __STATIC_INLINE void LL_AHB2_GRP1_EnableClock(uint32_t Periphs)
ARM GAS  C:\Users\Yamaan\AppData\Local\Temp\ccBR0E2V.s 			page 30


 728:Drivers/STM32U5xx_HAL_Driver/Inc/stm32u5xx_ll_bus.h **** {
 729:Drivers/STM32U5xx_HAL_Driver/Inc/stm32u5xx_ll_bus.h ****   __IO uint32_t tmpreg;
 730:Drivers/STM32U5xx_HAL_Driver/Inc/stm32u5xx_ll_bus.h ****   SET_BIT(RCC->AHB2ENR1, Periphs);
 731:Drivers/STM32U5xx_HAL_Driver/Inc/stm32u5xx_ll_bus.h ****   /* Delay after an RCC peripheral clock enabling */
 732:Drivers/STM32U5xx_HAL_Driver/Inc/stm32u5xx_ll_bus.h ****   tmpreg = READ_BIT(RCC->AHB2ENR1, Periphs);
 733:Drivers/STM32U5xx_HAL_Driver/Inc/stm32u5xx_ll_bus.h ****   (void)tmpreg;
 734:Drivers/STM32U5xx_HAL_Driver/Inc/stm32u5xx_ll_bus.h **** }
 735:Drivers/STM32U5xx_HAL_Driver/Inc/stm32u5xx_ll_bus.h **** 
 736:Drivers/STM32U5xx_HAL_Driver/Inc/stm32u5xx_ll_bus.h **** /**
 737:Drivers/STM32U5xx_HAL_Driver/Inc/stm32u5xx_ll_bus.h ****   * @brief  Check if AHB2 peripheral clock is enabled or not
 738:Drivers/STM32U5xx_HAL_Driver/Inc/stm32u5xx_ll_bus.h ****   * @rmtoll AHB2ENR1      GPIOAEN       LL_AHB2_GRP1_IsEnabledClock\n
 739:Drivers/STM32U5xx_HAL_Driver/Inc/stm32u5xx_ll_bus.h ****   *         AHB2ENR1      GPIOBEN       LL_AHB2_GRP1_IsEnabledClock\n
 740:Drivers/STM32U5xx_HAL_Driver/Inc/stm32u5xx_ll_bus.h ****   *         AHB2ENR1      GPIOCEN       LL_AHB2_GRP1_IsEnabledClock\n
 741:Drivers/STM32U5xx_HAL_Driver/Inc/stm32u5xx_ll_bus.h ****   *         AHB2ENR1      GPIODEN       LL_AHB2_GRP1_IsEnabledClock\n
 742:Drivers/STM32U5xx_HAL_Driver/Inc/stm32u5xx_ll_bus.h ****   *         AHB2ENR1      GPIOEEN       LL_AHB2_GRP1_IsEnabledClock\n
 743:Drivers/STM32U5xx_HAL_Driver/Inc/stm32u5xx_ll_bus.h ****   *         AHB2ENR1      GPIOFEN       LL_AHB2_GRP1_IsEnabledClock\n
 744:Drivers/STM32U5xx_HAL_Driver/Inc/stm32u5xx_ll_bus.h ****   *         AHB2ENR1      GPIOGEN       LL_AHB2_GRP1_IsEnabledClock\n
 745:Drivers/STM32U5xx_HAL_Driver/Inc/stm32u5xx_ll_bus.h ****   *         AHB2ENR1      GPIOHEN       LL_AHB2_GRP1_IsEnabledClock\n
 746:Drivers/STM32U5xx_HAL_Driver/Inc/stm32u5xx_ll_bus.h ****   *         AHB2ENR1      GPIOIEN       LL_AHB2_GRP1_IsEnabledClock\n
 747:Drivers/STM32U5xx_HAL_Driver/Inc/stm32u5xx_ll_bus.h ****   *         AHB2ENR1      GPIOJEN       LL_AHB2_GRP1_IsEnabledClock\n
 748:Drivers/STM32U5xx_HAL_Driver/Inc/stm32u5xx_ll_bus.h ****   *         AHB2ENR1      ADC12EN       LL_AHB2_GRP1_IsEnabledClock\n
 749:Drivers/STM32U5xx_HAL_Driver/Inc/stm32u5xx_ll_bus.h ****   *         AHB2ENR1      DCMI_PSSIEN   LL_AHB2_GRP1_IsEnabledClock\n
 750:Drivers/STM32U5xx_HAL_Driver/Inc/stm32u5xx_ll_bus.h ****   *         AHB2ENR1      OTGEN         LL_AHB2_GRP1_IsEnabledClock\n
 751:Drivers/STM32U5xx_HAL_Driver/Inc/stm32u5xx_ll_bus.h ****   *         AHB2ENR1      USBPHYCEN     LL_AHB2_GRP1_IsEnabledClock\n
 752:Drivers/STM32U5xx_HAL_Driver/Inc/stm32u5xx_ll_bus.h ****   *         AHB2ENR1      AESEN         LL_AHB2_GRP1_IsEnabledClock\n
 753:Drivers/STM32U5xx_HAL_Driver/Inc/stm32u5xx_ll_bus.h ****   *         AHB2ENR1      HASHEN        LL_AHB2_GRP1_IsEnabledClock\n
 754:Drivers/STM32U5xx_HAL_Driver/Inc/stm32u5xx_ll_bus.h ****   *         AHB2ENR1      RNGEN         LL_AHB2_GRP1_IsEnabledClock\n
 755:Drivers/STM32U5xx_HAL_Driver/Inc/stm32u5xx_ll_bus.h ****   *         AHB2ENR1      PKAEN         LL_AHB2_GRP1_IsEnabledClock\n
 756:Drivers/STM32U5xx_HAL_Driver/Inc/stm32u5xx_ll_bus.h ****   *         AHB2ENR1      SAESEN        LL_AHB2_GRP1_IsEnabledClock\n
 757:Drivers/STM32U5xx_HAL_Driver/Inc/stm32u5xx_ll_bus.h ****   *         AHB2ENR1      OCTOSPIMEN    LL_AHB2_GRP1_IsEnabledClock\n
 758:Drivers/STM32U5xx_HAL_Driver/Inc/stm32u5xx_ll_bus.h ****   *         AHB2ENR1      OTFDEC1EN     LL_AHB2_GRP1_IsEnabledClock\n
 759:Drivers/STM32U5xx_HAL_Driver/Inc/stm32u5xx_ll_bus.h ****   *         AHB2ENR1      OTFDEC2EN     LL_AHB2_GRP1_IsEnabledClock\n
 760:Drivers/STM32U5xx_HAL_Driver/Inc/stm32u5xx_ll_bus.h ****   *         AHB2ENR1      SDMMC1EN      LL_AHB2_GRP1_IsEnabledClock\n
 761:Drivers/STM32U5xx_HAL_Driver/Inc/stm32u5xx_ll_bus.h ****   *         AHB2ENR1      SDMMC2EN      LL_AHB2_GRP1_IsEnabledClock\n
 762:Drivers/STM32U5xx_HAL_Driver/Inc/stm32u5xx_ll_bus.h ****   *         AHB2ENR1      SRAM2EN       LL_AHB2_GRP1_IsEnabledClock\n
 763:Drivers/STM32U5xx_HAL_Driver/Inc/stm32u5xx_ll_bus.h ****   *         AHB2ENR1      SRAM3EN       LL_AHB2_GRP1_IsEnabledClock\n
 764:Drivers/STM32U5xx_HAL_Driver/Inc/stm32u5xx_ll_bus.h ****   * @param  Periphs This parameter can be a combination of the following values:
 765:Drivers/STM32U5xx_HAL_Driver/Inc/stm32u5xx_ll_bus.h ****   *         @arg @ref LL_AHB2_GRP1_PERIPH_ALL
 766:Drivers/STM32U5xx_HAL_Driver/Inc/stm32u5xx_ll_bus.h ****   *         @arg @ref LL_AHB2_GRP1_PERIPH_GPIOA
 767:Drivers/STM32U5xx_HAL_Driver/Inc/stm32u5xx_ll_bus.h ****   *         @arg @ref LL_AHB2_GRP1_PERIPH_GPIOB
 768:Drivers/STM32U5xx_HAL_Driver/Inc/stm32u5xx_ll_bus.h ****   *         @arg @ref LL_AHB2_GRP1_PERIPH_GPIOC
 769:Drivers/STM32U5xx_HAL_Driver/Inc/stm32u5xx_ll_bus.h ****   *         @arg @ref LL_AHB2_GRP1_PERIPH_GPIOD
 770:Drivers/STM32U5xx_HAL_Driver/Inc/stm32u5xx_ll_bus.h ****   *         @arg @ref LL_AHB2_GRP1_PERIPH_GPIOE
 771:Drivers/STM32U5xx_HAL_Driver/Inc/stm32u5xx_ll_bus.h ****   *         @arg @ref LL_AHB2_GRP1_PERIPH_GPIOF
 772:Drivers/STM32U5xx_HAL_Driver/Inc/stm32u5xx_ll_bus.h ****   *         @arg @ref LL_AHB2_GRP1_PERIPH_GPIOG
 773:Drivers/STM32U5xx_HAL_Driver/Inc/stm32u5xx_ll_bus.h ****   *         @arg @ref LL_AHB2_GRP1_PERIPH_GPIOH
 774:Drivers/STM32U5xx_HAL_Driver/Inc/stm32u5xx_ll_bus.h ****   *         @arg @ref LL_AHB2_GRP1_PERIPH_GPIOI
 775:Drivers/STM32U5xx_HAL_Driver/Inc/stm32u5xx_ll_bus.h ****   *         @arg @ref LL_AHB2_GRP1_PERIPH_GPIOJ (*)
 776:Drivers/STM32U5xx_HAL_Driver/Inc/stm32u5xx_ll_bus.h ****   *         @arg @ref LL_AHB2_GRP1_PERIPH_ADC12
 777:Drivers/STM32U5xx_HAL_Driver/Inc/stm32u5xx_ll_bus.h ****   *         @arg @ref LL_AHB2_GRP1_PERIPH_DCMI_PSSI
 778:Drivers/STM32U5xx_HAL_Driver/Inc/stm32u5xx_ll_bus.h ****   *         @arg @ref LL_AHB2_GRP1_PERIPH_USBFS (*)
 779:Drivers/STM32U5xx_HAL_Driver/Inc/stm32u5xx_ll_bus.h ****   *         @arg @ref LL_AHB2_GRP1_PERIPH_USBHS (*)
 780:Drivers/STM32U5xx_HAL_Driver/Inc/stm32u5xx_ll_bus.h ****   *         @arg @ref LL_AHB2_GRP1_PERIPH_USBPHY (*)
 781:Drivers/STM32U5xx_HAL_Driver/Inc/stm32u5xx_ll_bus.h ****   *         @arg @ref LL_AHB2_GRP1_PERIPH_AES
 782:Drivers/STM32U5xx_HAL_Driver/Inc/stm32u5xx_ll_bus.h ****   *         @arg @ref LL_AHB2_GRP1_PERIPH_HASH
 783:Drivers/STM32U5xx_HAL_Driver/Inc/stm32u5xx_ll_bus.h ****   *         @arg @ref LL_AHB2_GRP1_PERIPH_RNG
 784:Drivers/STM32U5xx_HAL_Driver/Inc/stm32u5xx_ll_bus.h ****   *         @arg @ref LL_AHB2_GRP1_PERIPH_PKA
ARM GAS  C:\Users\Yamaan\AppData\Local\Temp\ccBR0E2V.s 			page 31


 785:Drivers/STM32U5xx_HAL_Driver/Inc/stm32u5xx_ll_bus.h ****   *         @arg @ref LL_AHB2_GRP1_PERIPH_SAES
 786:Drivers/STM32U5xx_HAL_Driver/Inc/stm32u5xx_ll_bus.h ****   *         @arg @ref LL_AHB2_GRP1_PERIPH_OCTOSPIM
 787:Drivers/STM32U5xx_HAL_Driver/Inc/stm32u5xx_ll_bus.h ****   *         @arg @ref LL_AHB2_GRP1_PERIPH_OTFDEC1
 788:Drivers/STM32U5xx_HAL_Driver/Inc/stm32u5xx_ll_bus.h ****   *         @arg @ref LL_AHB2_GRP1_PERIPH_OTFDEC2
 789:Drivers/STM32U5xx_HAL_Driver/Inc/stm32u5xx_ll_bus.h ****   *         @arg @ref LL_AHB2_GRP1_PERIPH_SDMMC1
 790:Drivers/STM32U5xx_HAL_Driver/Inc/stm32u5xx_ll_bus.h ****   *         @arg @ref LL_AHB2_GRP1_PERIPH_SDMMC2
 791:Drivers/STM32U5xx_HAL_Driver/Inc/stm32u5xx_ll_bus.h ****   *         @arg @ref LL_AHB2_GRP1_PERIPH_SRAM2
 792:Drivers/STM32U5xx_HAL_Driver/Inc/stm32u5xx_ll_bus.h ****   *         @arg @ref LL_AHB2_GRP1_PERIPH_SRAM3
 793:Drivers/STM32U5xx_HAL_Driver/Inc/stm32u5xx_ll_bus.h ****   *
 794:Drivers/STM32U5xx_HAL_Driver/Inc/stm32u5xx_ll_bus.h ****   *        (*) value not defined in all devices.
 795:Drivers/STM32U5xx_HAL_Driver/Inc/stm32u5xx_ll_bus.h ****   * @retval State of Periphs (1 or 0).
 796:Drivers/STM32U5xx_HAL_Driver/Inc/stm32u5xx_ll_bus.h ****   */
 797:Drivers/STM32U5xx_HAL_Driver/Inc/stm32u5xx_ll_bus.h **** __STATIC_INLINE uint32_t LL_AHB2_GRP1_IsEnabledClock(uint32_t Periphs)
 798:Drivers/STM32U5xx_HAL_Driver/Inc/stm32u5xx_ll_bus.h **** {
 799:Drivers/STM32U5xx_HAL_Driver/Inc/stm32u5xx_ll_bus.h ****   return ((READ_BIT(RCC->AHB2ENR1, Periphs) == Periphs) ? 1UL : 0UL);
 800:Drivers/STM32U5xx_HAL_Driver/Inc/stm32u5xx_ll_bus.h **** }
 801:Drivers/STM32U5xx_HAL_Driver/Inc/stm32u5xx_ll_bus.h **** 
 802:Drivers/STM32U5xx_HAL_Driver/Inc/stm32u5xx_ll_bus.h **** /**
 803:Drivers/STM32U5xx_HAL_Driver/Inc/stm32u5xx_ll_bus.h ****   * @brief  Disable AHB2 peripherals clock.
 804:Drivers/STM32U5xx_HAL_Driver/Inc/stm32u5xx_ll_bus.h ****   * @rmtoll AHB2ENR1      GPIOAEN       LL_AHB2_GRP1_DisableClock\n
 805:Drivers/STM32U5xx_HAL_Driver/Inc/stm32u5xx_ll_bus.h ****   *         AHB2ENR1      GPIOBEN       LL_AHB2_GRP1_DisableClock\n
 806:Drivers/STM32U5xx_HAL_Driver/Inc/stm32u5xx_ll_bus.h ****   *         AHB2ENR1      GPIOCEN       LL_AHB2_GRP1_DisableClock\n
 807:Drivers/STM32U5xx_HAL_Driver/Inc/stm32u5xx_ll_bus.h ****   *         AHB2ENR1      GPIODEN       LL_AHB2_GRP1_DisableClock\n
 808:Drivers/STM32U5xx_HAL_Driver/Inc/stm32u5xx_ll_bus.h ****   *         AHB2ENR1      GPIOEEN       LL_AHB2_GRP1_DisableClock\n
 809:Drivers/STM32U5xx_HAL_Driver/Inc/stm32u5xx_ll_bus.h ****   *         AHB2ENR1      GPIOFEN       LL_AHB2_GRP1_DisableClock\n
 810:Drivers/STM32U5xx_HAL_Driver/Inc/stm32u5xx_ll_bus.h ****   *         AHB2ENR1      GPIOGEN       LL_AHB2_GRP1_DisableClock\n
 811:Drivers/STM32U5xx_HAL_Driver/Inc/stm32u5xx_ll_bus.h ****   *         AHB2ENR1      GPIOHEN       LL_AHB2_GRP1_DisableClock\n
 812:Drivers/STM32U5xx_HAL_Driver/Inc/stm32u5xx_ll_bus.h ****   *         AHB2ENR1      GPIOIEN       LL_AHB2_GRP1_DisableClock\n
 813:Drivers/STM32U5xx_HAL_Driver/Inc/stm32u5xx_ll_bus.h ****   *         AHB2ENR1      GPIOJEN       LL_AHB2_GRP1_DisableClock\n
 814:Drivers/STM32U5xx_HAL_Driver/Inc/stm32u5xx_ll_bus.h ****   *         AHB2ENR1      ADC12EN       LL_AHB2_GRP1_DisableClock\n
 815:Drivers/STM32U5xx_HAL_Driver/Inc/stm32u5xx_ll_bus.h ****   *         AHB2ENR1      DCMI_PSSIEN   LL_AHB2_GRP1_DisableClock\n
 816:Drivers/STM32U5xx_HAL_Driver/Inc/stm32u5xx_ll_bus.h ****   *         AHB2ENR1      OTGEN         LL_AHB2_GRP1_DisableClock\n
 817:Drivers/STM32U5xx_HAL_Driver/Inc/stm32u5xx_ll_bus.h ****   *         AHB2ENR1      USBPHYCEN     LL_AHB2_GRP1_DisableClock\n
 818:Drivers/STM32U5xx_HAL_Driver/Inc/stm32u5xx_ll_bus.h ****   *         AHB2ENR1      AESEN         LL_AHB2_GRP1_DisableClock\n
 819:Drivers/STM32U5xx_HAL_Driver/Inc/stm32u5xx_ll_bus.h ****   *         AHB2ENR1      HASHEN        LL_AHB2_GRP1_DisableClock\n
 820:Drivers/STM32U5xx_HAL_Driver/Inc/stm32u5xx_ll_bus.h ****   *         AHB2ENR1      RNGEN         LL_AHB2_GRP1_DisableClock\n
 821:Drivers/STM32U5xx_HAL_Driver/Inc/stm32u5xx_ll_bus.h ****   *         AHB2ENR1      PKAEN         LL_AHB2_GRP1_DisableClock\n
 822:Drivers/STM32U5xx_HAL_Driver/Inc/stm32u5xx_ll_bus.h ****   *         AHB2ENR1      SAESEN        LL_AHB2_GRP1_DisableClock\n
 823:Drivers/STM32U5xx_HAL_Driver/Inc/stm32u5xx_ll_bus.h ****   *         AHB2ENR1      OSPIMEN       LL_AHB2_GRP1_DisableClock\n
 824:Drivers/STM32U5xx_HAL_Driver/Inc/stm32u5xx_ll_bus.h ****   *         AHB2ENR1      OTFDEC1EN     LL_AHB2_GRP1_DisableClock\n
 825:Drivers/STM32U5xx_HAL_Driver/Inc/stm32u5xx_ll_bus.h ****   *         AHB2ENR1      OTFDEC2EN     LL_AHB2_GRP1_DisableClock\n
 826:Drivers/STM32U5xx_HAL_Driver/Inc/stm32u5xx_ll_bus.h ****   *         AHB2ENR1      SDMMC1EN      LL_AHB2_GRP1_DisableClock\n
 827:Drivers/STM32U5xx_HAL_Driver/Inc/stm32u5xx_ll_bus.h ****   *         AHB2ENR1      SDMMC2EN      LL_AHB2_GRP1_DisableClock\n
 828:Drivers/STM32U5xx_HAL_Driver/Inc/stm32u5xx_ll_bus.h ****   *         AHB2ENR1      SRAM2EN       LL_AHB2_GRP1_DisableClock\n
 829:Drivers/STM32U5xx_HAL_Driver/Inc/stm32u5xx_ll_bus.h ****   *         AHB2ENR1      SRAM3EN       LL_AHB2_GRP1_DisableClock\n
 830:Drivers/STM32U5xx_HAL_Driver/Inc/stm32u5xx_ll_bus.h ****   * @param  Periphs This parameter can be a combination of the following values:
 831:Drivers/STM32U5xx_HAL_Driver/Inc/stm32u5xx_ll_bus.h ****   *         @arg @ref LL_AHB2_GRP1_PERIPH_ALL
 832:Drivers/STM32U5xx_HAL_Driver/Inc/stm32u5xx_ll_bus.h ****   *         @arg @ref LL_AHB2_GRP1_PERIPH_GPIOA
 833:Drivers/STM32U5xx_HAL_Driver/Inc/stm32u5xx_ll_bus.h ****   *         @arg @ref LL_AHB2_GRP1_PERIPH_GPIOB
 834:Drivers/STM32U5xx_HAL_Driver/Inc/stm32u5xx_ll_bus.h ****   *         @arg @ref LL_AHB2_GRP1_PERIPH_GPIOC
 835:Drivers/STM32U5xx_HAL_Driver/Inc/stm32u5xx_ll_bus.h ****   *         @arg @ref LL_AHB2_GRP1_PERIPH_GPIOD
 836:Drivers/STM32U5xx_HAL_Driver/Inc/stm32u5xx_ll_bus.h ****   *         @arg @ref LL_AHB2_GRP1_PERIPH_GPIOE
 837:Drivers/STM32U5xx_HAL_Driver/Inc/stm32u5xx_ll_bus.h ****   *         @arg @ref LL_AHB2_GRP1_PERIPH_GPIOF
 838:Drivers/STM32U5xx_HAL_Driver/Inc/stm32u5xx_ll_bus.h ****   *         @arg @ref LL_AHB2_GRP1_PERIPH_GPIOG
 839:Drivers/STM32U5xx_HAL_Driver/Inc/stm32u5xx_ll_bus.h ****   *         @arg @ref LL_AHB2_GRP1_PERIPH_GPIOH
 840:Drivers/STM32U5xx_HAL_Driver/Inc/stm32u5xx_ll_bus.h ****   *         @arg @ref LL_AHB2_GRP1_PERIPH_GPIOI
 841:Drivers/STM32U5xx_HAL_Driver/Inc/stm32u5xx_ll_bus.h ****   *         @arg @ref LL_AHB2_GRP1_PERIPH_GPIOJ (*)
ARM GAS  C:\Users\Yamaan\AppData\Local\Temp\ccBR0E2V.s 			page 32


 842:Drivers/STM32U5xx_HAL_Driver/Inc/stm32u5xx_ll_bus.h ****   *         @arg @ref LL_AHB2_GRP1_PERIPH_ADC12
 843:Drivers/STM32U5xx_HAL_Driver/Inc/stm32u5xx_ll_bus.h ****   *         @arg @ref LL_AHB2_GRP1_PERIPH_DCMI_PSSI
 844:Drivers/STM32U5xx_HAL_Driver/Inc/stm32u5xx_ll_bus.h ****   *         @arg @ref LL_AHB2_GRP1_PERIPH_USBFS (*)
 845:Drivers/STM32U5xx_HAL_Driver/Inc/stm32u5xx_ll_bus.h ****   *         @arg @ref LL_AHB2_GRP1_PERIPH_USBHS (*)
 846:Drivers/STM32U5xx_HAL_Driver/Inc/stm32u5xx_ll_bus.h ****   *         @arg @ref LL_AHB2_GRP1_PERIPH_USBPHY (*)
 847:Drivers/STM32U5xx_HAL_Driver/Inc/stm32u5xx_ll_bus.h ****   *         @arg @ref LL_AHB2_GRP1_PERIPH_AES
 848:Drivers/STM32U5xx_HAL_Driver/Inc/stm32u5xx_ll_bus.h ****   *         @arg @ref LL_AHB2_GRP1_PERIPH_HASH
 849:Drivers/STM32U5xx_HAL_Driver/Inc/stm32u5xx_ll_bus.h ****   *         @arg @ref LL_AHB2_GRP1_PERIPH_RNG
 850:Drivers/STM32U5xx_HAL_Driver/Inc/stm32u5xx_ll_bus.h ****   *         @arg @ref LL_AHB2_GRP1_PERIPH_PKA
 851:Drivers/STM32U5xx_HAL_Driver/Inc/stm32u5xx_ll_bus.h ****   *         @arg @ref LL_AHB2_GRP1_PERIPH_SAES
 852:Drivers/STM32U5xx_HAL_Driver/Inc/stm32u5xx_ll_bus.h ****   *         @arg @ref LL_AHB2_GRP1_PERIPH_OCTOSPIM
 853:Drivers/STM32U5xx_HAL_Driver/Inc/stm32u5xx_ll_bus.h ****   *         @arg @ref LL_AHB2_GRP1_PERIPH_OTFDEC1
 854:Drivers/STM32U5xx_HAL_Driver/Inc/stm32u5xx_ll_bus.h ****   *         @arg @ref LL_AHB2_GRP1_PERIPH_OTFDEC2
 855:Drivers/STM32U5xx_HAL_Driver/Inc/stm32u5xx_ll_bus.h ****   *         @arg @ref LL_AHB2_GRP1_PERIPH_SDMMC1
 856:Drivers/STM32U5xx_HAL_Driver/Inc/stm32u5xx_ll_bus.h ****   *         @arg @ref LL_AHB2_GRP1_PERIPH_SDMMC2
 857:Drivers/STM32U5xx_HAL_Driver/Inc/stm32u5xx_ll_bus.h ****   *         @arg @ref LL_AHB2_GRP1_PERIPH_SRAM2
 858:Drivers/STM32U5xx_HAL_Driver/Inc/stm32u5xx_ll_bus.h ****   *         @arg @ref LL_AHB2_GRP1_PERIPH_SRAM3
 859:Drivers/STM32U5xx_HAL_Driver/Inc/stm32u5xx_ll_bus.h ****   *
 860:Drivers/STM32U5xx_HAL_Driver/Inc/stm32u5xx_ll_bus.h ****   *        (*) value not defined in all devices.
 861:Drivers/STM32U5xx_HAL_Driver/Inc/stm32u5xx_ll_bus.h ****   * @retval None
 862:Drivers/STM32U5xx_HAL_Driver/Inc/stm32u5xx_ll_bus.h ****   */
 863:Drivers/STM32U5xx_HAL_Driver/Inc/stm32u5xx_ll_bus.h **** __STATIC_INLINE void LL_AHB2_GRP1_DisableClock(uint32_t Periphs)
 864:Drivers/STM32U5xx_HAL_Driver/Inc/stm32u5xx_ll_bus.h **** {
 865:Drivers/STM32U5xx_HAL_Driver/Inc/stm32u5xx_ll_bus.h ****   CLEAR_BIT(RCC->AHB2ENR1, Periphs);
 866:Drivers/STM32U5xx_HAL_Driver/Inc/stm32u5xx_ll_bus.h **** }
 867:Drivers/STM32U5xx_HAL_Driver/Inc/stm32u5xx_ll_bus.h **** 
 868:Drivers/STM32U5xx_HAL_Driver/Inc/stm32u5xx_ll_bus.h **** /**
 869:Drivers/STM32U5xx_HAL_Driver/Inc/stm32u5xx_ll_bus.h ****   * @brief  Force AHB2 peripherals reset.
 870:Drivers/STM32U5xx_HAL_Driver/Inc/stm32u5xx_ll_bus.h ****   * @rmtoll AHB2RSTR1     GPIOARST      LL_AHB2_GRP1_ForceReset\n
 871:Drivers/STM32U5xx_HAL_Driver/Inc/stm32u5xx_ll_bus.h ****   *         AHB2RSTR1     GPIOBRST      LL_AHB2_GRP1_ForceReset\n
 872:Drivers/STM32U5xx_HAL_Driver/Inc/stm32u5xx_ll_bus.h ****   *         AHB2RSTR1     GPIOCRST      LL_AHB2_GRP1_ForceReset\n
 873:Drivers/STM32U5xx_HAL_Driver/Inc/stm32u5xx_ll_bus.h ****   *         AHB2RSTR1     GPIODRST      LL_AHB2_GRP1_ForceReset\n
 874:Drivers/STM32U5xx_HAL_Driver/Inc/stm32u5xx_ll_bus.h ****   *         AHB2RSTR1     GPIOERST      LL_AHB2_GRP1_ForceReset\n
 875:Drivers/STM32U5xx_HAL_Driver/Inc/stm32u5xx_ll_bus.h ****   *         AHB2RSTR1     GPIOFRST      LL_AHB2_GRP1_ForceReset\n
 876:Drivers/STM32U5xx_HAL_Driver/Inc/stm32u5xx_ll_bus.h ****   *         AHB2RSTR1     GPIOGRST      LL_AHB2_GRP1_ForceReset\n
 877:Drivers/STM32U5xx_HAL_Driver/Inc/stm32u5xx_ll_bus.h ****   *         AHB2RSTR1     GPIOHRST      LL_AHB2_GRP1_ForceReset\n
 878:Drivers/STM32U5xx_HAL_Driver/Inc/stm32u5xx_ll_bus.h ****   *         AHB2RSTR1     GPIOIRST      LL_AHB2_GRP1_ForceReset\n
 879:Drivers/STM32U5xx_HAL_Driver/Inc/stm32u5xx_ll_bus.h ****   *         AHB2RSTR1     GPIOJRST      LL_AHB2_GRP1_ForceReset\n
 880:Drivers/STM32U5xx_HAL_Driver/Inc/stm32u5xx_ll_bus.h ****   *         AHB2RSTR1     ADC12RST      LL_AHB2_GRP1_ForceReset\n
 881:Drivers/STM32U5xx_HAL_Driver/Inc/stm32u5xx_ll_bus.h ****   *         AHB2RSTR1     DCMI_PSSIRST  LL_AHB2_GRP1_ForceReset\n
 882:Drivers/STM32U5xx_HAL_Driver/Inc/stm32u5xx_ll_bus.h ****   *         AHB2RSTR1     OTGRST        LL_AHB2_GRP1_ForceReset\n
 883:Drivers/STM32U5xx_HAL_Driver/Inc/stm32u5xx_ll_bus.h ****   *         AHB2RSTR1     USBPHYCRST    LL_AHB2_GRP1_ForceReset\n
 884:Drivers/STM32U5xx_HAL_Driver/Inc/stm32u5xx_ll_bus.h ****   *         AHB2RSTR1     AESRST        LL_AHB2_GRP1_ForceReset\n
 885:Drivers/STM32U5xx_HAL_Driver/Inc/stm32u5xx_ll_bus.h ****   *         AHB2RSTR1     HASHRST       LL_AHB2_GRP1_ForceReset\n
 886:Drivers/STM32U5xx_HAL_Driver/Inc/stm32u5xx_ll_bus.h ****   *         AHB2RSTR1     RNGRST        LL_AHB2_GRP1_ForceReset\n
 887:Drivers/STM32U5xx_HAL_Driver/Inc/stm32u5xx_ll_bus.h ****   *         AHB2RSTR1     PKARST        LL_AHB2_GRP1_ForceReset\n
 888:Drivers/STM32U5xx_HAL_Driver/Inc/stm32u5xx_ll_bus.h ****   *         AHB2RSTR1     SAESRST       LL_AHB2_GRP1_ForceReset\n
 889:Drivers/STM32U5xx_HAL_Driver/Inc/stm32u5xx_ll_bus.h ****   *         AHB2RSTR1     OCTOSPIMRST   LL_AHB2_GRP1_ForceReset\n
 890:Drivers/STM32U5xx_HAL_Driver/Inc/stm32u5xx_ll_bus.h ****   *         AHB2RSTR1     OTFDEC1RST    LL_AHB2_GRP1_ForceReset\n
 891:Drivers/STM32U5xx_HAL_Driver/Inc/stm32u5xx_ll_bus.h ****   *         AHB2RSTR1     OTFDEC2RST    LL_AHB2_GRP1_ForceReset\n
 892:Drivers/STM32U5xx_HAL_Driver/Inc/stm32u5xx_ll_bus.h ****   *         AHB2RSTR1     SDMMC1RST     LL_AHB2_GRP1_ForceReset\n
 893:Drivers/STM32U5xx_HAL_Driver/Inc/stm32u5xx_ll_bus.h ****   *         AHB2RSTR1     SDMMC2RST     LL_AHB2_GRP1_ForceReset\n
 894:Drivers/STM32U5xx_HAL_Driver/Inc/stm32u5xx_ll_bus.h ****   * @param  Periphs This parameter can be a combination of the following values:
 895:Drivers/STM32U5xx_HAL_Driver/Inc/stm32u5xx_ll_bus.h ****   *         @arg @ref LL_AHB2_GRP1_PERIPH_ALL
 896:Drivers/STM32U5xx_HAL_Driver/Inc/stm32u5xx_ll_bus.h ****   *         @arg @ref LL_AHB2_GRP1_PERIPH_GPIOA
 897:Drivers/STM32U5xx_HAL_Driver/Inc/stm32u5xx_ll_bus.h ****   *         @arg @ref LL_AHB2_GRP1_PERIPH_GPIOB
 898:Drivers/STM32U5xx_HAL_Driver/Inc/stm32u5xx_ll_bus.h ****   *         @arg @ref LL_AHB2_GRP1_PERIPH_GPIOC
ARM GAS  C:\Users\Yamaan\AppData\Local\Temp\ccBR0E2V.s 			page 33


 899:Drivers/STM32U5xx_HAL_Driver/Inc/stm32u5xx_ll_bus.h ****   *         @arg @ref LL_AHB2_GRP1_PERIPH_GPIOD
 900:Drivers/STM32U5xx_HAL_Driver/Inc/stm32u5xx_ll_bus.h ****   *         @arg @ref LL_AHB2_GRP1_PERIPH_GPIOE
 901:Drivers/STM32U5xx_HAL_Driver/Inc/stm32u5xx_ll_bus.h ****   *         @arg @ref LL_AHB2_GRP1_PERIPH_GPIOF
 902:Drivers/STM32U5xx_HAL_Driver/Inc/stm32u5xx_ll_bus.h ****   *         @arg @ref LL_AHB2_GRP1_PERIPH_GPIOG
 903:Drivers/STM32U5xx_HAL_Driver/Inc/stm32u5xx_ll_bus.h ****   *         @arg @ref LL_AHB2_GRP1_PERIPH_GPIOH
 904:Drivers/STM32U5xx_HAL_Driver/Inc/stm32u5xx_ll_bus.h ****   *         @arg @ref LL_AHB2_GRP1_PERIPH_GPIOI
 905:Drivers/STM32U5xx_HAL_Driver/Inc/stm32u5xx_ll_bus.h ****   *         @arg @ref LL_AHB2_GRP1_PERIPH_GPIOJ (*)
 906:Drivers/STM32U5xx_HAL_Driver/Inc/stm32u5xx_ll_bus.h ****   *         @arg @ref LL_AHB2_GRP1_PERIPH_ADC12
 907:Drivers/STM32U5xx_HAL_Driver/Inc/stm32u5xx_ll_bus.h ****   *         @arg @ref LL_AHB2_GRP1_PERIPH_DCMI_PSSI
 908:Drivers/STM32U5xx_HAL_Driver/Inc/stm32u5xx_ll_bus.h ****   *         @arg @ref LL_AHB2_GRP1_PERIPH_USBFS (*)
 909:Drivers/STM32U5xx_HAL_Driver/Inc/stm32u5xx_ll_bus.h ****   *         @arg @ref LL_AHB2_GRP1_PERIPH_USBHS (*)
 910:Drivers/STM32U5xx_HAL_Driver/Inc/stm32u5xx_ll_bus.h ****   *         @arg @ref LL_AHB2_GRP1_PERIPH_USBPHY (*)
 911:Drivers/STM32U5xx_HAL_Driver/Inc/stm32u5xx_ll_bus.h ****   *         @arg @ref LL_AHB2_GRP1_PERIPH_AES
 912:Drivers/STM32U5xx_HAL_Driver/Inc/stm32u5xx_ll_bus.h ****   *         @arg @ref LL_AHB2_GRP1_PERIPH_HASH
 913:Drivers/STM32U5xx_HAL_Driver/Inc/stm32u5xx_ll_bus.h ****   *         @arg @ref LL_AHB2_GRP1_PERIPH_RNG
 914:Drivers/STM32U5xx_HAL_Driver/Inc/stm32u5xx_ll_bus.h ****   *         @arg @ref LL_AHB2_GRP1_PERIPH_PKA
 915:Drivers/STM32U5xx_HAL_Driver/Inc/stm32u5xx_ll_bus.h ****   *         @arg @ref LL_AHB2_GRP1_PERIPH_SAES
 916:Drivers/STM32U5xx_HAL_Driver/Inc/stm32u5xx_ll_bus.h ****   *         @arg @ref LL_AHB2_GRP1_PERIPH_OCTOSPIM
 917:Drivers/STM32U5xx_HAL_Driver/Inc/stm32u5xx_ll_bus.h ****   *         @arg @ref LL_AHB2_GRP1_PERIPH_OTFDEC1
 918:Drivers/STM32U5xx_HAL_Driver/Inc/stm32u5xx_ll_bus.h ****   *         @arg @ref LL_AHB2_GRP1_PERIPH_OTFDEC2
 919:Drivers/STM32U5xx_HAL_Driver/Inc/stm32u5xx_ll_bus.h ****   *         @arg @ref LL_AHB2_GRP1_PERIPH_SDMMC1
 920:Drivers/STM32U5xx_HAL_Driver/Inc/stm32u5xx_ll_bus.h ****   *         @arg @ref LL_AHB2_GRP1_PERIPH_SDMMC2
 921:Drivers/STM32U5xx_HAL_Driver/Inc/stm32u5xx_ll_bus.h ****   *
 922:Drivers/STM32U5xx_HAL_Driver/Inc/stm32u5xx_ll_bus.h ****   *        (*) value not defined in all devices.
 923:Drivers/STM32U5xx_HAL_Driver/Inc/stm32u5xx_ll_bus.h ****   * @retval None
 924:Drivers/STM32U5xx_HAL_Driver/Inc/stm32u5xx_ll_bus.h ****   */
 925:Drivers/STM32U5xx_HAL_Driver/Inc/stm32u5xx_ll_bus.h **** __STATIC_INLINE void LL_AHB2_GRP1_ForceReset(uint32_t Periphs)
 926:Drivers/STM32U5xx_HAL_Driver/Inc/stm32u5xx_ll_bus.h **** {
 927:Drivers/STM32U5xx_HAL_Driver/Inc/stm32u5xx_ll_bus.h ****   SET_BIT(RCC->AHB2RSTR1, Periphs);
 928:Drivers/STM32U5xx_HAL_Driver/Inc/stm32u5xx_ll_bus.h **** }
 929:Drivers/STM32U5xx_HAL_Driver/Inc/stm32u5xx_ll_bus.h **** 
 930:Drivers/STM32U5xx_HAL_Driver/Inc/stm32u5xx_ll_bus.h **** /**
 931:Drivers/STM32U5xx_HAL_Driver/Inc/stm32u5xx_ll_bus.h ****   * @brief  Release AHB2 peripherals reset.
 932:Drivers/STM32U5xx_HAL_Driver/Inc/stm32u5xx_ll_bus.h ****   * @rmtoll AHB2RSTR1     GPIOARST      LL_AHB2_GRP1_ReleaseReset\n
 933:Drivers/STM32U5xx_HAL_Driver/Inc/stm32u5xx_ll_bus.h ****   *         AHB2RSTR1     GPIOBRST      LL_AHB2_GRP1_ReleaseReset\n
 934:Drivers/STM32U5xx_HAL_Driver/Inc/stm32u5xx_ll_bus.h ****   *         AHB2RSTR1     GPIOCRST      LL_AHB2_GRP1_ReleaseReset\n
 935:Drivers/STM32U5xx_HAL_Driver/Inc/stm32u5xx_ll_bus.h ****   *         AHB2RSTR1     GPIODRST      LL_AHB2_GRP1_ReleaseReset\n
 936:Drivers/STM32U5xx_HAL_Driver/Inc/stm32u5xx_ll_bus.h ****   *         AHB2RSTR1     GPIOERST      LL_AHB2_GRP1_ReleaseReset\n
 937:Drivers/STM32U5xx_HAL_Driver/Inc/stm32u5xx_ll_bus.h ****   *         AHB2RSTR1     GPIOFRST      LL_AHB2_GRP1_ReleaseReset\n
 938:Drivers/STM32U5xx_HAL_Driver/Inc/stm32u5xx_ll_bus.h ****   *         AHB2RSTR1     GPIOGRST      LL_AHB2_GRP1_ReleaseReset\n
 939:Drivers/STM32U5xx_HAL_Driver/Inc/stm32u5xx_ll_bus.h ****   *         AHB2RSTR1     GPIOHRST      LL_AHB2_GRP1_ReleaseReset\n
 940:Drivers/STM32U5xx_HAL_Driver/Inc/stm32u5xx_ll_bus.h ****   *         AHB2RSTR1     GPIOIRST      LL_AHB2_GRP1_ReleaseReset\n
 941:Drivers/STM32U5xx_HAL_Driver/Inc/stm32u5xx_ll_bus.h ****   *         AHB2RSTR1     GPIOJRST      LL_AHB2_GRP1_ReleaseReset\n
 942:Drivers/STM32U5xx_HAL_Driver/Inc/stm32u5xx_ll_bus.h ****   *         AHB2RSTR1     ADC12RST      LL_AHB2_GRP1_ReleaseReset\n
 943:Drivers/STM32U5xx_HAL_Driver/Inc/stm32u5xx_ll_bus.h ****   *         AHB2RSTR1     DCMI_PSSIRST  LL_AHB2_GRP1_ReleaseReset\n
 944:Drivers/STM32U5xx_HAL_Driver/Inc/stm32u5xx_ll_bus.h ****   *         AHB2RSTR1     OTGRST        LL_AHB2_GRP1_ReleaseReset\n
 945:Drivers/STM32U5xx_HAL_Driver/Inc/stm32u5xx_ll_bus.h ****   *         AHB2RSTR1     USBPHYCRST    LL_AHB2_GRP1_ReleaseReset\n
 946:Drivers/STM32U5xx_HAL_Driver/Inc/stm32u5xx_ll_bus.h ****   *         AHB2RSTR1     AESRST        LL_AHB2_GRP1_ReleaseReset\n
 947:Drivers/STM32U5xx_HAL_Driver/Inc/stm32u5xx_ll_bus.h ****   *         AHB2RSTR1     HASHRST       LL_AHB2_GRP1_ReleaseReset\n
 948:Drivers/STM32U5xx_HAL_Driver/Inc/stm32u5xx_ll_bus.h ****   *         AHB2RSTR1     RNGRST        LL_AHB2_GRP1_ReleaseReset\n
 949:Drivers/STM32U5xx_HAL_Driver/Inc/stm32u5xx_ll_bus.h ****   *         AHB2RSTR1     PKARST        LL_AHB2_GRP1_ReleaseReset\n
 950:Drivers/STM32U5xx_HAL_Driver/Inc/stm32u5xx_ll_bus.h ****   *         AHB2RSTR1     SAESRST       LL_AHB2_GRP1_ReleaseReset\n
 951:Drivers/STM32U5xx_HAL_Driver/Inc/stm32u5xx_ll_bus.h ****   *         AHB2RSTR1     OCTOSPIMRST   LL_AHB2_GRP1_ReleaseReset\n
 952:Drivers/STM32U5xx_HAL_Driver/Inc/stm32u5xx_ll_bus.h ****   *         AHB2RSTR1     OTFDEC1RST    LL_AHB2_GRP1_ReleaseReset\n
 953:Drivers/STM32U5xx_HAL_Driver/Inc/stm32u5xx_ll_bus.h ****   *         AHB2RSTR1     OTFDEC2RST    LL_AHB2_GRP1_ReleaseReset\n
 954:Drivers/STM32U5xx_HAL_Driver/Inc/stm32u5xx_ll_bus.h ****   *         AHB2RSTR1     SDMMC1RST     LL_AHB2_GRP1_ReleaseReset\n
 955:Drivers/STM32U5xx_HAL_Driver/Inc/stm32u5xx_ll_bus.h ****   *         AHB2RSTR1     SDMMC2RST     LL_AHB2_GRP1_ReleaseReset\n
ARM GAS  C:\Users\Yamaan\AppData\Local\Temp\ccBR0E2V.s 			page 34


 956:Drivers/STM32U5xx_HAL_Driver/Inc/stm32u5xx_ll_bus.h ****   * @param  Periphs This parameter can be a combination of the following values:
 957:Drivers/STM32U5xx_HAL_Driver/Inc/stm32u5xx_ll_bus.h ****   *         @arg @ref LL_AHB2_GRP1_PERIPH_ALL
 958:Drivers/STM32U5xx_HAL_Driver/Inc/stm32u5xx_ll_bus.h ****   *         @arg @ref LL_AHB2_GRP1_PERIPH_GPIOA
 959:Drivers/STM32U5xx_HAL_Driver/Inc/stm32u5xx_ll_bus.h ****   *         @arg @ref LL_AHB2_GRP1_PERIPH_GPIOB
 960:Drivers/STM32U5xx_HAL_Driver/Inc/stm32u5xx_ll_bus.h ****   *         @arg @ref LL_AHB2_GRP1_PERIPH_GPIOC
 961:Drivers/STM32U5xx_HAL_Driver/Inc/stm32u5xx_ll_bus.h ****   *         @arg @ref LL_AHB2_GRP1_PERIPH_GPIOD
 962:Drivers/STM32U5xx_HAL_Driver/Inc/stm32u5xx_ll_bus.h ****   *         @arg @ref LL_AHB2_GRP1_PERIPH_GPIOE
 963:Drivers/STM32U5xx_HAL_Driver/Inc/stm32u5xx_ll_bus.h ****   *         @arg @ref LL_AHB2_GRP1_PERIPH_GPIOF
 964:Drivers/STM32U5xx_HAL_Driver/Inc/stm32u5xx_ll_bus.h ****   *         @arg @ref LL_AHB2_GRP1_PERIPH_GPIOG
 965:Drivers/STM32U5xx_HAL_Driver/Inc/stm32u5xx_ll_bus.h ****   *         @arg @ref LL_AHB2_GRP1_PERIPH_GPIOH
 966:Drivers/STM32U5xx_HAL_Driver/Inc/stm32u5xx_ll_bus.h ****   *         @arg @ref LL_AHB2_GRP1_PERIPH_GPIOI
 967:Drivers/STM32U5xx_HAL_Driver/Inc/stm32u5xx_ll_bus.h ****   *         @arg @ref LL_AHB2_GRP1_PERIPH_GPIOJ (*)
 968:Drivers/STM32U5xx_HAL_Driver/Inc/stm32u5xx_ll_bus.h ****   *         @arg @ref LL_AHB2_GRP1_PERIPH_ADC12
 969:Drivers/STM32U5xx_HAL_Driver/Inc/stm32u5xx_ll_bus.h ****   *         @arg @ref LL_AHB2_GRP1_PERIPH_DCMI_PSSI
 970:Drivers/STM32U5xx_HAL_Driver/Inc/stm32u5xx_ll_bus.h ****   *         @arg @ref LL_AHB2_GRP1_PERIPH_USBFS (*)
 971:Drivers/STM32U5xx_HAL_Driver/Inc/stm32u5xx_ll_bus.h ****   *         @arg @ref LL_AHB2_GRP1_PERIPH_USBHS (*)
 972:Drivers/STM32U5xx_HAL_Driver/Inc/stm32u5xx_ll_bus.h ****   *         @arg @ref LL_AHB2_GRP1_PERIPH_USBPHY (*)
 973:Drivers/STM32U5xx_HAL_Driver/Inc/stm32u5xx_ll_bus.h ****   *         @arg @ref LL_AHB2_GRP1_PERIPH_AES
 974:Drivers/STM32U5xx_HAL_Driver/Inc/stm32u5xx_ll_bus.h ****   *         @arg @ref LL_AHB2_GRP1_PERIPH_HASH
 975:Drivers/STM32U5xx_HAL_Driver/Inc/stm32u5xx_ll_bus.h ****   *         @arg @ref LL_AHB2_GRP1_PERIPH_RNG
 976:Drivers/STM32U5xx_HAL_Driver/Inc/stm32u5xx_ll_bus.h ****   *         @arg @ref LL_AHB2_GRP1_PERIPH_PKA
 977:Drivers/STM32U5xx_HAL_Driver/Inc/stm32u5xx_ll_bus.h ****   *         @arg @ref LL_AHB2_GRP1_PERIPH_SAES
 978:Drivers/STM32U5xx_HAL_Driver/Inc/stm32u5xx_ll_bus.h ****   *         @arg @ref LL_AHB2_GRP1_PERIPH_OCTOSPIM
 979:Drivers/STM32U5xx_HAL_Driver/Inc/stm32u5xx_ll_bus.h ****   *         @arg @ref LL_AHB2_GRP1_PERIPH_OTFDEC1
 980:Drivers/STM32U5xx_HAL_Driver/Inc/stm32u5xx_ll_bus.h ****   *         @arg @ref LL_AHB2_GRP1_PERIPH_OTFDEC2
 981:Drivers/STM32U5xx_HAL_Driver/Inc/stm32u5xx_ll_bus.h ****   *         @arg @ref LL_AHB2_GRP1_PERIPH_SDMMC1
 982:Drivers/STM32U5xx_HAL_Driver/Inc/stm32u5xx_ll_bus.h ****   *         @arg @ref LL_AHB2_GRP1_PERIPH_SDMMC2
 983:Drivers/STM32U5xx_HAL_Driver/Inc/stm32u5xx_ll_bus.h ****   *
 984:Drivers/STM32U5xx_HAL_Driver/Inc/stm32u5xx_ll_bus.h ****   *        (*) value not defined in all devices.
 985:Drivers/STM32U5xx_HAL_Driver/Inc/stm32u5xx_ll_bus.h ****   * @retval None
 986:Drivers/STM32U5xx_HAL_Driver/Inc/stm32u5xx_ll_bus.h ****   */
 987:Drivers/STM32U5xx_HAL_Driver/Inc/stm32u5xx_ll_bus.h **** __STATIC_INLINE void LL_AHB2_GRP1_ReleaseReset(uint32_t Periphs)
 988:Drivers/STM32U5xx_HAL_Driver/Inc/stm32u5xx_ll_bus.h **** {
 989:Drivers/STM32U5xx_HAL_Driver/Inc/stm32u5xx_ll_bus.h ****   CLEAR_BIT(RCC->AHB2RSTR1, Periphs);
 990:Drivers/STM32U5xx_HAL_Driver/Inc/stm32u5xx_ll_bus.h **** }
 991:Drivers/STM32U5xx_HAL_Driver/Inc/stm32u5xx_ll_bus.h **** 
 992:Drivers/STM32U5xx_HAL_Driver/Inc/stm32u5xx_ll_bus.h **** /**
 993:Drivers/STM32U5xx_HAL_Driver/Inc/stm32u5xx_ll_bus.h ****   * @brief  Enable AHB2 peripheral clocks in Sleep and Stop modes
 994:Drivers/STM32U5xx_HAL_Driver/Inc/stm32u5xx_ll_bus.h ****   * @rmtoll AHB2SMENR1    GPIOASMEN      LL_AHB2_GRP1_EnableClockStopSleep\n
 995:Drivers/STM32U5xx_HAL_Driver/Inc/stm32u5xx_ll_bus.h ****   *         AHB2SMENR1    GPIOBSMEN      LL_AHB2_GRP1_EnableClockStopSleep\n
 996:Drivers/STM32U5xx_HAL_Driver/Inc/stm32u5xx_ll_bus.h ****   *         AHB2SMENR1    GPIOCSMEN      LL_AHB2_GRP1_EnableClockStopSleep\n
 997:Drivers/STM32U5xx_HAL_Driver/Inc/stm32u5xx_ll_bus.h ****   *         AHB2SMENR1    GPIODSMEN      LL_AHB2_GRP1_EnableClockStopSleep\n
 998:Drivers/STM32U5xx_HAL_Driver/Inc/stm32u5xx_ll_bus.h ****   *         AHB2SMENR1    GPIOESMEN      LL_AHB2_GRP1_EnableClockStopSleep\n
 999:Drivers/STM32U5xx_HAL_Driver/Inc/stm32u5xx_ll_bus.h ****   *         AHB2SMENR1    GPIOFSMEN      LL_AHB2_GRP1_EnableClockStopSleep\n
1000:Drivers/STM32U5xx_HAL_Driver/Inc/stm32u5xx_ll_bus.h ****   *         AHB2SMENR1    GPIOGSMEN      LL_AHB2_GRP1_EnableClockStopSleep\n
1001:Drivers/STM32U5xx_HAL_Driver/Inc/stm32u5xx_ll_bus.h ****   *         AHB2SMENR1    GPIOHSMEN      LL_AHB2_GRP1_EnableClockStopSleep\n
1002:Drivers/STM32U5xx_HAL_Driver/Inc/stm32u5xx_ll_bus.h ****   *         AHB2SMENR1    GPIOISMEN      LL_AHB2_GRP1_EnableClockStopSleep\n
1003:Drivers/STM32U5xx_HAL_Driver/Inc/stm32u5xx_ll_bus.h ****   *         AHB2SMENR1    GPIOJSMEN      LL_AHB2_GRP1_EnableClockStopSleep\n
1004:Drivers/STM32U5xx_HAL_Driver/Inc/stm32u5xx_ll_bus.h ****   *         AHB2SMENR1    ADC12SMEN      LL_AHB2_GRP1_EnableClockStopSleep\n
1005:Drivers/STM32U5xx_HAL_Driver/Inc/stm32u5xx_ll_bus.h ****   *         AHB2SMENR1    DCMI_PSSISMEN  LL_AHB2_GRP1_EnableClockStopSleep\n
1006:Drivers/STM32U5xx_HAL_Driver/Inc/stm32u5xx_ll_bus.h ****   *         AHB2SMENR1    OTGSMEN        LL_AHB2_GRP1_EnableClockStopSleep\n
1007:Drivers/STM32U5xx_HAL_Driver/Inc/stm32u5xx_ll_bus.h ****   *         AHB2ENR1      USBPHYCEN      LL_AHB2_GRP1_EnableClockStopSleep\n
1008:Drivers/STM32U5xx_HAL_Driver/Inc/stm32u5xx_ll_bus.h ****   *         AHB2SMENR1    AESSMEN        LL_AHB2_GRP1_EnableClockStopSleep\n
1009:Drivers/STM32U5xx_HAL_Driver/Inc/stm32u5xx_ll_bus.h ****   *         AHB2SMENR1    HASHSMEN       LL_AHB2_GRP1_EnableClockStopSleep\n
1010:Drivers/STM32U5xx_HAL_Driver/Inc/stm32u5xx_ll_bus.h ****   *         AHB2SMENR1    RNGSMEN        LL_AHB2_GRP1_EnableClockStopSleep\n
1011:Drivers/STM32U5xx_HAL_Driver/Inc/stm32u5xx_ll_bus.h ****   *         AHB2SMENR1    PKASMEN        LL_AHB2_GRP1_EnableClockStopSleep\n
1012:Drivers/STM32U5xx_HAL_Driver/Inc/stm32u5xx_ll_bus.h ****   *         AHB2SMENR1    SAESSMEN       LL_AHB2_GRP1_EnableClockStopSleep\n
ARM GAS  C:\Users\Yamaan\AppData\Local\Temp\ccBR0E2V.s 			page 35


1013:Drivers/STM32U5xx_HAL_Driver/Inc/stm32u5xx_ll_bus.h ****   *         AHB2SMENR1    OSPIMSMEN      LL_AHB2_GRP1_EnableClockStopSleep\n
1014:Drivers/STM32U5xx_HAL_Driver/Inc/stm32u5xx_ll_bus.h ****   *         AHB2SMENR1    OTFDEC1SMEN    LL_AHB2_GRP1_EnableClockStopSleep\n
1015:Drivers/STM32U5xx_HAL_Driver/Inc/stm32u5xx_ll_bus.h ****   *         AHB2SMENR1    OTFDEC2SMEN    LL_AHB2_GRP1_EnableClockStopSleep\n
1016:Drivers/STM32U5xx_HAL_Driver/Inc/stm32u5xx_ll_bus.h ****   *         AHB2SMENR1    SDMMC1SMEN     LL_AHB2_GRP1_EnableClockStopSleep\n
1017:Drivers/STM32U5xx_HAL_Driver/Inc/stm32u5xx_ll_bus.h ****   *         AHB2SMENR1    SDMMC2SMEN     LL_AHB2_GRP1_EnableClockStopSleep\n
1018:Drivers/STM32U5xx_HAL_Driver/Inc/stm32u5xx_ll_bus.h ****   *         AHB2SMENR1    SRAM2SMEN      LL_AHB2_GRP1_EnableClockStopSleep\n
1019:Drivers/STM32U5xx_HAL_Driver/Inc/stm32u5xx_ll_bus.h ****   *         AHB2SMENR1    SRAM3SMEN      LL_AHB2_GRP1_EnableClockStopSleep\n
1020:Drivers/STM32U5xx_HAL_Driver/Inc/stm32u5xx_ll_bus.h ****   * @param  Periphs This parameter can be a combination of the following values:
1021:Drivers/STM32U5xx_HAL_Driver/Inc/stm32u5xx_ll_bus.h ****   *         @arg @ref LL_AHB2_GRP1_PERIPH_ALL
1022:Drivers/STM32U5xx_HAL_Driver/Inc/stm32u5xx_ll_bus.h ****   *         @arg @ref LL_AHB2_GRP1_PERIPH_GPIOA
1023:Drivers/STM32U5xx_HAL_Driver/Inc/stm32u5xx_ll_bus.h ****   *         @arg @ref LL_AHB2_GRP1_PERIPH_GPIOB
1024:Drivers/STM32U5xx_HAL_Driver/Inc/stm32u5xx_ll_bus.h ****   *         @arg @ref LL_AHB2_GRP1_PERIPH_GPIOC
1025:Drivers/STM32U5xx_HAL_Driver/Inc/stm32u5xx_ll_bus.h ****   *         @arg @ref LL_AHB2_GRP1_PERIPH_GPIOD
1026:Drivers/STM32U5xx_HAL_Driver/Inc/stm32u5xx_ll_bus.h ****   *         @arg @ref LL_AHB2_GRP1_PERIPH_GPIOE
1027:Drivers/STM32U5xx_HAL_Driver/Inc/stm32u5xx_ll_bus.h ****   *         @arg @ref LL_AHB2_GRP1_PERIPH_GPIOF
1028:Drivers/STM32U5xx_HAL_Driver/Inc/stm32u5xx_ll_bus.h ****   *         @arg @ref LL_AHB2_GRP1_PERIPH_GPIOG
1029:Drivers/STM32U5xx_HAL_Driver/Inc/stm32u5xx_ll_bus.h ****   *         @arg @ref LL_AHB2_GRP1_PERIPH_GPIOH
1030:Drivers/STM32U5xx_HAL_Driver/Inc/stm32u5xx_ll_bus.h ****   *         @arg @ref LL_AHB2_GRP1_PERIPH_GPIOI
1031:Drivers/STM32U5xx_HAL_Driver/Inc/stm32u5xx_ll_bus.h ****   *         @arg @ref LL_AHB2_GRP1_PERIPH_GPIOJ (*)
1032:Drivers/STM32U5xx_HAL_Driver/Inc/stm32u5xx_ll_bus.h ****   *         @arg @ref LL_AHB2_GRP1_PERIPH_ADC12
1033:Drivers/STM32U5xx_HAL_Driver/Inc/stm32u5xx_ll_bus.h ****   *         @arg @ref LL_AHB2_GRP1_PERIPH_DCMI_PSSI
1034:Drivers/STM32U5xx_HAL_Driver/Inc/stm32u5xx_ll_bus.h ****   *         @arg @ref LL_AHB2_GRP1_PERIPH_USBFS (*)
1035:Drivers/STM32U5xx_HAL_Driver/Inc/stm32u5xx_ll_bus.h ****   *         @arg @ref LL_AHB2_GRP1_PERIPH_USBHS (*)
1036:Drivers/STM32U5xx_HAL_Driver/Inc/stm32u5xx_ll_bus.h ****   *         @arg @ref LL_AHB2_GRP1_PERIPH_USBPHY (*)
1037:Drivers/STM32U5xx_HAL_Driver/Inc/stm32u5xx_ll_bus.h ****   *         @arg @ref LL_AHB2_GRP1_PERIPH_AES
1038:Drivers/STM32U5xx_HAL_Driver/Inc/stm32u5xx_ll_bus.h ****   *         @arg @ref LL_AHB2_GRP1_PERIPH_HASH
1039:Drivers/STM32U5xx_HAL_Driver/Inc/stm32u5xx_ll_bus.h ****   *         @arg @ref LL_AHB2_GRP1_PERIPH_RNG
1040:Drivers/STM32U5xx_HAL_Driver/Inc/stm32u5xx_ll_bus.h ****   *         @arg @ref LL_AHB2_GRP1_PERIPH_PKA
1041:Drivers/STM32U5xx_HAL_Driver/Inc/stm32u5xx_ll_bus.h ****   *         @arg @ref LL_AHB2_GRP1_PERIPH_SAES
1042:Drivers/STM32U5xx_HAL_Driver/Inc/stm32u5xx_ll_bus.h ****   *         @arg @ref LL_AHB2_GRP1_PERIPH_OCTOSPIM
1043:Drivers/STM32U5xx_HAL_Driver/Inc/stm32u5xx_ll_bus.h ****   *         @arg @ref LL_AHB2_GRP1_PERIPH_OTFDEC1
1044:Drivers/STM32U5xx_HAL_Driver/Inc/stm32u5xx_ll_bus.h ****   *         @arg @ref LL_AHB2_GRP1_PERIPH_OTFDEC2
1045:Drivers/STM32U5xx_HAL_Driver/Inc/stm32u5xx_ll_bus.h ****   *         @arg @ref LL_AHB2_GRP1_PERIPH_SDMMC1
1046:Drivers/STM32U5xx_HAL_Driver/Inc/stm32u5xx_ll_bus.h ****   *         @arg @ref LL_AHB2_GRP1_PERIPH_SDMMC2
1047:Drivers/STM32U5xx_HAL_Driver/Inc/stm32u5xx_ll_bus.h ****   *         @arg @ref LL_AHB2_GRP1_PERIPH_SRAM2
1048:Drivers/STM32U5xx_HAL_Driver/Inc/stm32u5xx_ll_bus.h ****   *         @arg @ref LL_AHB2_GRP1_PERIPH_SRAM3
1049:Drivers/STM32U5xx_HAL_Driver/Inc/stm32u5xx_ll_bus.h ****   *
1050:Drivers/STM32U5xx_HAL_Driver/Inc/stm32u5xx_ll_bus.h ****   *        (*) value not defined in all devices.
1051:Drivers/STM32U5xx_HAL_Driver/Inc/stm32u5xx_ll_bus.h ****   * @retval None
1052:Drivers/STM32U5xx_HAL_Driver/Inc/stm32u5xx_ll_bus.h ****   */
1053:Drivers/STM32U5xx_HAL_Driver/Inc/stm32u5xx_ll_bus.h **** __STATIC_INLINE void LL_AHB2_GRP1_EnableClockStopSleep(uint32_t Periphs)
1054:Drivers/STM32U5xx_HAL_Driver/Inc/stm32u5xx_ll_bus.h **** {
1055:Drivers/STM32U5xx_HAL_Driver/Inc/stm32u5xx_ll_bus.h ****   __IO uint32_t tmpreg;
1056:Drivers/STM32U5xx_HAL_Driver/Inc/stm32u5xx_ll_bus.h ****   SET_BIT(RCC->AHB2SMENR1, Periphs);
1057:Drivers/STM32U5xx_HAL_Driver/Inc/stm32u5xx_ll_bus.h ****   /* Delay after an RCC peripheral clock enabling */
1058:Drivers/STM32U5xx_HAL_Driver/Inc/stm32u5xx_ll_bus.h ****   tmpreg = READ_BIT(RCC->AHB2SMENR1, Periphs);
1059:Drivers/STM32U5xx_HAL_Driver/Inc/stm32u5xx_ll_bus.h ****   (void)tmpreg;
1060:Drivers/STM32U5xx_HAL_Driver/Inc/stm32u5xx_ll_bus.h **** }
1061:Drivers/STM32U5xx_HAL_Driver/Inc/stm32u5xx_ll_bus.h **** 
1062:Drivers/STM32U5xx_HAL_Driver/Inc/stm32u5xx_ll_bus.h **** /**
1063:Drivers/STM32U5xx_HAL_Driver/Inc/stm32u5xx_ll_bus.h ****   * @brief  Check if AHB2 peripheral clocks in Sleep and Stop modes is enabled or not
1064:Drivers/STM32U5xx_HAL_Driver/Inc/stm32u5xx_ll_bus.h ****   * @rmtoll AHB2SMENR1    GPIOASMEN      LL_AHB2_GRP1_IsEnabledClockStopSleep\n
1065:Drivers/STM32U5xx_HAL_Driver/Inc/stm32u5xx_ll_bus.h ****   *         AHB2SMENR1    GPIOBSMEN      LL_AHB2_GRP1_IsEnabledClockStopSleep\n
1066:Drivers/STM32U5xx_HAL_Driver/Inc/stm32u5xx_ll_bus.h ****   *         AHB2SMENR1    GPIOCSMEN      LL_AHB2_GRP1_IsEnabledClockStopSleep\n
1067:Drivers/STM32U5xx_HAL_Driver/Inc/stm32u5xx_ll_bus.h ****   *         AHB2SMENR1    GPIODSMEN      LL_AHB2_GRP1_IsEnabledClockStopSleep\n
1068:Drivers/STM32U5xx_HAL_Driver/Inc/stm32u5xx_ll_bus.h ****   *         AHB2SMENR1    GPIOESMEN      LL_AHB2_GRP1_IsEnabledClockStopSleep\n
1069:Drivers/STM32U5xx_HAL_Driver/Inc/stm32u5xx_ll_bus.h ****   *         AHB2SMENR1    GPIOFSMEN      LL_AHB2_GRP1_IsEnabledClockStopSleep\n
ARM GAS  C:\Users\Yamaan\AppData\Local\Temp\ccBR0E2V.s 			page 36


1070:Drivers/STM32U5xx_HAL_Driver/Inc/stm32u5xx_ll_bus.h ****   *         AHB2SMENR1    GPIOGSMEN      LL_AHB2_GRP1_IsEnabledClockStopSleep\n
1071:Drivers/STM32U5xx_HAL_Driver/Inc/stm32u5xx_ll_bus.h ****   *         AHB2SMENR1    GPIOHSMEN      LL_AHB2_GRP1_IsEnabledClockStopSleep\n
1072:Drivers/STM32U5xx_HAL_Driver/Inc/stm32u5xx_ll_bus.h ****   *         AHB2SMENR1    GPIOISMEN      LL_AHB2_GRP1_IsEnabledClockStopSleep\n
1073:Drivers/STM32U5xx_HAL_Driver/Inc/stm32u5xx_ll_bus.h ****   *         AHB2SMENR1    GPIOJSMEN      LL_AHB2_GRP1_IsEnabledClockStopSleep\n
1074:Drivers/STM32U5xx_HAL_Driver/Inc/stm32u5xx_ll_bus.h ****   *         AHB2SMENR1    ADC12SMEN      LL_AHB2_GRP1_IsEnabledClockStopSleep\n
1075:Drivers/STM32U5xx_HAL_Driver/Inc/stm32u5xx_ll_bus.h ****   *         AHB2SMENR1    DCMI_PSSISMEN  LL_AHB2_GRP1_IsEnabledClockStopSleep\n
1076:Drivers/STM32U5xx_HAL_Driver/Inc/stm32u5xx_ll_bus.h ****   *         AHB2SMENR1    OTGSMEN        LL_AHB2_GRP1_IsEnabledClockStopSleep\n
1077:Drivers/STM32U5xx_HAL_Driver/Inc/stm32u5xx_ll_bus.h ****   *         AHB2SMENR1    USBPHYCMEN     LL_AHB2_GRP1_IsEnabledClockStopSleep\n
1078:Drivers/STM32U5xx_HAL_Driver/Inc/stm32u5xx_ll_bus.h ****   *         AHB2SMENR1    AESSMEN        LL_AHB2_GRP1_IsEnabledClockStopSleep\n
1079:Drivers/STM32U5xx_HAL_Driver/Inc/stm32u5xx_ll_bus.h ****   *         AHB2SMENR1    HASHSMEN       LL_AHB2_GRP1_IsEnabledClockStopSleep\n
1080:Drivers/STM32U5xx_HAL_Driver/Inc/stm32u5xx_ll_bus.h ****   *         AHB2SMENR1    RNGSMEN        LL_AHB2_GRP1_IsEnabledClockStopSleep\n
1081:Drivers/STM32U5xx_HAL_Driver/Inc/stm32u5xx_ll_bus.h ****   *         AHB2SMENR1    PKASMEN        LL_AHB2_GRP1_IsEnabledClockStopSleep\n
1082:Drivers/STM32U5xx_HAL_Driver/Inc/stm32u5xx_ll_bus.h ****   *         AHB2SMENR1    SAESSMEN       LL_AHB2_GRP1_IsEnabledClockStopSleep\n
1083:Drivers/STM32U5xx_HAL_Driver/Inc/stm32u5xx_ll_bus.h ****   *         AHB2SMENR1    OSPIMSMEN      LL_AHB2_GRP1_IsEnabledClockStopSleep\n
1084:Drivers/STM32U5xx_HAL_Driver/Inc/stm32u5xx_ll_bus.h ****   *         AHB2SMENR1    OTFDEC1SMEN    LL_AHB2_GRP1_IsEnabledClockStopSleep\n
1085:Drivers/STM32U5xx_HAL_Driver/Inc/stm32u5xx_ll_bus.h ****   *         AHB2SMENR1    OTFDEC2SMEN    LL_AHB2_GRP1_IsEnabledClockStopSleep\n
1086:Drivers/STM32U5xx_HAL_Driver/Inc/stm32u5xx_ll_bus.h ****   *         AHB2SMENR1    SDMMC1SMEN     LL_AHB2_GRP1_IsEnabledClockStopSleep\n
1087:Drivers/STM32U5xx_HAL_Driver/Inc/stm32u5xx_ll_bus.h ****   *         AHB2SMENR1    SDMMC2SMEN     LL_AHB2_GRP1_IsEnabledClockStopSleep\n
1088:Drivers/STM32U5xx_HAL_Driver/Inc/stm32u5xx_ll_bus.h ****   *         AHB2SMENR1    SRAM2SMEN      LL_AHB2_GRP1_IsEnabledClockStopSleep\n
1089:Drivers/STM32U5xx_HAL_Driver/Inc/stm32u5xx_ll_bus.h ****   *         AHB2SMENR1    SRAM3SMEN      LL_AHB2_GRP1_IsEnabledClockStopSleep\n
1090:Drivers/STM32U5xx_HAL_Driver/Inc/stm32u5xx_ll_bus.h ****   * @param  Periphs This parameter can be a combination of the following values:
1091:Drivers/STM32U5xx_HAL_Driver/Inc/stm32u5xx_ll_bus.h ****   *         @arg @ref LL_AHB2_GRP1_PERIPH_ALL
1092:Drivers/STM32U5xx_HAL_Driver/Inc/stm32u5xx_ll_bus.h ****   *         @arg @ref LL_AHB2_GRP1_PERIPH_GPIOA
1093:Drivers/STM32U5xx_HAL_Driver/Inc/stm32u5xx_ll_bus.h ****   *         @arg @ref LL_AHB2_GRP1_PERIPH_GPIOB
1094:Drivers/STM32U5xx_HAL_Driver/Inc/stm32u5xx_ll_bus.h ****   *         @arg @ref LL_AHB2_GRP1_PERIPH_GPIOC
1095:Drivers/STM32U5xx_HAL_Driver/Inc/stm32u5xx_ll_bus.h ****   *         @arg @ref LL_AHB2_GRP1_PERIPH_GPIOD
1096:Drivers/STM32U5xx_HAL_Driver/Inc/stm32u5xx_ll_bus.h ****   *         @arg @ref LL_AHB2_GRP1_PERIPH_GPIOE
1097:Drivers/STM32U5xx_HAL_Driver/Inc/stm32u5xx_ll_bus.h ****   *         @arg @ref LL_AHB2_GRP1_PERIPH_GPIOF
1098:Drivers/STM32U5xx_HAL_Driver/Inc/stm32u5xx_ll_bus.h ****   *         @arg @ref LL_AHB2_GRP1_PERIPH_GPIOG
1099:Drivers/STM32U5xx_HAL_Driver/Inc/stm32u5xx_ll_bus.h ****   *         @arg @ref LL_AHB2_GRP1_PERIPH_GPIOH
1100:Drivers/STM32U5xx_HAL_Driver/Inc/stm32u5xx_ll_bus.h ****   *         @arg @ref LL_AHB2_GRP1_PERIPH_GPIOI
1101:Drivers/STM32U5xx_HAL_Driver/Inc/stm32u5xx_ll_bus.h ****   *         @arg @ref LL_AHB2_GRP1_PERIPH_GPIOJ (*)
1102:Drivers/STM32U5xx_HAL_Driver/Inc/stm32u5xx_ll_bus.h ****   *         @arg @ref LL_AHB2_GRP1_PERIPH_ADC12
1103:Drivers/STM32U5xx_HAL_Driver/Inc/stm32u5xx_ll_bus.h ****   *         @arg @ref LL_AHB2_GRP1_PERIPH_DCMI_PSSI
1104:Drivers/STM32U5xx_HAL_Driver/Inc/stm32u5xx_ll_bus.h ****   *         @arg @ref LL_AHB2_GRP1_PERIPH_USBFS (*)
1105:Drivers/STM32U5xx_HAL_Driver/Inc/stm32u5xx_ll_bus.h ****   *         @arg @ref LL_AHB2_GRP1_PERIPH_USBHS (*)
1106:Drivers/STM32U5xx_HAL_Driver/Inc/stm32u5xx_ll_bus.h ****   *         @arg @ref LL_AHB2_GRP1_PERIPH_USBPHY (*)
1107:Drivers/STM32U5xx_HAL_Driver/Inc/stm32u5xx_ll_bus.h ****   *         @arg @ref LL_AHB2_GRP1_PERIPH_AES
1108:Drivers/STM32U5xx_HAL_Driver/Inc/stm32u5xx_ll_bus.h ****   *         @arg @ref LL_AHB2_GRP1_PERIPH_HASH
1109:Drivers/STM32U5xx_HAL_Driver/Inc/stm32u5xx_ll_bus.h ****   *         @arg @ref LL_AHB2_GRP1_PERIPH_RNG
1110:Drivers/STM32U5xx_HAL_Driver/Inc/stm32u5xx_ll_bus.h ****   *         @arg @ref LL_AHB2_GRP1_PERIPH_PKA
1111:Drivers/STM32U5xx_HAL_Driver/Inc/stm32u5xx_ll_bus.h ****   *         @arg @ref LL_AHB2_GRP1_PERIPH_SAES
1112:Drivers/STM32U5xx_HAL_Driver/Inc/stm32u5xx_ll_bus.h ****   *         @arg @ref LL_AHB2_GRP1_PERIPH_OCTOSPIM
1113:Drivers/STM32U5xx_HAL_Driver/Inc/stm32u5xx_ll_bus.h ****   *         @arg @ref LL_AHB2_GRP1_PERIPH_OTFDEC1
1114:Drivers/STM32U5xx_HAL_Driver/Inc/stm32u5xx_ll_bus.h ****   *         @arg @ref LL_AHB2_GRP1_PERIPH_OTFDEC2
1115:Drivers/STM32U5xx_HAL_Driver/Inc/stm32u5xx_ll_bus.h ****   *         @arg @ref LL_AHB2_GRP1_PERIPH_SDMMC1
1116:Drivers/STM32U5xx_HAL_Driver/Inc/stm32u5xx_ll_bus.h ****   *         @arg @ref LL_AHB2_GRP1_PERIPH_SDMMC2
1117:Drivers/STM32U5xx_HAL_Driver/Inc/stm32u5xx_ll_bus.h ****   *         @arg @ref LL_AHB2_GRP1_PERIPH_SRAM2
1118:Drivers/STM32U5xx_HAL_Driver/Inc/stm32u5xx_ll_bus.h ****   *         @arg @ref LL_AHB2_GRP1_PERIPH_SRAM3
1119:Drivers/STM32U5xx_HAL_Driver/Inc/stm32u5xx_ll_bus.h ****   *
1120:Drivers/STM32U5xx_HAL_Driver/Inc/stm32u5xx_ll_bus.h ****   *        (*) value not defined in all devices.
1121:Drivers/STM32U5xx_HAL_Driver/Inc/stm32u5xx_ll_bus.h ****   * @retval State of Periphs (1 or 0).
1122:Drivers/STM32U5xx_HAL_Driver/Inc/stm32u5xx_ll_bus.h ****   */
1123:Drivers/STM32U5xx_HAL_Driver/Inc/stm32u5xx_ll_bus.h **** __STATIC_INLINE uint32_t LL_AHB2_GRP1_IsEnabledClockStopSleep(uint32_t Periphs)
1124:Drivers/STM32U5xx_HAL_Driver/Inc/stm32u5xx_ll_bus.h **** {
1125:Drivers/STM32U5xx_HAL_Driver/Inc/stm32u5xx_ll_bus.h ****   return ((READ_BIT(RCC->AHB2SMENR1, Periphs) == Periphs) ? 1UL : 0UL);
1126:Drivers/STM32U5xx_HAL_Driver/Inc/stm32u5xx_ll_bus.h **** }
ARM GAS  C:\Users\Yamaan\AppData\Local\Temp\ccBR0E2V.s 			page 37


1127:Drivers/STM32U5xx_HAL_Driver/Inc/stm32u5xx_ll_bus.h **** 
1128:Drivers/STM32U5xx_HAL_Driver/Inc/stm32u5xx_ll_bus.h **** /**
1129:Drivers/STM32U5xx_HAL_Driver/Inc/stm32u5xx_ll_bus.h ****   * @brief  Disable AHB2 peripheral clocks in Sleep and Stop modes
1130:Drivers/STM32U5xx_HAL_Driver/Inc/stm32u5xx_ll_bus.h ****   * @rmtoll AHB2SMENR1    GPIOASMEN      LL_AHB2_GRP1_DisableClockStopSleep\n
1131:Drivers/STM32U5xx_HAL_Driver/Inc/stm32u5xx_ll_bus.h ****   *         AHB2SMENR1    GPIOBSMEN      LL_AHB2_GRP1_DisableClockStopSleep\n
1132:Drivers/STM32U5xx_HAL_Driver/Inc/stm32u5xx_ll_bus.h ****   *         AHB2SMENR1    GPIOCSMEN      LL_AHB2_GRP1_DisableClockStopSleep\n
1133:Drivers/STM32U5xx_HAL_Driver/Inc/stm32u5xx_ll_bus.h ****   *         AHB2SMENR1    GPIODSMEN      LL_AHB2_GRP1_DisableClockStopSleep\n
1134:Drivers/STM32U5xx_HAL_Driver/Inc/stm32u5xx_ll_bus.h ****   *         AHB2SMENR1    GPIOESMEN      LL_AHB2_GRP1_DisableClockStopSleep\n
1135:Drivers/STM32U5xx_HAL_Driver/Inc/stm32u5xx_ll_bus.h ****   *         AHB2SMENR1    GPIOFSMEN      LL_AHB2_GRP1_DisableClockStopSleep\n
1136:Drivers/STM32U5xx_HAL_Driver/Inc/stm32u5xx_ll_bus.h ****   *         AHB2SMENR1    GPIOGSMEN      LL_AHB2_GRP1_DisableClockStopSleep\n
1137:Drivers/STM32U5xx_HAL_Driver/Inc/stm32u5xx_ll_bus.h ****   *         AHB2SMENR1    GPIOHSMEN      LL_AHB2_GRP1_DisableClockStopSleep\n
1138:Drivers/STM32U5xx_HAL_Driver/Inc/stm32u5xx_ll_bus.h ****   *         AHB2SMENR1    GPIOISMEN      LL_AHB2_GRP1_DisableClockStopSleep\n
1139:Drivers/STM32U5xx_HAL_Driver/Inc/stm32u5xx_ll_bus.h ****   *         AHB2SMENR1    GPIOJSMEN      LL_AHB2_GRP1_DisableClockStopSleep\n
1140:Drivers/STM32U5xx_HAL_Driver/Inc/stm32u5xx_ll_bus.h ****   *         AHB2SMENR1    ADC12SMEN      LL_AHB2_GRP1_DisableClockStopSleep\n
1141:Drivers/STM32U5xx_HAL_Driver/Inc/stm32u5xx_ll_bus.h ****   *         AHB2SMENR1    DCMI_PSSISMEN  LL_AHB2_GRP1_DisableClockStopSleep\n
1142:Drivers/STM32U5xx_HAL_Driver/Inc/stm32u5xx_ll_bus.h ****   *         AHB2SMENR1    OTGSMEN        LL_AHB2_GRP1_DisableClockStopSleep\n
1143:Drivers/STM32U5xx_HAL_Driver/Inc/stm32u5xx_ll_bus.h ****   *         AHB2SMENR1    USBPHYCSMEN    LL_AHB2_GRP1_DisableClockStopSleep\n
1144:Drivers/STM32U5xx_HAL_Driver/Inc/stm32u5xx_ll_bus.h ****   *         AHB2SMENR1    AESSMEN        LL_AHB2_GRP1_DisableClockStopSleep\n
1145:Drivers/STM32U5xx_HAL_Driver/Inc/stm32u5xx_ll_bus.h ****   *         AHB2SMENR1    HASHSMEN       LL_AHB2_GRP1_DisableClockStopSleep\n
1146:Drivers/STM32U5xx_HAL_Driver/Inc/stm32u5xx_ll_bus.h ****   *         AHB2SMENR1    RNGSMEN        LL_AHB2_GRP1_DisableClockStopSleep\n
1147:Drivers/STM32U5xx_HAL_Driver/Inc/stm32u5xx_ll_bus.h ****   *         AHB2SMENR1    PKASMEN        LL_AHB2_GRP1_DisableClockStopSleep\n
1148:Drivers/STM32U5xx_HAL_Driver/Inc/stm32u5xx_ll_bus.h ****   *         AHB2SMENR1    SAESSMEN       LL_AHB2_GRP1_DisableClockStopSleep\n
1149:Drivers/STM32U5xx_HAL_Driver/Inc/stm32u5xx_ll_bus.h ****   *         AHB2SMENR1    OSPIMSMEN      LL_AHB2_GRP1_DisableClockStopSleep\n
1150:Drivers/STM32U5xx_HAL_Driver/Inc/stm32u5xx_ll_bus.h ****   *         AHB2SMENR1    OTFDEC1SMEN    LL_AHB2_GRP1_DisableClockStopSleep\n
1151:Drivers/STM32U5xx_HAL_Driver/Inc/stm32u5xx_ll_bus.h ****   *         AHB2SMENR1    OTFDEC2SMEN    LL_AHB2_GRP1_DisableClockStopSleep\n
1152:Drivers/STM32U5xx_HAL_Driver/Inc/stm32u5xx_ll_bus.h ****   *         AHB2SMENR1    SDMMC1SMEN     LL_AHB2_GRP1_DisableClockStopSleep\n
1153:Drivers/STM32U5xx_HAL_Driver/Inc/stm32u5xx_ll_bus.h ****   *         AHB2SMENR1    SDMMC2SMEN     LL_AHB2_GRP1_DisableClockStopSleep\n
1154:Drivers/STM32U5xx_HAL_Driver/Inc/stm32u5xx_ll_bus.h ****   *         AHB2SMENR1    SRAM2SMEN      LL_AHB2_GRP1_DisableClockStopSleep\n
1155:Drivers/STM32U5xx_HAL_Driver/Inc/stm32u5xx_ll_bus.h ****   *         AHB2SMENR1    SRAM3SMEN      LL_AHB2_GRP1_DisableClockStopSleep\n
1156:Drivers/STM32U5xx_HAL_Driver/Inc/stm32u5xx_ll_bus.h ****   * @param  Periphs This parameter can be a combination of the following values:
1157:Drivers/STM32U5xx_HAL_Driver/Inc/stm32u5xx_ll_bus.h ****   *         @arg @ref LL_AHB2_GRP1_PERIPH_ALL
1158:Drivers/STM32U5xx_HAL_Driver/Inc/stm32u5xx_ll_bus.h ****   *         @arg @ref LL_AHB2_GRP1_PERIPH_GPIOA
1159:Drivers/STM32U5xx_HAL_Driver/Inc/stm32u5xx_ll_bus.h ****   *         @arg @ref LL_AHB2_GRP1_PERIPH_GPIOB
1160:Drivers/STM32U5xx_HAL_Driver/Inc/stm32u5xx_ll_bus.h ****   *         @arg @ref LL_AHB2_GRP1_PERIPH_GPIOC
1161:Drivers/STM32U5xx_HAL_Driver/Inc/stm32u5xx_ll_bus.h ****   *         @arg @ref LL_AHB2_GRP1_PERIPH_GPIOD
1162:Drivers/STM32U5xx_HAL_Driver/Inc/stm32u5xx_ll_bus.h ****   *         @arg @ref LL_AHB2_GRP1_PERIPH_GPIOE
1163:Drivers/STM32U5xx_HAL_Driver/Inc/stm32u5xx_ll_bus.h ****   *         @arg @ref LL_AHB2_GRP1_PERIPH_GPIOF
1164:Drivers/STM32U5xx_HAL_Driver/Inc/stm32u5xx_ll_bus.h ****   *         @arg @ref LL_AHB2_GRP1_PERIPH_GPIOG
1165:Drivers/STM32U5xx_HAL_Driver/Inc/stm32u5xx_ll_bus.h ****   *         @arg @ref LL_AHB2_GRP1_PERIPH_GPIOH
1166:Drivers/STM32U5xx_HAL_Driver/Inc/stm32u5xx_ll_bus.h ****   *         @arg @ref LL_AHB2_GRP1_PERIPH_GPIOI
1167:Drivers/STM32U5xx_HAL_Driver/Inc/stm32u5xx_ll_bus.h ****   *         @arg @ref LL_AHB2_GRP1_PERIPH_GPIOJ (*)
1168:Drivers/STM32U5xx_HAL_Driver/Inc/stm32u5xx_ll_bus.h ****   *         @arg @ref LL_AHB2_GRP1_PERIPH_ADC12
1169:Drivers/STM32U5xx_HAL_Driver/Inc/stm32u5xx_ll_bus.h ****   *         @arg @ref LL_AHB2_GRP1_PERIPH_DCMI_PSSI
1170:Drivers/STM32U5xx_HAL_Driver/Inc/stm32u5xx_ll_bus.h ****   *         @arg @ref LL_AHB2_GRP1_PERIPH_USBFS (*)
1171:Drivers/STM32U5xx_HAL_Driver/Inc/stm32u5xx_ll_bus.h ****   *         @arg @ref LL_AHB2_GRP1_PERIPH_USBHS (*)
1172:Drivers/STM32U5xx_HAL_Driver/Inc/stm32u5xx_ll_bus.h ****   *         @arg @ref LL_AHB2_GRP1_PERIPH_USBPHY (*)
1173:Drivers/STM32U5xx_HAL_Driver/Inc/stm32u5xx_ll_bus.h ****   *         @arg @ref LL_AHB2_GRP1_PERIPH_AES
1174:Drivers/STM32U5xx_HAL_Driver/Inc/stm32u5xx_ll_bus.h ****   *         @arg @ref LL_AHB2_GRP1_PERIPH_HASH
1175:Drivers/STM32U5xx_HAL_Driver/Inc/stm32u5xx_ll_bus.h ****   *         @arg @ref LL_AHB2_GRP1_PERIPH_RNG
1176:Drivers/STM32U5xx_HAL_Driver/Inc/stm32u5xx_ll_bus.h ****   *         @arg @ref LL_AHB2_GRP1_PERIPH_PKA
1177:Drivers/STM32U5xx_HAL_Driver/Inc/stm32u5xx_ll_bus.h ****   *         @arg @ref LL_AHB2_GRP1_PERIPH_SAES
1178:Drivers/STM32U5xx_HAL_Driver/Inc/stm32u5xx_ll_bus.h ****   *         @arg @ref LL_AHB2_GRP1_PERIPH_OCTOSPIM
1179:Drivers/STM32U5xx_HAL_Driver/Inc/stm32u5xx_ll_bus.h ****   *         @arg @ref LL_AHB2_GRP1_PERIPH_OTFDEC1
1180:Drivers/STM32U5xx_HAL_Driver/Inc/stm32u5xx_ll_bus.h ****   *         @arg @ref LL_AHB2_GRP1_PERIPH_OTFDEC2
1181:Drivers/STM32U5xx_HAL_Driver/Inc/stm32u5xx_ll_bus.h ****   *         @arg @ref LL_AHB2_GRP1_PERIPH_SDMMC1
1182:Drivers/STM32U5xx_HAL_Driver/Inc/stm32u5xx_ll_bus.h ****   *         @arg @ref LL_AHB2_GRP1_PERIPH_SDMMC2
1183:Drivers/STM32U5xx_HAL_Driver/Inc/stm32u5xx_ll_bus.h ****   *         @arg @ref LL_AHB2_GRP1_PERIPH_SRAM2
ARM GAS  C:\Users\Yamaan\AppData\Local\Temp\ccBR0E2V.s 			page 38


1184:Drivers/STM32U5xx_HAL_Driver/Inc/stm32u5xx_ll_bus.h ****   *         @arg @ref LL_AHB2_GRP1_PERIPH_SRAM3
1185:Drivers/STM32U5xx_HAL_Driver/Inc/stm32u5xx_ll_bus.h ****   *
1186:Drivers/STM32U5xx_HAL_Driver/Inc/stm32u5xx_ll_bus.h ****   *        (*) value not defined in all devices.
1187:Drivers/STM32U5xx_HAL_Driver/Inc/stm32u5xx_ll_bus.h ****   * @retval None
1188:Drivers/STM32U5xx_HAL_Driver/Inc/stm32u5xx_ll_bus.h ****   */
1189:Drivers/STM32U5xx_HAL_Driver/Inc/stm32u5xx_ll_bus.h **** __STATIC_INLINE void LL_AHB2_GRP1_DisableClockStopSleep(uint32_t Periphs)
1190:Drivers/STM32U5xx_HAL_Driver/Inc/stm32u5xx_ll_bus.h **** {
1191:Drivers/STM32U5xx_HAL_Driver/Inc/stm32u5xx_ll_bus.h ****   CLEAR_BIT(RCC->AHB2SMENR1, Periphs);
1192:Drivers/STM32U5xx_HAL_Driver/Inc/stm32u5xx_ll_bus.h **** }
1193:Drivers/STM32U5xx_HAL_Driver/Inc/stm32u5xx_ll_bus.h **** 
1194:Drivers/STM32U5xx_HAL_Driver/Inc/stm32u5xx_ll_bus.h **** /**
1195:Drivers/STM32U5xx_HAL_Driver/Inc/stm32u5xx_ll_bus.h ****   * @}
1196:Drivers/STM32U5xx_HAL_Driver/Inc/stm32u5xx_ll_bus.h ****   */
1197:Drivers/STM32U5xx_HAL_Driver/Inc/stm32u5xx_ll_bus.h **** 
1198:Drivers/STM32U5xx_HAL_Driver/Inc/stm32u5xx_ll_bus.h **** /** @defgroup BUS_LL_EF_AHB3 AHB3
1199:Drivers/STM32U5xx_HAL_Driver/Inc/stm32u5xx_ll_bus.h ****   * @{
1200:Drivers/STM32U5xx_HAL_Driver/Inc/stm32u5xx_ll_bus.h ****   */
1201:Drivers/STM32U5xx_HAL_Driver/Inc/stm32u5xx_ll_bus.h **** /**
1202:Drivers/STM32U5xx_HAL_Driver/Inc/stm32u5xx_ll_bus.h ****   * @brief  Enable AHB3 peripherals clock.
1203:Drivers/STM32U5xx_HAL_Driver/Inc/stm32u5xx_ll_bus.h ****   * @rmtoll AHB3ENR  LPGPIO1EN     LL_AHB3_GRP1_EnableClock\n
1204:Drivers/STM32U5xx_HAL_Driver/Inc/stm32u5xx_ll_bus.h ****   *         AHB3ENR  PWREN         LL_AHB3_GRP1_EnableClock\n
1205:Drivers/STM32U5xx_HAL_Driver/Inc/stm32u5xx_ll_bus.h ****   *         AHB3ENR  ADC4EN        LL_AHB3_GRP1_EnableClock\n
1206:Drivers/STM32U5xx_HAL_Driver/Inc/stm32u5xx_ll_bus.h ****   *         AHB3ENR  DAC1EN        LL_AHB3_GRP1_EnableClock\n
1207:Drivers/STM32U5xx_HAL_Driver/Inc/stm32u5xx_ll_bus.h ****   *         AHB3ENR  LPDMA1EN      LL_AHB3_GRP1_EnableClock\n
1208:Drivers/STM32U5xx_HAL_Driver/Inc/stm32u5xx_ll_bus.h ****   *         AHB3ENR  ADF1EN        LL_AHB3_GRP1_EnableClock\n
1209:Drivers/STM32U5xx_HAL_Driver/Inc/stm32u5xx_ll_bus.h ****   *         AHB3ENR  GTZC2EN       LL_AHB3_GRP1_EnableClock\n
1210:Drivers/STM32U5xx_HAL_Driver/Inc/stm32u5xx_ll_bus.h ****   *         AHB3ENR  SRAM4EN       LL_AHB3_GRP1_EnableClock\n
1211:Drivers/STM32U5xx_HAL_Driver/Inc/stm32u5xx_ll_bus.h ****   * @param  Periphs This parameter can be a combination of the following values:
1212:Drivers/STM32U5xx_HAL_Driver/Inc/stm32u5xx_ll_bus.h ****   *         @arg @ref LL_AHB3_GRP1_PERIPH_ALL
1213:Drivers/STM32U5xx_HAL_Driver/Inc/stm32u5xx_ll_bus.h ****   *         @arg @ref LL_AHB3_GRP1_PERIPH_LPGPIO1
1214:Drivers/STM32U5xx_HAL_Driver/Inc/stm32u5xx_ll_bus.h ****   *         @arg @ref LL_AHB3_GRP1_PERIPH_PWR
1215:Drivers/STM32U5xx_HAL_Driver/Inc/stm32u5xx_ll_bus.h ****   *         @arg @ref LL_AHB3_GRP1_PERIPH_ADC4
1216:Drivers/STM32U5xx_HAL_Driver/Inc/stm32u5xx_ll_bus.h ****   *         @arg @ref LL_AHB3_GRP1_PERIPH_DAC1
1217:Drivers/STM32U5xx_HAL_Driver/Inc/stm32u5xx_ll_bus.h ****   *         @arg @ref LL_AHB3_GRP1_PERIPH_LPDMA1
1218:Drivers/STM32U5xx_HAL_Driver/Inc/stm32u5xx_ll_bus.h ****   *         @arg @ref LL_AHB3_GRP1_PERIPH_ADF1
1219:Drivers/STM32U5xx_HAL_Driver/Inc/stm32u5xx_ll_bus.h ****   *         @arg @ref LL_AHB3_GRP1_PERIPH_GTZC2
1220:Drivers/STM32U5xx_HAL_Driver/Inc/stm32u5xx_ll_bus.h ****   *         @arg @ref LL_AHB3_GRP1_PERIPH_SRAM4
1221:Drivers/STM32U5xx_HAL_Driver/Inc/stm32u5xx_ll_bus.h ****   * @retval None
1222:Drivers/STM32U5xx_HAL_Driver/Inc/stm32u5xx_ll_bus.h ****   */
1223:Drivers/STM32U5xx_HAL_Driver/Inc/stm32u5xx_ll_bus.h **** __STATIC_INLINE void LL_AHB3_GRP1_EnableClock(uint32_t Periphs)
1224:Drivers/STM32U5xx_HAL_Driver/Inc/stm32u5xx_ll_bus.h **** {
1225:Drivers/STM32U5xx_HAL_Driver/Inc/stm32u5xx_ll_bus.h ****   __IO uint32_t tmpreg;
1226:Drivers/STM32U5xx_HAL_Driver/Inc/stm32u5xx_ll_bus.h ****   SET_BIT(RCC->AHB3ENR, Periphs);
1227:Drivers/STM32U5xx_HAL_Driver/Inc/stm32u5xx_ll_bus.h ****   /* Delay after an RCC peripheral clock enabling */
1228:Drivers/STM32U5xx_HAL_Driver/Inc/stm32u5xx_ll_bus.h ****   tmpreg = READ_BIT(RCC->AHB3ENR, Periphs);
1229:Drivers/STM32U5xx_HAL_Driver/Inc/stm32u5xx_ll_bus.h ****   (void)tmpreg;
1230:Drivers/STM32U5xx_HAL_Driver/Inc/stm32u5xx_ll_bus.h **** }
1231:Drivers/STM32U5xx_HAL_Driver/Inc/stm32u5xx_ll_bus.h **** 
1232:Drivers/STM32U5xx_HAL_Driver/Inc/stm32u5xx_ll_bus.h **** /**
1233:Drivers/STM32U5xx_HAL_Driver/Inc/stm32u5xx_ll_bus.h ****   * @brief  Check if AHB3 peripheral clock is enabled or not
1234:Drivers/STM32U5xx_HAL_Driver/Inc/stm32u5xx_ll_bus.h ****   * @rmtoll AHB3ENR  LPGPIO1EN     LL_AHB3_GRP1_IsEnabledClock\n
1235:Drivers/STM32U5xx_HAL_Driver/Inc/stm32u5xx_ll_bus.h ****   *         AHB3ENR  PWREN         LL_AHB3_GRP1_IsEnabledClock\n
1236:Drivers/STM32U5xx_HAL_Driver/Inc/stm32u5xx_ll_bus.h ****   *         AHB3ENR  ADC4EN        LL_AHB3_GRP1_IsEnabledClock\n
1237:Drivers/STM32U5xx_HAL_Driver/Inc/stm32u5xx_ll_bus.h ****   *         AHB3ENR  DAC1EN        LL_AHB3_GRP1_IsEnabledClock\n
1238:Drivers/STM32U5xx_HAL_Driver/Inc/stm32u5xx_ll_bus.h ****   *         AHB3ENR  LPDMA1EN      LL_AHB3_GRP1_IsEnabledClock\n
1239:Drivers/STM32U5xx_HAL_Driver/Inc/stm32u5xx_ll_bus.h ****   *         AHB3ENR  ADF1EN        LL_AHB3_GRP1_IsEnabledClock\n
1240:Drivers/STM32U5xx_HAL_Driver/Inc/stm32u5xx_ll_bus.h ****   *         AHB3ENR  GTZC2EN       LL_AHB3_GRP1_IsEnabledClock\n
ARM GAS  C:\Users\Yamaan\AppData\Local\Temp\ccBR0E2V.s 			page 39


1241:Drivers/STM32U5xx_HAL_Driver/Inc/stm32u5xx_ll_bus.h ****   *         AHB3ENR  SRAM4EN       LL_AHB3_GRP1_IsEnabledClock\n
1242:Drivers/STM32U5xx_HAL_Driver/Inc/stm32u5xx_ll_bus.h ****   * @param  Periphs This parameter can be a combination of the following values:
1243:Drivers/STM32U5xx_HAL_Driver/Inc/stm32u5xx_ll_bus.h ****   *         @arg @ref LL_AHB3_GRP1_PERIPH_ALL
1244:Drivers/STM32U5xx_HAL_Driver/Inc/stm32u5xx_ll_bus.h ****   *         @arg @ref LL_AHB3_GRP1_PERIPH_LPGPIO1
1245:Drivers/STM32U5xx_HAL_Driver/Inc/stm32u5xx_ll_bus.h ****   *         @arg @ref LL_AHB3_GRP1_PERIPH_PWR
1246:Drivers/STM32U5xx_HAL_Driver/Inc/stm32u5xx_ll_bus.h ****   *         @arg @ref LL_AHB3_GRP1_PERIPH_ADC4
1247:Drivers/STM32U5xx_HAL_Driver/Inc/stm32u5xx_ll_bus.h ****   *         @arg @ref LL_AHB3_GRP1_PERIPH_DAC1
1248:Drivers/STM32U5xx_HAL_Driver/Inc/stm32u5xx_ll_bus.h ****   *         @arg @ref LL_AHB3_GRP1_PERIPH_LPDMA1
1249:Drivers/STM32U5xx_HAL_Driver/Inc/stm32u5xx_ll_bus.h ****   *         @arg @ref LL_AHB3_GRP1_PERIPH_ADF1
1250:Drivers/STM32U5xx_HAL_Driver/Inc/stm32u5xx_ll_bus.h ****   *         @arg @ref LL_AHB3_GRP1_PERIPH_GTZC2
1251:Drivers/STM32U5xx_HAL_Driver/Inc/stm32u5xx_ll_bus.h ****   *         @arg @ref LL_AHB3_GRP1_PERIPH_SRAM4
1252:Drivers/STM32U5xx_HAL_Driver/Inc/stm32u5xx_ll_bus.h ****   * @retval State of Periphs (1 or 0).
1253:Drivers/STM32U5xx_HAL_Driver/Inc/stm32u5xx_ll_bus.h ****   */
1254:Drivers/STM32U5xx_HAL_Driver/Inc/stm32u5xx_ll_bus.h **** __STATIC_INLINE uint32_t LL_AHB3_GRP1_IsEnabledClock(uint32_t Periphs)
1255:Drivers/STM32U5xx_HAL_Driver/Inc/stm32u5xx_ll_bus.h **** {
1256:Drivers/STM32U5xx_HAL_Driver/Inc/stm32u5xx_ll_bus.h ****   return ((READ_BIT(RCC->AHB3ENR, Periphs) == Periphs) ? 1UL : 0UL);
1257:Drivers/STM32U5xx_HAL_Driver/Inc/stm32u5xx_ll_bus.h **** }
1258:Drivers/STM32U5xx_HAL_Driver/Inc/stm32u5xx_ll_bus.h **** 
1259:Drivers/STM32U5xx_HAL_Driver/Inc/stm32u5xx_ll_bus.h **** /**
1260:Drivers/STM32U5xx_HAL_Driver/Inc/stm32u5xx_ll_bus.h ****   * @brief  Disable AHB3 peripherals clock.
1261:Drivers/STM32U5xx_HAL_Driver/Inc/stm32u5xx_ll_bus.h ****   * @rmtoll AHB3ENR  LPGPIO1EN     LL_AHB3_GRP1_DisableClock\n
1262:Drivers/STM32U5xx_HAL_Driver/Inc/stm32u5xx_ll_bus.h ****   *         AHB3ENR  PWREN         LL_AHB3_GRP1_DisableClock\n
1263:Drivers/STM32U5xx_HAL_Driver/Inc/stm32u5xx_ll_bus.h ****   *         AHB3ENR  ADC4EN        LL_AHB3_GRP1_DisableClock\n
1264:Drivers/STM32U5xx_HAL_Driver/Inc/stm32u5xx_ll_bus.h ****   *         AHB3ENR  DAC1EN        LL_AHB3_GRP1_DisableClock\n
1265:Drivers/STM32U5xx_HAL_Driver/Inc/stm32u5xx_ll_bus.h ****   *         AHB3ENR  LPDMA1EN      LL_AHB3_GRP1_DisableClock\n
1266:Drivers/STM32U5xx_HAL_Driver/Inc/stm32u5xx_ll_bus.h ****   *         AHB3ENR  ADF1EN        LL_AHB3_GRP1_DisableClock\n
1267:Drivers/STM32U5xx_HAL_Driver/Inc/stm32u5xx_ll_bus.h ****   *         AHB3ENR  GTZC2EN       LL_AHB3_GRP1_DisableClock\n
1268:Drivers/STM32U5xx_HAL_Driver/Inc/stm32u5xx_ll_bus.h ****   *         AHB3ENR  SRAM4EN       LL_AHB3_GRP1_DisableClock\n
1269:Drivers/STM32U5xx_HAL_Driver/Inc/stm32u5xx_ll_bus.h ****   * @param  Periphs This parameter can be a combination of the following values:
1270:Drivers/STM32U5xx_HAL_Driver/Inc/stm32u5xx_ll_bus.h ****   *         @arg @ref LL_AHB3_GRP1_PERIPH_ALL
1271:Drivers/STM32U5xx_HAL_Driver/Inc/stm32u5xx_ll_bus.h ****   *         @arg @ref LL_AHB3_GRP1_PERIPH_LPGPIO1
1272:Drivers/STM32U5xx_HAL_Driver/Inc/stm32u5xx_ll_bus.h ****   *         @arg @ref LL_AHB3_GRP1_PERIPH_PWR
1273:Drivers/STM32U5xx_HAL_Driver/Inc/stm32u5xx_ll_bus.h ****   *         @arg @ref LL_AHB3_GRP1_PERIPH_ADC4
1274:Drivers/STM32U5xx_HAL_Driver/Inc/stm32u5xx_ll_bus.h ****   *         @arg @ref LL_AHB3_GRP1_PERIPH_DAC1
1275:Drivers/STM32U5xx_HAL_Driver/Inc/stm32u5xx_ll_bus.h ****   *         @arg @ref LL_AHB3_GRP1_PERIPH_LPDMA1
1276:Drivers/STM32U5xx_HAL_Driver/Inc/stm32u5xx_ll_bus.h ****   *         @arg @ref LL_AHB3_GRP1_PERIPH_ADF1
1277:Drivers/STM32U5xx_HAL_Driver/Inc/stm32u5xx_ll_bus.h ****   *         @arg @ref LL_AHB3_GRP1_PERIPH_GTZC2
1278:Drivers/STM32U5xx_HAL_Driver/Inc/stm32u5xx_ll_bus.h ****   *         @arg @ref LL_AHB3_GRP1_PERIPH_SRAM4
1279:Drivers/STM32U5xx_HAL_Driver/Inc/stm32u5xx_ll_bus.h ****   * @retval None
1280:Drivers/STM32U5xx_HAL_Driver/Inc/stm32u5xx_ll_bus.h ****   */
1281:Drivers/STM32U5xx_HAL_Driver/Inc/stm32u5xx_ll_bus.h **** __STATIC_INLINE void LL_AHB3_GRP1_DisableClock(uint32_t Periphs)
1282:Drivers/STM32U5xx_HAL_Driver/Inc/stm32u5xx_ll_bus.h **** {
1283:Drivers/STM32U5xx_HAL_Driver/Inc/stm32u5xx_ll_bus.h ****   CLEAR_BIT(RCC->AHB3ENR, Periphs);
1284:Drivers/STM32U5xx_HAL_Driver/Inc/stm32u5xx_ll_bus.h **** }
1285:Drivers/STM32U5xx_HAL_Driver/Inc/stm32u5xx_ll_bus.h **** 
1286:Drivers/STM32U5xx_HAL_Driver/Inc/stm32u5xx_ll_bus.h **** /**
1287:Drivers/STM32U5xx_HAL_Driver/Inc/stm32u5xx_ll_bus.h ****   * @brief  Force AHB3 peripherals reset.
1288:Drivers/STM32U5xx_HAL_Driver/Inc/stm32u5xx_ll_bus.h ****   * @rmtoll AHB3RSTR  LPGPIO1RST     LL_AHB3_GRP1_ForceReset\n
1289:Drivers/STM32U5xx_HAL_Driver/Inc/stm32u5xx_ll_bus.h ****   *         AHB3RSTR  PWRRST         LL_AHB3_GRP1_ForceReset\n
1290:Drivers/STM32U5xx_HAL_Driver/Inc/stm32u5xx_ll_bus.h ****   *         AHB3RSTR  ADC4RST        LL_AHB3_GRP1_ForceReset\n
1291:Drivers/STM32U5xx_HAL_Driver/Inc/stm32u5xx_ll_bus.h ****   *         AHB3RSTR  DAC1RST        LL_AHB3_GRP1_ForceReset\n
1292:Drivers/STM32U5xx_HAL_Driver/Inc/stm32u5xx_ll_bus.h ****   *         AHB3RSTR  LPDMA1RST      LL_AHB3_GRP1_ForceReset\n
1293:Drivers/STM32U5xx_HAL_Driver/Inc/stm32u5xx_ll_bus.h ****   *         AHB3RSTR  ADF1RST        LL_AHB3_GRP1_ForceReset\n
1294:Drivers/STM32U5xx_HAL_Driver/Inc/stm32u5xx_ll_bus.h ****   *         AHB3RSTR  GTZC2RST       LL_AHB3_GRP1_ForceReset\n
1295:Drivers/STM32U5xx_HAL_Driver/Inc/stm32u5xx_ll_bus.h ****   * @param  Periphs This parameter can be a combination of the following values:
1296:Drivers/STM32U5xx_HAL_Driver/Inc/stm32u5xx_ll_bus.h ****   *         @arg @ref LL_AHB3_GRP1_PERIPH_ALL
1297:Drivers/STM32U5xx_HAL_Driver/Inc/stm32u5xx_ll_bus.h ****   *         @arg @ref LL_AHB3_GRP1_PERIPH_LPGPIO1
ARM GAS  C:\Users\Yamaan\AppData\Local\Temp\ccBR0E2V.s 			page 40


1298:Drivers/STM32U5xx_HAL_Driver/Inc/stm32u5xx_ll_bus.h ****   *         @arg @ref LL_AHB3_GRP1_PERIPH_PWR
1299:Drivers/STM32U5xx_HAL_Driver/Inc/stm32u5xx_ll_bus.h ****   *         @arg @ref LL_AHB3_GRP1_PERIPH_ADC4
1300:Drivers/STM32U5xx_HAL_Driver/Inc/stm32u5xx_ll_bus.h ****   *         @arg @ref LL_AHB3_GRP1_PERIPH_DAC1
1301:Drivers/STM32U5xx_HAL_Driver/Inc/stm32u5xx_ll_bus.h ****   *         @arg @ref LL_AHB3_GRP1_PERIPH_LPDMA1
1302:Drivers/STM32U5xx_HAL_Driver/Inc/stm32u5xx_ll_bus.h ****   *         @arg @ref LL_AHB3_GRP1_PERIPH_ADF1
1303:Drivers/STM32U5xx_HAL_Driver/Inc/stm32u5xx_ll_bus.h ****   *         @arg @ref LL_AHB3_GRP1_PERIPH_GTZC2
1304:Drivers/STM32U5xx_HAL_Driver/Inc/stm32u5xx_ll_bus.h ****   * @retval None
1305:Drivers/STM32U5xx_HAL_Driver/Inc/stm32u5xx_ll_bus.h ****   */
1306:Drivers/STM32U5xx_HAL_Driver/Inc/stm32u5xx_ll_bus.h **** __STATIC_INLINE void LL_AHB3_GRP1_ForceReset(uint32_t Periphs)
1307:Drivers/STM32U5xx_HAL_Driver/Inc/stm32u5xx_ll_bus.h **** {
1308:Drivers/STM32U5xx_HAL_Driver/Inc/stm32u5xx_ll_bus.h ****   SET_BIT(RCC->AHB3RSTR, Periphs);
1309:Drivers/STM32U5xx_HAL_Driver/Inc/stm32u5xx_ll_bus.h **** }
1310:Drivers/STM32U5xx_HAL_Driver/Inc/stm32u5xx_ll_bus.h **** 
1311:Drivers/STM32U5xx_HAL_Driver/Inc/stm32u5xx_ll_bus.h **** /**
1312:Drivers/STM32U5xx_HAL_Driver/Inc/stm32u5xx_ll_bus.h ****   * @brief  Release AHB3 peripherals reset.
1313:Drivers/STM32U5xx_HAL_Driver/Inc/stm32u5xx_ll_bus.h ****   * @rmtoll AHB3RSTR  LPGPIO1RST     LL_AHB3_GRP1_ReleaseReset\n
1314:Drivers/STM32U5xx_HAL_Driver/Inc/stm32u5xx_ll_bus.h ****   *         AHB3RSTR  PWRRST         LL_AHB3_GRP1_ReleaseReset\n
1315:Drivers/STM32U5xx_HAL_Driver/Inc/stm32u5xx_ll_bus.h ****   *         AHB3RSTR  ADC4RST        LL_AHB3_GRP1_ReleaseReset\n
1316:Drivers/STM32U5xx_HAL_Driver/Inc/stm32u5xx_ll_bus.h ****   *         AHB3RSTR  DAC1RST        LL_AHB3_GRP1_ReleaseReset\n
1317:Drivers/STM32U5xx_HAL_Driver/Inc/stm32u5xx_ll_bus.h ****   *         AHB3RSTR  LPDMA1RST      LL_AHB3_GRP1_ReleaseReset\n
1318:Drivers/STM32U5xx_HAL_Driver/Inc/stm32u5xx_ll_bus.h ****   *         AHB3RSTR  ADF1RST        LL_AHB3_GRP1_ReleaseReset\n
1319:Drivers/STM32U5xx_HAL_Driver/Inc/stm32u5xx_ll_bus.h ****   *         AHB3RSTR  GTZC2RST       LL_AHB3_GRP1_ReleaseReset\n
1320:Drivers/STM32U5xx_HAL_Driver/Inc/stm32u5xx_ll_bus.h ****   * @param  Periphs This parameter can be a combination of the following values:
1321:Drivers/STM32U5xx_HAL_Driver/Inc/stm32u5xx_ll_bus.h ****   *         @arg @ref LL_AHB3_GRP1_PERIPH_ALL
1322:Drivers/STM32U5xx_HAL_Driver/Inc/stm32u5xx_ll_bus.h ****   *         @arg @ref LL_AHB3_GRP1_PERIPH_LPGPIO1
1323:Drivers/STM32U5xx_HAL_Driver/Inc/stm32u5xx_ll_bus.h ****   *         @arg @ref LL_AHB3_GRP1_PERIPH_PWR
1324:Drivers/STM32U5xx_HAL_Driver/Inc/stm32u5xx_ll_bus.h ****   *         @arg @ref LL_AHB3_GRP1_PERIPH_ADC4
1325:Drivers/STM32U5xx_HAL_Driver/Inc/stm32u5xx_ll_bus.h ****   *         @arg @ref LL_AHB3_GRP1_PERIPH_DAC1
1326:Drivers/STM32U5xx_HAL_Driver/Inc/stm32u5xx_ll_bus.h ****   *         @arg @ref LL_AHB3_GRP1_PERIPH_LPDMA1
1327:Drivers/STM32U5xx_HAL_Driver/Inc/stm32u5xx_ll_bus.h ****   *         @arg @ref LL_AHB3_GRP1_PERIPH_ADF1
1328:Drivers/STM32U5xx_HAL_Driver/Inc/stm32u5xx_ll_bus.h ****   *         @arg @ref LL_AHB3_GRP1_PERIPH_GTZC2
1329:Drivers/STM32U5xx_HAL_Driver/Inc/stm32u5xx_ll_bus.h ****   * @retval None
1330:Drivers/STM32U5xx_HAL_Driver/Inc/stm32u5xx_ll_bus.h ****   */
1331:Drivers/STM32U5xx_HAL_Driver/Inc/stm32u5xx_ll_bus.h **** __STATIC_INLINE void LL_AHB3_GRP1_ReleaseReset(uint32_t Periphs)
1332:Drivers/STM32U5xx_HAL_Driver/Inc/stm32u5xx_ll_bus.h **** {
1333:Drivers/STM32U5xx_HAL_Driver/Inc/stm32u5xx_ll_bus.h ****   CLEAR_BIT(RCC->AHB3RSTR, Periphs);
1334:Drivers/STM32U5xx_HAL_Driver/Inc/stm32u5xx_ll_bus.h **** }
1335:Drivers/STM32U5xx_HAL_Driver/Inc/stm32u5xx_ll_bus.h **** 
1336:Drivers/STM32U5xx_HAL_Driver/Inc/stm32u5xx_ll_bus.h **** /**
1337:Drivers/STM32U5xx_HAL_Driver/Inc/stm32u5xx_ll_bus.h ****   * @brief  Enable AHB3 peripheral clocks in Sleep and Stop modes
1338:Drivers/STM32U5xx_HAL_Driver/Inc/stm32u5xx_ll_bus.h ****   * @rmtoll AHB3SMENR  LPGPIO1SMEN    LL_AHB3_GRP1_EnableClockStopSleep\n
1339:Drivers/STM32U5xx_HAL_Driver/Inc/stm32u5xx_ll_bus.h ****   *         AHB3SMENR  PWRSMEN        LL_AHB3_GRP1_EnableClockStopSleep\n
1340:Drivers/STM32U5xx_HAL_Driver/Inc/stm32u5xx_ll_bus.h ****   *         AHB3SMENR  ADC4SMEN       LL_AHB3_GRP1_EnableClockStopSleep\n
1341:Drivers/STM32U5xx_HAL_Driver/Inc/stm32u5xx_ll_bus.h ****   *         AHB3SMENR  DAC1SMEN       LL_AHB3_GRP1_EnableClockStopSleep\n
1342:Drivers/STM32U5xx_HAL_Driver/Inc/stm32u5xx_ll_bus.h ****   *         AHB3SMENR  LPDMA1SMEN     LL_AHB3_GRP1_EnableClockStopSleep\n
1343:Drivers/STM32U5xx_HAL_Driver/Inc/stm32u5xx_ll_bus.h ****   *         AHB3SMENR  ADF1SMEN       LL_AHB3_GRP1_EnableClockStopSleep\n
1344:Drivers/STM32U5xx_HAL_Driver/Inc/stm32u5xx_ll_bus.h ****   *         AHB3SMENR  GTZC2SMEN      LL_AHB3_GRP1_EnableClockStopSleep\n
1345:Drivers/STM32U5xx_HAL_Driver/Inc/stm32u5xx_ll_bus.h ****   *         AHB3SMENR  SRAM4SMEN      LL_AHB3_GRP1_EnableClockStopSleep\n
1346:Drivers/STM32U5xx_HAL_Driver/Inc/stm32u5xx_ll_bus.h ****   * @param  Periphs This parameter can be a combination of the following values:
1347:Drivers/STM32U5xx_HAL_Driver/Inc/stm32u5xx_ll_bus.h ****   *         @arg @ref LL_AHB3_GRP1_PERIPH_ALL
1348:Drivers/STM32U5xx_HAL_Driver/Inc/stm32u5xx_ll_bus.h ****   *         @arg @ref LL_AHB3_GRP1_PERIPH_LPGPIO1
1349:Drivers/STM32U5xx_HAL_Driver/Inc/stm32u5xx_ll_bus.h ****   *         @arg @ref LL_AHB3_GRP1_PERIPH_PWR
1350:Drivers/STM32U5xx_HAL_Driver/Inc/stm32u5xx_ll_bus.h ****   *         @arg @ref LL_AHB3_GRP1_PERIPH_ADC4
1351:Drivers/STM32U5xx_HAL_Driver/Inc/stm32u5xx_ll_bus.h ****   *         @arg @ref LL_AHB3_GRP1_PERIPH_DAC1
1352:Drivers/STM32U5xx_HAL_Driver/Inc/stm32u5xx_ll_bus.h ****   *         @arg @ref LL_AHB3_GRP1_PERIPH_LPDMA1
1353:Drivers/STM32U5xx_HAL_Driver/Inc/stm32u5xx_ll_bus.h ****   *         @arg @ref LL_AHB3_GRP1_PERIPH_ADF1
1354:Drivers/STM32U5xx_HAL_Driver/Inc/stm32u5xx_ll_bus.h ****   *         @arg @ref LL_AHB3_GRP1_PERIPH_GTZC2
ARM GAS  C:\Users\Yamaan\AppData\Local\Temp\ccBR0E2V.s 			page 41


1355:Drivers/STM32U5xx_HAL_Driver/Inc/stm32u5xx_ll_bus.h ****   *         @arg @ref LL_AHB3_GRP1_PERIPH_SRAM4
1356:Drivers/STM32U5xx_HAL_Driver/Inc/stm32u5xx_ll_bus.h ****   * @retval None
1357:Drivers/STM32U5xx_HAL_Driver/Inc/stm32u5xx_ll_bus.h ****   */
1358:Drivers/STM32U5xx_HAL_Driver/Inc/stm32u5xx_ll_bus.h **** __STATIC_INLINE void LL_AHB3_GRP1_EnableClockStopSleep(uint32_t Periphs)
1359:Drivers/STM32U5xx_HAL_Driver/Inc/stm32u5xx_ll_bus.h **** {
1360:Drivers/STM32U5xx_HAL_Driver/Inc/stm32u5xx_ll_bus.h ****   __IO uint32_t tmpreg;
1361:Drivers/STM32U5xx_HAL_Driver/Inc/stm32u5xx_ll_bus.h ****   SET_BIT(RCC->AHB3SMENR, Periphs);
1362:Drivers/STM32U5xx_HAL_Driver/Inc/stm32u5xx_ll_bus.h ****   /* Delay after an RCC peripheral clock enabling */
1363:Drivers/STM32U5xx_HAL_Driver/Inc/stm32u5xx_ll_bus.h ****   tmpreg = READ_BIT(RCC->AHB3SMENR, Periphs);
1364:Drivers/STM32U5xx_HAL_Driver/Inc/stm32u5xx_ll_bus.h ****   (void)tmpreg;
1365:Drivers/STM32U5xx_HAL_Driver/Inc/stm32u5xx_ll_bus.h **** }
1366:Drivers/STM32U5xx_HAL_Driver/Inc/stm32u5xx_ll_bus.h **** 
1367:Drivers/STM32U5xx_HAL_Driver/Inc/stm32u5xx_ll_bus.h **** /**
1368:Drivers/STM32U5xx_HAL_Driver/Inc/stm32u5xx_ll_bus.h ****   * @brief  Check if AHB3 peripheral clocks in Sleep and Stop modes is enabled or not
1369:Drivers/STM32U5xx_HAL_Driver/Inc/stm32u5xx_ll_bus.h ****   * @rmtoll AHB3SMENR  LPGPIO1SMEN    LL_AHB3_GRP1_IsEnabledClockStopSleep\n
1370:Drivers/STM32U5xx_HAL_Driver/Inc/stm32u5xx_ll_bus.h ****   *         AHB3SMENR  PWRSMEN        LL_AHB3_GRP1_IsEnabledClockStopSleep\n
1371:Drivers/STM32U5xx_HAL_Driver/Inc/stm32u5xx_ll_bus.h ****   *         AHB3SMENR  ADC4SMEN       LL_AHB3_GRP1_IsEnabledClockStopSleep\n
1372:Drivers/STM32U5xx_HAL_Driver/Inc/stm32u5xx_ll_bus.h ****   *         AHB3SMENR  DAC1SMEN       LL_AHB3_GRP1_IsEnabledClockStopSleep\n
1373:Drivers/STM32U5xx_HAL_Driver/Inc/stm32u5xx_ll_bus.h ****   *         AHB3SMENR  LPDMA1SMEN     LL_AHB3_GRP1_IsEnabledClockStopSleep\n
1374:Drivers/STM32U5xx_HAL_Driver/Inc/stm32u5xx_ll_bus.h ****   *         AHB3SMENR  ADF1SMEN       LL_AHB3_GRP1_IsEnabledClockStopSleep\n
1375:Drivers/STM32U5xx_HAL_Driver/Inc/stm32u5xx_ll_bus.h ****   *         AHB3SMENR  GTZC2SMEN      LL_AHB3_GRP1_IsEnabledClockStopSleep\n
1376:Drivers/STM32U5xx_HAL_Driver/Inc/stm32u5xx_ll_bus.h ****   *         AHB3SMENR  SRAM4SMEN      LL_AHB3_GRP1_IsEnabledClockStopSleep\n
1377:Drivers/STM32U5xx_HAL_Driver/Inc/stm32u5xx_ll_bus.h ****   * @param  Periphs This parameter can be a combination of the following values:
1378:Drivers/STM32U5xx_HAL_Driver/Inc/stm32u5xx_ll_bus.h ****   *         @arg @ref LL_AHB3_GRP1_PERIPH_ALL
1379:Drivers/STM32U5xx_HAL_Driver/Inc/stm32u5xx_ll_bus.h ****   *         @arg @ref LL_AHB3_GRP1_PERIPH_LPGPIO1
1380:Drivers/STM32U5xx_HAL_Driver/Inc/stm32u5xx_ll_bus.h ****   *         @arg @ref LL_AHB3_GRP1_PERIPH_PWR
1381:Drivers/STM32U5xx_HAL_Driver/Inc/stm32u5xx_ll_bus.h ****   *         @arg @ref LL_AHB3_GRP1_PERIPH_ADC4
1382:Drivers/STM32U5xx_HAL_Driver/Inc/stm32u5xx_ll_bus.h ****   *         @arg @ref LL_AHB3_GRP1_PERIPH_DAC1
1383:Drivers/STM32U5xx_HAL_Driver/Inc/stm32u5xx_ll_bus.h ****   *         @arg @ref LL_AHB3_GRP1_PERIPH_LPDMA1
1384:Drivers/STM32U5xx_HAL_Driver/Inc/stm32u5xx_ll_bus.h ****   *         @arg @ref LL_AHB3_GRP1_PERIPH_ADF1
1385:Drivers/STM32U5xx_HAL_Driver/Inc/stm32u5xx_ll_bus.h ****   *         @arg @ref LL_AHB3_GRP1_PERIPH_GTZC2
1386:Drivers/STM32U5xx_HAL_Driver/Inc/stm32u5xx_ll_bus.h ****   *         @arg @ref LL_AHB3_GRP1_PERIPH_SRAM4
1387:Drivers/STM32U5xx_HAL_Driver/Inc/stm32u5xx_ll_bus.h ****   * @retval State of Periphs (1 or 0).
1388:Drivers/STM32U5xx_HAL_Driver/Inc/stm32u5xx_ll_bus.h ****   */
1389:Drivers/STM32U5xx_HAL_Driver/Inc/stm32u5xx_ll_bus.h **** __STATIC_INLINE uint32_t LL_AHB3_GRP1_IsEnabledClockStopSleep(uint32_t Periphs)
1390:Drivers/STM32U5xx_HAL_Driver/Inc/stm32u5xx_ll_bus.h **** {
1391:Drivers/STM32U5xx_HAL_Driver/Inc/stm32u5xx_ll_bus.h ****   return ((READ_BIT(RCC->AHB3SMENR, Periphs) == Periphs) ? 1UL : 0UL);
1392:Drivers/STM32U5xx_HAL_Driver/Inc/stm32u5xx_ll_bus.h **** }
1393:Drivers/STM32U5xx_HAL_Driver/Inc/stm32u5xx_ll_bus.h **** 
1394:Drivers/STM32U5xx_HAL_Driver/Inc/stm32u5xx_ll_bus.h **** /**
1395:Drivers/STM32U5xx_HAL_Driver/Inc/stm32u5xx_ll_bus.h ****   * @brief  Disable AHB3 peripheral clocks in Sleep and Stop modes
1396:Drivers/STM32U5xx_HAL_Driver/Inc/stm32u5xx_ll_bus.h ****   * @rmtoll AHB3SMENR  LPGPIO1SMEN    LL_AHB3_GRP1_DisableClockStopSleep\n
1397:Drivers/STM32U5xx_HAL_Driver/Inc/stm32u5xx_ll_bus.h ****   *         AHB3SMENR  PWRSMEN        LL_AHB3_GRP1_DisableClockStopSleep\n
1398:Drivers/STM32U5xx_HAL_Driver/Inc/stm32u5xx_ll_bus.h ****   *         AHB3SMENR  ADC4SMEN       LL_AHB3_GRP1_DisableClockStopSleep\n
1399:Drivers/STM32U5xx_HAL_Driver/Inc/stm32u5xx_ll_bus.h ****   *         AHB3SMENR  DAC1SMEN       LL_AHB3_GRP1_DisableClockStopSleep\n
1400:Drivers/STM32U5xx_HAL_Driver/Inc/stm32u5xx_ll_bus.h ****   *         AHB3SMENR  LPDMA1SMEN     LL_AHB3_GRP1_DisableClockStopSleep\n
1401:Drivers/STM32U5xx_HAL_Driver/Inc/stm32u5xx_ll_bus.h ****   *         AHB3SMENR  ADF1SMEN       LL_AHB3_GRP1_DisableClockStopSleep\n
1402:Drivers/STM32U5xx_HAL_Driver/Inc/stm32u5xx_ll_bus.h ****   *         AHB3SMENR  GTZC2SMEN      LL_AHB3_GRP1_DisableClockStopSleep\n
1403:Drivers/STM32U5xx_HAL_Driver/Inc/stm32u5xx_ll_bus.h ****   *         AHB3SMENR  SRAM4SMEN      LL_AHB3_GRP1_DisableClockStopSleep\n
1404:Drivers/STM32U5xx_HAL_Driver/Inc/stm32u5xx_ll_bus.h ****   * @param  Periphs This parameter can be a combination of the following values:
1405:Drivers/STM32U5xx_HAL_Driver/Inc/stm32u5xx_ll_bus.h ****   *         @arg @ref LL_AHB3_GRP1_PERIPH_ALL
1406:Drivers/STM32U5xx_HAL_Driver/Inc/stm32u5xx_ll_bus.h ****   *         @arg @ref LL_AHB3_GRP1_PERIPH_LPGPIO1
1407:Drivers/STM32U5xx_HAL_Driver/Inc/stm32u5xx_ll_bus.h ****   *         @arg @ref LL_AHB3_GRP1_PERIPH_PWR
1408:Drivers/STM32U5xx_HAL_Driver/Inc/stm32u5xx_ll_bus.h ****   *         @arg @ref LL_AHB3_GRP1_PERIPH_ADC4
1409:Drivers/STM32U5xx_HAL_Driver/Inc/stm32u5xx_ll_bus.h ****   *         @arg @ref LL_AHB3_GRP1_PERIPH_DAC1
1410:Drivers/STM32U5xx_HAL_Driver/Inc/stm32u5xx_ll_bus.h ****   *         @arg @ref LL_AHB3_GRP1_PERIPH_LPDMA1
1411:Drivers/STM32U5xx_HAL_Driver/Inc/stm32u5xx_ll_bus.h ****   *         @arg @ref LL_AHB3_GRP1_PERIPH_ADF1
ARM GAS  C:\Users\Yamaan\AppData\Local\Temp\ccBR0E2V.s 			page 42


1412:Drivers/STM32U5xx_HAL_Driver/Inc/stm32u5xx_ll_bus.h ****   *         @arg @ref LL_AHB3_GRP1_PERIPH_GTZC2
1413:Drivers/STM32U5xx_HAL_Driver/Inc/stm32u5xx_ll_bus.h ****   *         @arg @ref LL_AHB3_GRP1_PERIPH_SRAM4
1414:Drivers/STM32U5xx_HAL_Driver/Inc/stm32u5xx_ll_bus.h ****   * @retval None
1415:Drivers/STM32U5xx_HAL_Driver/Inc/stm32u5xx_ll_bus.h ****   */
1416:Drivers/STM32U5xx_HAL_Driver/Inc/stm32u5xx_ll_bus.h **** __STATIC_INLINE void LL_AHB3_GRP1_DisableClockStopSleep(uint32_t Periphs)
1417:Drivers/STM32U5xx_HAL_Driver/Inc/stm32u5xx_ll_bus.h **** {
1418:Drivers/STM32U5xx_HAL_Driver/Inc/stm32u5xx_ll_bus.h ****   CLEAR_BIT(RCC->AHB3SMENR, Periphs);
1419:Drivers/STM32U5xx_HAL_Driver/Inc/stm32u5xx_ll_bus.h **** }
1420:Drivers/STM32U5xx_HAL_Driver/Inc/stm32u5xx_ll_bus.h **** 
1421:Drivers/STM32U5xx_HAL_Driver/Inc/stm32u5xx_ll_bus.h **** /**
1422:Drivers/STM32U5xx_HAL_Driver/Inc/stm32u5xx_ll_bus.h ****   * @}
1423:Drivers/STM32U5xx_HAL_Driver/Inc/stm32u5xx_ll_bus.h ****   */
1424:Drivers/STM32U5xx_HAL_Driver/Inc/stm32u5xx_ll_bus.h **** 
1425:Drivers/STM32U5xx_HAL_Driver/Inc/stm32u5xx_ll_bus.h **** /** @defgroup BUS_LL_EF_AHB2_GRP2_PERIPH AHB2 GRP2 PERIPH
1426:Drivers/STM32U5xx_HAL_Driver/Inc/stm32u5xx_ll_bus.h ****   * @{
1427:Drivers/STM32U5xx_HAL_Driver/Inc/stm32u5xx_ll_bus.h ****   */
1428:Drivers/STM32U5xx_HAL_Driver/Inc/stm32u5xx_ll_bus.h **** /**
1429:Drivers/STM32U5xx_HAL_Driver/Inc/stm32u5xx_ll_bus.h ****   * @brief  Enable AHB2 peripherals clock.
1430:Drivers/STM32U5xx_HAL_Driver/Inc/stm32u5xx_ll_bus.h ****   * @rmtoll AHB2ENR2  FSMCEN            LL_AHB2_GRP2_EnableClock\n
1431:Drivers/STM32U5xx_HAL_Driver/Inc/stm32u5xx_ll_bus.h ****   *         AHB2ENR2  OCTOSPI1EN        LL_AHB2_GRP2_EnableClock\n
1432:Drivers/STM32U5xx_HAL_Driver/Inc/stm32u5xx_ll_bus.h ****   *         AHB2ENR2  OCTOSPI2EN        LL_AHB2_GRP2_EnableClock\n
1433:Drivers/STM32U5xx_HAL_Driver/Inc/stm32u5xx_ll_bus.h ****   *         AHB2ENR2  HSPI1EN           LL_AHB2_GRP2_EnableClock\n
1434:Drivers/STM32U5xx_HAL_Driver/Inc/stm32u5xx_ll_bus.h ****   *         AHB2ENR2  SRAM5EN           LL_AHB2_GRP2_EnableClock\n
1435:Drivers/STM32U5xx_HAL_Driver/Inc/stm32u5xx_ll_bus.h ****   * @param  Periphs This parameter can be a combination of the following values:
1436:Drivers/STM32U5xx_HAL_Driver/Inc/stm32u5xx_ll_bus.h ****   *         @arg @ref LL_AHB2_GRP2_PERIPH_ALL
1437:Drivers/STM32U5xx_HAL_Driver/Inc/stm32u5xx_ll_bus.h ****   *         @arg @ref LL_AHB2_GRP2_PERIPH_FSMC
1438:Drivers/STM32U5xx_HAL_Driver/Inc/stm32u5xx_ll_bus.h ****   *         @arg @ref LL_AHB2_GRP2_PERIPH_OCTOSPI1
1439:Drivers/STM32U5xx_HAL_Driver/Inc/stm32u5xx_ll_bus.h ****   *         @arg @ref LL_AHB2_GRP2_PERIPH_OCTOSPI2
1440:Drivers/STM32U5xx_HAL_Driver/Inc/stm32u5xx_ll_bus.h ****   *         @arg @ref LL_AHB2_GRP2_PERIPH_HSPI1 (*)
1441:Drivers/STM32U5xx_HAL_Driver/Inc/stm32u5xx_ll_bus.h ****   *         @arg @ref LL_AHB2_GRP2_PERIPH_SRAM5 (*)
1442:Drivers/STM32U5xx_HAL_Driver/Inc/stm32u5xx_ll_bus.h ****   *
1443:Drivers/STM32U5xx_HAL_Driver/Inc/stm32u5xx_ll_bus.h ****   *
1444:Drivers/STM32U5xx_HAL_Driver/Inc/stm32u5xx_ll_bus.h ****   *        (*) value not defined in all devices.
1445:Drivers/STM32U5xx_HAL_Driver/Inc/stm32u5xx_ll_bus.h ****   * @retval None
1446:Drivers/STM32U5xx_HAL_Driver/Inc/stm32u5xx_ll_bus.h ****   */
1447:Drivers/STM32U5xx_HAL_Driver/Inc/stm32u5xx_ll_bus.h **** __STATIC_INLINE void LL_AHB2_GRP2_EnableClock(uint32_t Periphs)
1448:Drivers/STM32U5xx_HAL_Driver/Inc/stm32u5xx_ll_bus.h **** {
1449:Drivers/STM32U5xx_HAL_Driver/Inc/stm32u5xx_ll_bus.h ****   __IO uint32_t tmpreg;
1450:Drivers/STM32U5xx_HAL_Driver/Inc/stm32u5xx_ll_bus.h ****   SET_BIT(RCC->AHB2ENR2, Periphs);
1451:Drivers/STM32U5xx_HAL_Driver/Inc/stm32u5xx_ll_bus.h ****   /* Delay after an RCC peripheral clock enabling */
1452:Drivers/STM32U5xx_HAL_Driver/Inc/stm32u5xx_ll_bus.h ****   tmpreg = READ_BIT(RCC->AHB2ENR2, Periphs);
1453:Drivers/STM32U5xx_HAL_Driver/Inc/stm32u5xx_ll_bus.h ****   (void)tmpreg;
1454:Drivers/STM32U5xx_HAL_Driver/Inc/stm32u5xx_ll_bus.h **** }
1455:Drivers/STM32U5xx_HAL_Driver/Inc/stm32u5xx_ll_bus.h **** 
1456:Drivers/STM32U5xx_HAL_Driver/Inc/stm32u5xx_ll_bus.h **** /**
1457:Drivers/STM32U5xx_HAL_Driver/Inc/stm32u5xx_ll_bus.h ****   * @brief  Check if AHB2 peripheral clock is enabled or not
1458:Drivers/STM32U5xx_HAL_Driver/Inc/stm32u5xx_ll_bus.h ****   * @rmtoll AHB2ENR2  FSMCEN            LL_AHB2_GRP2_IsEnabledClock\n
1459:Drivers/STM32U5xx_HAL_Driver/Inc/stm32u5xx_ll_bus.h ****   *         AHB2ENR2  OCTOSPI1EN        LL_AHB2_GRP2_IsEnabledClock\n
1460:Drivers/STM32U5xx_HAL_Driver/Inc/stm32u5xx_ll_bus.h ****   *         AHB2ENR2  OCTOSPI2EN        LL_AHB2_GRP2_IsEnabledClock\n
1461:Drivers/STM32U5xx_HAL_Driver/Inc/stm32u5xx_ll_bus.h ****   *         AHB2ENR2  HSPI1EN           LL_AHB2_GRP2_IsEnabledClock\n
1462:Drivers/STM32U5xx_HAL_Driver/Inc/stm32u5xx_ll_bus.h ****   *         AHB2ENR2  SRAM5EN           LL_AHB2_GRP2_IsEnabledClock\n
1463:Drivers/STM32U5xx_HAL_Driver/Inc/stm32u5xx_ll_bus.h ****   * @param  Periphs This parameter can be a combination of the following values:
1464:Drivers/STM32U5xx_HAL_Driver/Inc/stm32u5xx_ll_bus.h ****   *         @arg @ref LL_AHB2_GRP2_PERIPH_ALL
1465:Drivers/STM32U5xx_HAL_Driver/Inc/stm32u5xx_ll_bus.h ****   *         @arg @ref LL_AHB2_GRP2_PERIPH_FSMC
1466:Drivers/STM32U5xx_HAL_Driver/Inc/stm32u5xx_ll_bus.h ****   *         @arg @ref LL_AHB2_GRP2_PERIPH_OCTOSPI1
1467:Drivers/STM32U5xx_HAL_Driver/Inc/stm32u5xx_ll_bus.h ****   *         @arg @ref LL_AHB2_GRP2_PERIPH_OCTOSPI2
1468:Drivers/STM32U5xx_HAL_Driver/Inc/stm32u5xx_ll_bus.h ****   *         @arg @ref LL_AHB2_GRP2_PERIPH_HSPI1 (*)
ARM GAS  C:\Users\Yamaan\AppData\Local\Temp\ccBR0E2V.s 			page 43


1469:Drivers/STM32U5xx_HAL_Driver/Inc/stm32u5xx_ll_bus.h ****   *         @arg @ref LL_AHB2_GRP2_PERIPH_SRAM5 (*)
1470:Drivers/STM32U5xx_HAL_Driver/Inc/stm32u5xx_ll_bus.h ****   *
1471:Drivers/STM32U5xx_HAL_Driver/Inc/stm32u5xx_ll_bus.h ****   *        (*) value not defined in all devices.
1472:Drivers/STM32U5xx_HAL_Driver/Inc/stm32u5xx_ll_bus.h ****   * @retval None
1473:Drivers/STM32U5xx_HAL_Driver/Inc/stm32u5xx_ll_bus.h ****   * @retval State of Periphs (1 or 0).
1474:Drivers/STM32U5xx_HAL_Driver/Inc/stm32u5xx_ll_bus.h ****   */
1475:Drivers/STM32U5xx_HAL_Driver/Inc/stm32u5xx_ll_bus.h **** __STATIC_INLINE uint32_t LL_AHB2_GRP2_IsEnabledClock(uint32_t Periphs)
1476:Drivers/STM32U5xx_HAL_Driver/Inc/stm32u5xx_ll_bus.h **** {
1477:Drivers/STM32U5xx_HAL_Driver/Inc/stm32u5xx_ll_bus.h ****   return ((READ_BIT(RCC->AHB2ENR2, Periphs) == Periphs) ? 1UL : 0UL);
1478:Drivers/STM32U5xx_HAL_Driver/Inc/stm32u5xx_ll_bus.h **** }
1479:Drivers/STM32U5xx_HAL_Driver/Inc/stm32u5xx_ll_bus.h **** 
1480:Drivers/STM32U5xx_HAL_Driver/Inc/stm32u5xx_ll_bus.h **** /**
1481:Drivers/STM32U5xx_HAL_Driver/Inc/stm32u5xx_ll_bus.h ****   * @brief  Disable AHB2 peripherals clock.
1482:Drivers/STM32U5xx_HAL_Driver/Inc/stm32u5xx_ll_bus.h ****   * @rmtoll AHB2ENR2  FSMCEN            LL_AHB2_GRP2_DisableClock\n
1483:Drivers/STM32U5xx_HAL_Driver/Inc/stm32u5xx_ll_bus.h ****   *         AHB2ENR2  OCTOSPI1EN        LL_AHB2_GRP2_DisableClock\n
1484:Drivers/STM32U5xx_HAL_Driver/Inc/stm32u5xx_ll_bus.h ****   *         AHB2ENR2  OCTOSPI2EN        LL_AHB2_GRP2_DisableClock\n
1485:Drivers/STM32U5xx_HAL_Driver/Inc/stm32u5xx_ll_bus.h ****   *         AHB2ENR2  HSPI1EN           LL_AHB2_GRP2_DisableClock\n
1486:Drivers/STM32U5xx_HAL_Driver/Inc/stm32u5xx_ll_bus.h ****   *         AHB2ENR2  SRAM5EN           LL_AHB2_GRP2_DisableClock\n
1487:Drivers/STM32U5xx_HAL_Driver/Inc/stm32u5xx_ll_bus.h ****   * @param  Periphs This parameter can be a combination of the following values:
1488:Drivers/STM32U5xx_HAL_Driver/Inc/stm32u5xx_ll_bus.h ****   *         @arg @ref LL_AHB2_GRP2_PERIPH_ALL
1489:Drivers/STM32U5xx_HAL_Driver/Inc/stm32u5xx_ll_bus.h ****   *         @arg @ref LL_AHB2_GRP2_PERIPH_FSMC
1490:Drivers/STM32U5xx_HAL_Driver/Inc/stm32u5xx_ll_bus.h ****   *         @arg @ref LL_AHB2_GRP2_PERIPH_OCTOSPI1
1491:Drivers/STM32U5xx_HAL_Driver/Inc/stm32u5xx_ll_bus.h ****   *         @arg @ref LL_AHB2_GRP2_PERIPH_OCTOSPI2
1492:Drivers/STM32U5xx_HAL_Driver/Inc/stm32u5xx_ll_bus.h ****   *         @arg @ref LL_AHB2_GRP2_PERIPH_HSPI1 (*)
1493:Drivers/STM32U5xx_HAL_Driver/Inc/stm32u5xx_ll_bus.h ****   *         @arg @ref LL_AHB2_GRP2_PERIPH_SRAM5 (*)
1494:Drivers/STM32U5xx_HAL_Driver/Inc/stm32u5xx_ll_bus.h ****   *
1495:Drivers/STM32U5xx_HAL_Driver/Inc/stm32u5xx_ll_bus.h ****   *        (*) value not defined in all devices.
1496:Drivers/STM32U5xx_HAL_Driver/Inc/stm32u5xx_ll_bus.h ****   * @retval None
1497:Drivers/STM32U5xx_HAL_Driver/Inc/stm32u5xx_ll_bus.h ****   */
1498:Drivers/STM32U5xx_HAL_Driver/Inc/stm32u5xx_ll_bus.h **** __STATIC_INLINE void LL_AHB2_GRP2_DisableClock(uint32_t Periphs)
1499:Drivers/STM32U5xx_HAL_Driver/Inc/stm32u5xx_ll_bus.h **** {
1500:Drivers/STM32U5xx_HAL_Driver/Inc/stm32u5xx_ll_bus.h ****   CLEAR_BIT(RCC->AHB2ENR2, Periphs);
1501:Drivers/STM32U5xx_HAL_Driver/Inc/stm32u5xx_ll_bus.h **** }
1502:Drivers/STM32U5xx_HAL_Driver/Inc/stm32u5xx_ll_bus.h **** 
1503:Drivers/STM32U5xx_HAL_Driver/Inc/stm32u5xx_ll_bus.h **** /**
1504:Drivers/STM32U5xx_HAL_Driver/Inc/stm32u5xx_ll_bus.h ****   * @brief  Force AHB2 peripherals reset.
1505:Drivers/STM32U5xx_HAL_Driver/Inc/stm32u5xx_ll_bus.h ****   * @rmtoll AHB2RSTR2  FSMCRST            LL_AHB2_GRP2_ForceReset\n
1506:Drivers/STM32U5xx_HAL_Driver/Inc/stm32u5xx_ll_bus.h ****   *         AHB2RSTR2  OCTOSPI1RST        LL_AHB2_GRP2_ForceReset\n
1507:Drivers/STM32U5xx_HAL_Driver/Inc/stm32u5xx_ll_bus.h ****   *         AHB2RSTR2  OCTOSPI2RST        LL_AHB2_GRP2_ForceReset\n
1508:Drivers/STM32U5xx_HAL_Driver/Inc/stm32u5xx_ll_bus.h ****   *         AHB2RSTR2  HSPI1RST           LL_AHB2_GRP2_ForceReset\n
1509:Drivers/STM32U5xx_HAL_Driver/Inc/stm32u5xx_ll_bus.h ****   * @param  Periphs This parameter can be a combination of the following values:
1510:Drivers/STM32U5xx_HAL_Driver/Inc/stm32u5xx_ll_bus.h ****   *         @arg @ref LL_AHB2_GRP2_PERIPH_ALL
1511:Drivers/STM32U5xx_HAL_Driver/Inc/stm32u5xx_ll_bus.h ****   *         @arg @ref LL_AHB2_GRP2_PERIPH_FSMC
1512:Drivers/STM32U5xx_HAL_Driver/Inc/stm32u5xx_ll_bus.h ****   *         @arg @ref LL_AHB2_GRP2_PERIPH_OCTOSPI1
1513:Drivers/STM32U5xx_HAL_Driver/Inc/stm32u5xx_ll_bus.h ****   *         @arg @ref LL_AHB2_GRP2_PERIPH_OCTOSPI2
1514:Drivers/STM32U5xx_HAL_Driver/Inc/stm32u5xx_ll_bus.h ****   *         @arg @ref LL_AHB2_GRP2_PERIPH_HSPI1 (*)
1515:Drivers/STM32U5xx_HAL_Driver/Inc/stm32u5xx_ll_bus.h ****   *
1516:Drivers/STM32U5xx_HAL_Driver/Inc/stm32u5xx_ll_bus.h ****   *        (*) value not defined in all devices.
1517:Drivers/STM32U5xx_HAL_Driver/Inc/stm32u5xx_ll_bus.h ****   * @retval None
1518:Drivers/STM32U5xx_HAL_Driver/Inc/stm32u5xx_ll_bus.h ****   */
1519:Drivers/STM32U5xx_HAL_Driver/Inc/stm32u5xx_ll_bus.h **** __STATIC_INLINE void LL_AHB2_GRP2_ForceReset(uint32_t Periphs)
1520:Drivers/STM32U5xx_HAL_Driver/Inc/stm32u5xx_ll_bus.h **** {
1521:Drivers/STM32U5xx_HAL_Driver/Inc/stm32u5xx_ll_bus.h ****   SET_BIT(RCC->AHB2RSTR2, Periphs);
1522:Drivers/STM32U5xx_HAL_Driver/Inc/stm32u5xx_ll_bus.h **** }
1523:Drivers/STM32U5xx_HAL_Driver/Inc/stm32u5xx_ll_bus.h **** 
1524:Drivers/STM32U5xx_HAL_Driver/Inc/stm32u5xx_ll_bus.h **** /**
1525:Drivers/STM32U5xx_HAL_Driver/Inc/stm32u5xx_ll_bus.h ****   * @brief  Release AHB2 peripherals reset.
ARM GAS  C:\Users\Yamaan\AppData\Local\Temp\ccBR0E2V.s 			page 44


1526:Drivers/STM32U5xx_HAL_Driver/Inc/stm32u5xx_ll_bus.h ****   * @rmtoll AHB2RSTR2  FSMCRST            LL_AHB2_GRP2_ReleaseReset\n
1527:Drivers/STM32U5xx_HAL_Driver/Inc/stm32u5xx_ll_bus.h ****   *         AHB2RSTR2  OCTOSPI1RST        LL_AHB2_GRP2_ReleaseReset\n
1528:Drivers/STM32U5xx_HAL_Driver/Inc/stm32u5xx_ll_bus.h ****   *         AHB2RSTR2  OCTOSPI2RST        LL_AHB2_GRP2_ReleaseReset\n
1529:Drivers/STM32U5xx_HAL_Driver/Inc/stm32u5xx_ll_bus.h ****   *         AHB2RSTR2  HSPI1RST           LL_AHB2_GRP2_ReleaseReset\n
1530:Drivers/STM32U5xx_HAL_Driver/Inc/stm32u5xx_ll_bus.h ****   * @param  Periphs This parameter can be a combination of the following values:
1531:Drivers/STM32U5xx_HAL_Driver/Inc/stm32u5xx_ll_bus.h ****   *         @arg @ref LL_AHB2_GRP2_PERIPH_ALL
1532:Drivers/STM32U5xx_HAL_Driver/Inc/stm32u5xx_ll_bus.h ****   *         @arg @ref LL_AHB2_GRP2_PERIPH_FSMC
1533:Drivers/STM32U5xx_HAL_Driver/Inc/stm32u5xx_ll_bus.h ****   *         @arg @ref LL_AHB2_GRP2_PERIPH_OCTOSPI1
1534:Drivers/STM32U5xx_HAL_Driver/Inc/stm32u5xx_ll_bus.h ****   *         @arg @ref LL_AHB2_GRP2_PERIPH_OCTOSPI2
1535:Drivers/STM32U5xx_HAL_Driver/Inc/stm32u5xx_ll_bus.h ****   *         @arg @ref LL_AHB2_GRP2_PERIPH_HSPI1 (*)
1536:Drivers/STM32U5xx_HAL_Driver/Inc/stm32u5xx_ll_bus.h ****   *
1537:Drivers/STM32U5xx_HAL_Driver/Inc/stm32u5xx_ll_bus.h ****   *        (*) value not defined in all devices.
1538:Drivers/STM32U5xx_HAL_Driver/Inc/stm32u5xx_ll_bus.h ****   * @retval None
1539:Drivers/STM32U5xx_HAL_Driver/Inc/stm32u5xx_ll_bus.h ****   */
1540:Drivers/STM32U5xx_HAL_Driver/Inc/stm32u5xx_ll_bus.h **** __STATIC_INLINE void LL_AHB2_GRP2_ReleaseReset(uint32_t Periphs)
1541:Drivers/STM32U5xx_HAL_Driver/Inc/stm32u5xx_ll_bus.h **** {
1542:Drivers/STM32U5xx_HAL_Driver/Inc/stm32u5xx_ll_bus.h ****   CLEAR_BIT(RCC->AHB2RSTR2, Periphs);
1543:Drivers/STM32U5xx_HAL_Driver/Inc/stm32u5xx_ll_bus.h **** }
1544:Drivers/STM32U5xx_HAL_Driver/Inc/stm32u5xx_ll_bus.h **** 
1545:Drivers/STM32U5xx_HAL_Driver/Inc/stm32u5xx_ll_bus.h **** /**
1546:Drivers/STM32U5xx_HAL_Driver/Inc/stm32u5xx_ll_bus.h ****   * @brief  Enable AHB2 peripheral clocks in Sleep and Stop modes
1547:Drivers/STM32U5xx_HAL_Driver/Inc/stm32u5xx_ll_bus.h ****   * @rmtoll AHB2SMENR2  FSMCSMEN            LL_AHB2_GRP2_EnableClockStopSleep\n
1548:Drivers/STM32U5xx_HAL_Driver/Inc/stm32u5xx_ll_bus.h ****   *         AHB2SMENR2  OCTOSPI1SMEN        LL_AHB2_GRP2_EnableClockStopSleep\n
1549:Drivers/STM32U5xx_HAL_Driver/Inc/stm32u5xx_ll_bus.h ****   *         AHB2SMENR2  OCTOSPI2SMEN        LL_AHB2_GRP2_EnableClockStopSleep\n
1550:Drivers/STM32U5xx_HAL_Driver/Inc/stm32u5xx_ll_bus.h ****   *         AHB2SMENR2  HSPI1SMEN           LL_AHB2_GRP2_EnableClockStopSleep\n
1551:Drivers/STM32U5xx_HAL_Driver/Inc/stm32u5xx_ll_bus.h ****   *         AHB2SMENR2  SRAM5SMEN           LL_AHB2_GRP2_EnableClockStopSleep\n
1552:Drivers/STM32U5xx_HAL_Driver/Inc/stm32u5xx_ll_bus.h ****   * @param  Periphs This parameter can be a combination of the following values:
1553:Drivers/STM32U5xx_HAL_Driver/Inc/stm32u5xx_ll_bus.h ****   *         @arg @ref LL_AHB2_GRP2_PERIPH_ALL
1554:Drivers/STM32U5xx_HAL_Driver/Inc/stm32u5xx_ll_bus.h ****   *         @arg @ref LL_AHB2_GRP2_PERIPH_FSMC
1555:Drivers/STM32U5xx_HAL_Driver/Inc/stm32u5xx_ll_bus.h ****   *         @arg @ref LL_AHB2_GRP2_PERIPH_OCTOSPI1
1556:Drivers/STM32U5xx_HAL_Driver/Inc/stm32u5xx_ll_bus.h ****   *         @arg @ref LL_AHB2_GRP2_PERIPH_OCTOSPI2
1557:Drivers/STM32U5xx_HAL_Driver/Inc/stm32u5xx_ll_bus.h ****   *         @arg @ref LL_AHB2_GRP2_PERIPH_HSPI1 (*)
1558:Drivers/STM32U5xx_HAL_Driver/Inc/stm32u5xx_ll_bus.h ****   *         @arg @ref LL_AHB2_GRP2_PERIPH_SRAM5 (*)
1559:Drivers/STM32U5xx_HAL_Driver/Inc/stm32u5xx_ll_bus.h ****   *
1560:Drivers/STM32U5xx_HAL_Driver/Inc/stm32u5xx_ll_bus.h ****   *        (*) value not defined in all devices.
1561:Drivers/STM32U5xx_HAL_Driver/Inc/stm32u5xx_ll_bus.h ****   * @retval None
1562:Drivers/STM32U5xx_HAL_Driver/Inc/stm32u5xx_ll_bus.h ****   */
1563:Drivers/STM32U5xx_HAL_Driver/Inc/stm32u5xx_ll_bus.h **** __STATIC_INLINE void LL_AHB2_GRP2_EnableClockStopSleep(uint32_t Periphs)
1564:Drivers/STM32U5xx_HAL_Driver/Inc/stm32u5xx_ll_bus.h **** {
1565:Drivers/STM32U5xx_HAL_Driver/Inc/stm32u5xx_ll_bus.h ****   __IO uint32_t tmpreg;
1566:Drivers/STM32U5xx_HAL_Driver/Inc/stm32u5xx_ll_bus.h ****   SET_BIT(RCC->AHB2SMENR2, Periphs);
1567:Drivers/STM32U5xx_HAL_Driver/Inc/stm32u5xx_ll_bus.h ****   /* Delay after an RCC peripheral clock enabling */
1568:Drivers/STM32U5xx_HAL_Driver/Inc/stm32u5xx_ll_bus.h ****   tmpreg = READ_BIT(RCC->AHB2SMENR2, Periphs);
1569:Drivers/STM32U5xx_HAL_Driver/Inc/stm32u5xx_ll_bus.h ****   (void)tmpreg;
1570:Drivers/STM32U5xx_HAL_Driver/Inc/stm32u5xx_ll_bus.h **** }
1571:Drivers/STM32U5xx_HAL_Driver/Inc/stm32u5xx_ll_bus.h **** 
1572:Drivers/STM32U5xx_HAL_Driver/Inc/stm32u5xx_ll_bus.h **** /**
1573:Drivers/STM32U5xx_HAL_Driver/Inc/stm32u5xx_ll_bus.h ****   * @brief  Check if AHB2 peripheral clocks in Sleep and Stop modes is enabled or not
1574:Drivers/STM32U5xx_HAL_Driver/Inc/stm32u5xx_ll_bus.h ****   * @rmtoll AHB2SMENR2  FSMCSMEN            LL_AHB2_GRP2_IsEnabledClockStopSleep\n
1575:Drivers/STM32U5xx_HAL_Driver/Inc/stm32u5xx_ll_bus.h ****   *         AHB2SMENR2  OCTOSPI1SMEN        LL_AHB2_GRP2_IsEnabledClockStopSleep\n
1576:Drivers/STM32U5xx_HAL_Driver/Inc/stm32u5xx_ll_bus.h ****   *         AHB2SMENR2  OCTOSPI2SMEN        LL_AHB2_GRP2_IsEnabledClockStopSleep\n
1577:Drivers/STM32U5xx_HAL_Driver/Inc/stm32u5xx_ll_bus.h ****   *         AHB2SMENR2  HSPI1SMEN           LL_AHB2_GRP2_IsEnabledClockStopSleep\n
1578:Drivers/STM32U5xx_HAL_Driver/Inc/stm32u5xx_ll_bus.h ****   *         AHB2SMENR2  SRAM5SMEN           LL_AHB2_GRP2_IsEnabledClockStopSleep\n
1579:Drivers/STM32U5xx_HAL_Driver/Inc/stm32u5xx_ll_bus.h ****   * @param  Periphs This parameter can be a combination of the following values:
1580:Drivers/STM32U5xx_HAL_Driver/Inc/stm32u5xx_ll_bus.h ****   *         @arg @ref LL_AHB2_GRP2_PERIPH_ALL
1581:Drivers/STM32U5xx_HAL_Driver/Inc/stm32u5xx_ll_bus.h ****   *         @arg @ref LL_AHB2_GRP2_PERIPH_FSMC
1582:Drivers/STM32U5xx_HAL_Driver/Inc/stm32u5xx_ll_bus.h ****   *         @arg @ref LL_AHB2_GRP2_PERIPH_OCTOSPI1
ARM GAS  C:\Users\Yamaan\AppData\Local\Temp\ccBR0E2V.s 			page 45


1583:Drivers/STM32U5xx_HAL_Driver/Inc/stm32u5xx_ll_bus.h ****   *         @arg @ref LL_AHB2_GRP2_PERIPH_OCTOSPI2
1584:Drivers/STM32U5xx_HAL_Driver/Inc/stm32u5xx_ll_bus.h ****   *         @arg @ref LL_AHB2_GRP2_PERIPH_HSPI1 (*)
1585:Drivers/STM32U5xx_HAL_Driver/Inc/stm32u5xx_ll_bus.h ****   *         @arg @ref LL_AHB2_GRP2_PERIPH_SRAM5 (*)
1586:Drivers/STM32U5xx_HAL_Driver/Inc/stm32u5xx_ll_bus.h ****   *
1587:Drivers/STM32U5xx_HAL_Driver/Inc/stm32u5xx_ll_bus.h ****   *        (*) value not defined in all devices.
1588:Drivers/STM32U5xx_HAL_Driver/Inc/stm32u5xx_ll_bus.h ****   * @retval State of Periphs (1 or 0).
1589:Drivers/STM32U5xx_HAL_Driver/Inc/stm32u5xx_ll_bus.h ****   */
1590:Drivers/STM32U5xx_HAL_Driver/Inc/stm32u5xx_ll_bus.h **** __STATIC_INLINE uint32_t LL_AHB2_GRP2_IsEnabledClockStopSleep(uint32_t Periphs)
1591:Drivers/STM32U5xx_HAL_Driver/Inc/stm32u5xx_ll_bus.h **** {
1592:Drivers/STM32U5xx_HAL_Driver/Inc/stm32u5xx_ll_bus.h ****   return ((READ_BIT(RCC->AHB2SMENR2, Periphs) == Periphs) ? 1UL : 0UL);
1593:Drivers/STM32U5xx_HAL_Driver/Inc/stm32u5xx_ll_bus.h **** }
1594:Drivers/STM32U5xx_HAL_Driver/Inc/stm32u5xx_ll_bus.h **** 
1595:Drivers/STM32U5xx_HAL_Driver/Inc/stm32u5xx_ll_bus.h **** /**
1596:Drivers/STM32U5xx_HAL_Driver/Inc/stm32u5xx_ll_bus.h ****   * @brief  Disable AHB2 peripheral clocks in Sleep and Stop modes
1597:Drivers/STM32U5xx_HAL_Driver/Inc/stm32u5xx_ll_bus.h ****   * @rmtoll AHB2SMENR2  FSMCSMEN            LL_AHB2_GRP2_DisableClockStopSleep\n
1598:Drivers/STM32U5xx_HAL_Driver/Inc/stm32u5xx_ll_bus.h ****   *         AHB2SMENR2  OCTOSPI1SMEN        LL_AHB2_GRP2_DisableClockStopSleep\n
1599:Drivers/STM32U5xx_HAL_Driver/Inc/stm32u5xx_ll_bus.h ****   *         AHB2SMENR2  OCTOSPI2SMEN        LL_AHB2_GRP2_DisableClockStopSleep\n
1600:Drivers/STM32U5xx_HAL_Driver/Inc/stm32u5xx_ll_bus.h ****   *         AHB2SMENR2  HSPI1SMEN           LL_AHB2_GRP2_DisableClockStopSleep\n
1601:Drivers/STM32U5xx_HAL_Driver/Inc/stm32u5xx_ll_bus.h ****   *         AHB2SMENR2  SRAM5SMEN           LL_AHB2_GRP2_DisableClockStopSleep\n
1602:Drivers/STM32U5xx_HAL_Driver/Inc/stm32u5xx_ll_bus.h ****   * @param  Periphs This parameter can be a combination of the following values:
1603:Drivers/STM32U5xx_HAL_Driver/Inc/stm32u5xx_ll_bus.h ****   *         @arg @ref LL_AHB2_GRP2_PERIPH_ALL
1604:Drivers/STM32U5xx_HAL_Driver/Inc/stm32u5xx_ll_bus.h ****   *         @arg @ref LL_AHB2_GRP2_PERIPH_FSMC
1605:Drivers/STM32U5xx_HAL_Driver/Inc/stm32u5xx_ll_bus.h ****   *         @arg @ref LL_AHB2_GRP2_PERIPH_OCTOSPI1
1606:Drivers/STM32U5xx_HAL_Driver/Inc/stm32u5xx_ll_bus.h ****   *         @arg @ref LL_AHB2_GRP2_PERIPH_OCTOSPI2
1607:Drivers/STM32U5xx_HAL_Driver/Inc/stm32u5xx_ll_bus.h ****   *         @arg @ref LL_AHB2_GRP2_PERIPH_HSPI1 (*)
1608:Drivers/STM32U5xx_HAL_Driver/Inc/stm32u5xx_ll_bus.h ****   *         @arg @ref LL_AHB2_GRP2_PERIPH_SRAM5 (*)
1609:Drivers/STM32U5xx_HAL_Driver/Inc/stm32u5xx_ll_bus.h ****   *
1610:Drivers/STM32U5xx_HAL_Driver/Inc/stm32u5xx_ll_bus.h ****   *        (*) value not defined in all devices.
1611:Drivers/STM32U5xx_HAL_Driver/Inc/stm32u5xx_ll_bus.h ****   * @retval None
1612:Drivers/STM32U5xx_HAL_Driver/Inc/stm32u5xx_ll_bus.h ****   */
1613:Drivers/STM32U5xx_HAL_Driver/Inc/stm32u5xx_ll_bus.h **** __STATIC_INLINE void LL_AHB2_GRP2_DisableClockStopSleep(uint32_t Periphs)
1614:Drivers/STM32U5xx_HAL_Driver/Inc/stm32u5xx_ll_bus.h **** {
1615:Drivers/STM32U5xx_HAL_Driver/Inc/stm32u5xx_ll_bus.h ****   CLEAR_BIT(RCC->AHB2SMENR2, Periphs);
1616:Drivers/STM32U5xx_HAL_Driver/Inc/stm32u5xx_ll_bus.h **** }
1617:Drivers/STM32U5xx_HAL_Driver/Inc/stm32u5xx_ll_bus.h **** 
1618:Drivers/STM32U5xx_HAL_Driver/Inc/stm32u5xx_ll_bus.h **** /**
1619:Drivers/STM32U5xx_HAL_Driver/Inc/stm32u5xx_ll_bus.h ****   * @}
1620:Drivers/STM32U5xx_HAL_Driver/Inc/stm32u5xx_ll_bus.h ****   */
1621:Drivers/STM32U5xx_HAL_Driver/Inc/stm32u5xx_ll_bus.h **** 
1622:Drivers/STM32U5xx_HAL_Driver/Inc/stm32u5xx_ll_bus.h **** /** @defgroup BUS_LL_EF_APB1 APB1
1623:Drivers/STM32U5xx_HAL_Driver/Inc/stm32u5xx_ll_bus.h ****   * @{
1624:Drivers/STM32U5xx_HAL_Driver/Inc/stm32u5xx_ll_bus.h ****   */
1625:Drivers/STM32U5xx_HAL_Driver/Inc/stm32u5xx_ll_bus.h **** 
1626:Drivers/STM32U5xx_HAL_Driver/Inc/stm32u5xx_ll_bus.h **** /**
1627:Drivers/STM32U5xx_HAL_Driver/Inc/stm32u5xx_ll_bus.h ****   * @brief  Enable APB1 peripherals clock.
1628:Drivers/STM32U5xx_HAL_Driver/Inc/stm32u5xx_ll_bus.h ****   * @rmtoll APB1ENR1     TIM2EN        LL_APB1_GRP1_EnableClock\n
1629:Drivers/STM32U5xx_HAL_Driver/Inc/stm32u5xx_ll_bus.h ****   *         APB1ENR1     TIM3EN        LL_APB1_GRP1_EnableClock\n
1630:Drivers/STM32U5xx_HAL_Driver/Inc/stm32u5xx_ll_bus.h ****   *         APB1ENR1     TIM4EN        LL_APB1_GRP1_EnableClock\n
1631:Drivers/STM32U5xx_HAL_Driver/Inc/stm32u5xx_ll_bus.h ****   *         APB1ENR1     TIM5EN        LL_APB1_GRP1_EnableClock\n
1632:Drivers/STM32U5xx_HAL_Driver/Inc/stm32u5xx_ll_bus.h ****   *         APB1ENR1     TIM6EN        LL_APB1_GRP1_EnableClock\n
1633:Drivers/STM32U5xx_HAL_Driver/Inc/stm32u5xx_ll_bus.h ****   *         APB1ENR1     TIM7EN        LL_APB1_GRP1_EnableClock\n
1634:Drivers/STM32U5xx_HAL_Driver/Inc/stm32u5xx_ll_bus.h ****   *         APB1ENR1     WWDGEN        LL_APB1_GRP1_EnableClock\n
1635:Drivers/STM32U5xx_HAL_Driver/Inc/stm32u5xx_ll_bus.h ****   *         APB1ENR1     SPI2EN        LL_APB1_GRP1_EnableClock\n
1636:Drivers/STM32U5xx_HAL_Driver/Inc/stm32u5xx_ll_bus.h ****   *         APB1ENR1     USART2EN      LL_APB1_GRP1_EnableClock\n
1637:Drivers/STM32U5xx_HAL_Driver/Inc/stm32u5xx_ll_bus.h ****   *         APB1ENR1     USART3EN      LL_APB1_GRP1_EnableClock\n
1638:Drivers/STM32U5xx_HAL_Driver/Inc/stm32u5xx_ll_bus.h ****   *         APB1ENR1     UART4EN       LL_APB1_GRP1_EnableClock\n
1639:Drivers/STM32U5xx_HAL_Driver/Inc/stm32u5xx_ll_bus.h ****   *         APB1ENR1     UART5EN       LL_APB1_GRP1_EnableClock\n
ARM GAS  C:\Users\Yamaan\AppData\Local\Temp\ccBR0E2V.s 			page 46


1640:Drivers/STM32U5xx_HAL_Driver/Inc/stm32u5xx_ll_bus.h ****   *         APB1ENR1     I2C1EN        LL_APB1_GRP1_EnableClock\n
1641:Drivers/STM32U5xx_HAL_Driver/Inc/stm32u5xx_ll_bus.h ****   *         APB1ENR1     I2C2EN        LL_APB1_GRP1_EnableClock\n
1642:Drivers/STM32U5xx_HAL_Driver/Inc/stm32u5xx_ll_bus.h ****   *         APB1ENR1     CRSEN         LL_APB1_GRP1_EnableClock\n
1643:Drivers/STM32U5xx_HAL_Driver/Inc/stm32u5xx_ll_bus.h ****   *         APB1ENR1     USART6N       LL_APB1_GRP1_EnableClock\n
1644:Drivers/STM32U5xx_HAL_Driver/Inc/stm32u5xx_ll_bus.h ****   * @param  Periphs This parameter can be a combination of the following values:
1645:Drivers/STM32U5xx_HAL_Driver/Inc/stm32u5xx_ll_bus.h ****   *         @arg @ref LL_APB1_GRP1_PERIPH_ALL
1646:Drivers/STM32U5xx_HAL_Driver/Inc/stm32u5xx_ll_bus.h ****   *         @arg @ref LL_APB1_GRP1_PERIPH_TIM2
1647:Drivers/STM32U5xx_HAL_Driver/Inc/stm32u5xx_ll_bus.h ****   *         @arg @ref LL_APB1_GRP1_PERIPH_TIM3
1648:Drivers/STM32U5xx_HAL_Driver/Inc/stm32u5xx_ll_bus.h ****   *         @arg @ref LL_APB1_GRP1_PERIPH_TIM4
1649:Drivers/STM32U5xx_HAL_Driver/Inc/stm32u5xx_ll_bus.h ****   *         @arg @ref LL_APB1_GRP1_PERIPH_TIM5
1650:Drivers/STM32U5xx_HAL_Driver/Inc/stm32u5xx_ll_bus.h ****   *         @arg @ref LL_APB1_GRP1_PERIPH_TIM6
1651:Drivers/STM32U5xx_HAL_Driver/Inc/stm32u5xx_ll_bus.h ****   *         @arg @ref LL_APB1_GRP1_PERIPH_TIM7
1652:Drivers/STM32U5xx_HAL_Driver/Inc/stm32u5xx_ll_bus.h ****   *         @arg @ref LL_APB1_GRP1_PERIPH_WWDG
1653:Drivers/STM32U5xx_HAL_Driver/Inc/stm32u5xx_ll_bus.h ****   *         @arg @ref LL_APB1_GRP1_PERIPH_SPI2
1654:Drivers/STM32U5xx_HAL_Driver/Inc/stm32u5xx_ll_bus.h ****   *         @arg @ref LL_APB1_GRP1_PERIPH_USART2
1655:Drivers/STM32U5xx_HAL_Driver/Inc/stm32u5xx_ll_bus.h ****   *         @arg @ref LL_APB1_GRP1_PERIPH_USART3
1656:Drivers/STM32U5xx_HAL_Driver/Inc/stm32u5xx_ll_bus.h ****   *         @arg @ref LL_APB1_GRP1_PERIPH_UART4
1657:Drivers/STM32U5xx_HAL_Driver/Inc/stm32u5xx_ll_bus.h ****   *         @arg @ref LL_APB1_GRP1_PERIPH_UART5
1658:Drivers/STM32U5xx_HAL_Driver/Inc/stm32u5xx_ll_bus.h ****   *         @arg @ref LL_APB1_GRP1_PERIPH_I2C1
1659:Drivers/STM32U5xx_HAL_Driver/Inc/stm32u5xx_ll_bus.h ****   *         @arg @ref LL_APB1_GRP1_PERIPH_I2C2
1660:Drivers/STM32U5xx_HAL_Driver/Inc/stm32u5xx_ll_bus.h ****   *         @arg @ref LL_APB1_GRP1_PERIPH_CRS
1661:Drivers/STM32U5xx_HAL_Driver/Inc/stm32u5xx_ll_bus.h ****   *         @arg @ref LL_APB1_GRP1_PERIPH_USART6 (*)
1662:Drivers/STM32U5xx_HAL_Driver/Inc/stm32u5xx_ll_bus.h ****   *
1663:Drivers/STM32U5xx_HAL_Driver/Inc/stm32u5xx_ll_bus.h ****   *        (*) value not defined in all devices.
1664:Drivers/STM32U5xx_HAL_Driver/Inc/stm32u5xx_ll_bus.h ****   * @retval None
1665:Drivers/STM32U5xx_HAL_Driver/Inc/stm32u5xx_ll_bus.h ****   */
1666:Drivers/STM32U5xx_HAL_Driver/Inc/stm32u5xx_ll_bus.h **** __STATIC_INLINE void LL_APB1_GRP1_EnableClock(uint32_t Periphs)
1667:Drivers/STM32U5xx_HAL_Driver/Inc/stm32u5xx_ll_bus.h **** {
1668:Drivers/STM32U5xx_HAL_Driver/Inc/stm32u5xx_ll_bus.h ****   __IO uint32_t tmpreg;
1669:Drivers/STM32U5xx_HAL_Driver/Inc/stm32u5xx_ll_bus.h ****   SET_BIT(RCC->APB1ENR1, Periphs);
1670:Drivers/STM32U5xx_HAL_Driver/Inc/stm32u5xx_ll_bus.h ****   /* Delay after an RCC peripheral clock enabling */
1671:Drivers/STM32U5xx_HAL_Driver/Inc/stm32u5xx_ll_bus.h ****   tmpreg = READ_BIT(RCC->APB1ENR1, Periphs);
1672:Drivers/STM32U5xx_HAL_Driver/Inc/stm32u5xx_ll_bus.h ****   (void)tmpreg;
1673:Drivers/STM32U5xx_HAL_Driver/Inc/stm32u5xx_ll_bus.h **** }
1674:Drivers/STM32U5xx_HAL_Driver/Inc/stm32u5xx_ll_bus.h **** 
1675:Drivers/STM32U5xx_HAL_Driver/Inc/stm32u5xx_ll_bus.h **** /**
1676:Drivers/STM32U5xx_HAL_Driver/Inc/stm32u5xx_ll_bus.h ****   * @brief  Enable APB1 peripherals clock.
1677:Drivers/STM32U5xx_HAL_Driver/Inc/stm32u5xx_ll_bus.h ****   * @rmtoll APB1ENR2     I2C4EN        LL_APB1_GRP2_EnableClock\n
1678:Drivers/STM32U5xx_HAL_Driver/Inc/stm32u5xx_ll_bus.h ****   *         APB1ENR2     I2C5EN        LL_APB1_GRP2_EnableClock\n
1679:Drivers/STM32U5xx_HAL_Driver/Inc/stm32u5xx_ll_bus.h ****   *         APB1ENR2     I2C6EN        LL_APB1_GRP2_EnableClock\n
1680:Drivers/STM32U5xx_HAL_Driver/Inc/stm32u5xx_ll_bus.h ****   *         APB1ENR2     LPTIM2EN      LL_APB1_GRP2_EnableClock\n
1681:Drivers/STM32U5xx_HAL_Driver/Inc/stm32u5xx_ll_bus.h ****   *         APB1ENR2     FDCAN1EN      LL_APB1_GRP2_EnableClock\n
1682:Drivers/STM32U5xx_HAL_Driver/Inc/stm32u5xx_ll_bus.h ****   *         APB1ENR2     UCPD1EN       LL_APB1_GRP2_EnableClock
1683:Drivers/STM32U5xx_HAL_Driver/Inc/stm32u5xx_ll_bus.h ****   * @param  Periphs This parameter can be a combination of the following values:
1684:Drivers/STM32U5xx_HAL_Driver/Inc/stm32u5xx_ll_bus.h ****   *         @arg @ref LL_APB1_GRP2_PERIPH_ALL
1685:Drivers/STM32U5xx_HAL_Driver/Inc/stm32u5xx_ll_bus.h ****   *         @arg @ref LL_APB1_GRP2_PERIPH_I2C4
1686:Drivers/STM32U5xx_HAL_Driver/Inc/stm32u5xx_ll_bus.h ****   *         @arg @ref LL_APB1_GRP2_PERIPH_I2C5 (*)
1687:Drivers/STM32U5xx_HAL_Driver/Inc/stm32u5xx_ll_bus.h ****   *         @arg @ref LL_APB1_GRP2_PERIPH_I2C6 (*)
1688:Drivers/STM32U5xx_HAL_Driver/Inc/stm32u5xx_ll_bus.h ****   *         @arg @ref LL_APB1_GRP2_PERIPH_LPTIM2
1689:Drivers/STM32U5xx_HAL_Driver/Inc/stm32u5xx_ll_bus.h ****   *         @arg @ref LL_APB1_GRP2_PERIPH_FDCAN1
1690:Drivers/STM32U5xx_HAL_Driver/Inc/stm32u5xx_ll_bus.h ****   *         @arg @ref LL_APB1_GRP2_PERIPH_UCPD1
1691:Drivers/STM32U5xx_HAL_Driver/Inc/stm32u5xx_ll_bus.h ****   * @retval None
1692:Drivers/STM32U5xx_HAL_Driver/Inc/stm32u5xx_ll_bus.h ****   */
1693:Drivers/STM32U5xx_HAL_Driver/Inc/stm32u5xx_ll_bus.h **** __STATIC_INLINE void LL_APB1_GRP2_EnableClock(uint32_t Periphs)
 417              		.loc 2 1693 22 view .LVU134
 418              	.LBB18:
1694:Drivers/STM32U5xx_HAL_Driver/Inc/stm32u5xx_ll_bus.h **** {
ARM GAS  C:\Users\Yamaan\AppData\Local\Temp\ccBR0E2V.s 			page 47


1695:Drivers/STM32U5xx_HAL_Driver/Inc/stm32u5xx_ll_bus.h ****   __IO uint32_t tmpreg;
 419              		.loc 2 1695 3 view .LVU135
1696:Drivers/STM32U5xx_HAL_Driver/Inc/stm32u5xx_ll_bus.h ****   SET_BIT(RCC->APB1ENR2, Periphs);
 420              		.loc 2 1696 3 view .LVU136
 421 0012 1B4B     		ldr	r3, .L7
 422 0014 D3F8A020 		ldr	r2, [r3, #160]
 423 0018 42F40002 		orr	r2, r2, #8388608
 424 001c C3F8A020 		str	r2, [r3, #160]
1697:Drivers/STM32U5xx_HAL_Driver/Inc/stm32u5xx_ll_bus.h ****   /* Delay after an RCC peripheral clock enabling */
1698:Drivers/STM32U5xx_HAL_Driver/Inc/stm32u5xx_ll_bus.h ****   tmpreg = READ_BIT(RCC->APB1ENR2, Periphs);
 425              		.loc 2 1698 3 view .LVU137
 426              		.loc 2 1698 12 is_stmt 0 view .LVU138
 427 0020 D3F8A020 		ldr	r2, [r3, #160]
 428 0024 02F40002 		and	r2, r2, #8388608
 429              		.loc 2 1698 10 view .LVU139
 430 0028 0392     		str	r2, [sp, #12]
1699:Drivers/STM32U5xx_HAL_Driver/Inc/stm32u5xx_ll_bus.h ****   (void)tmpreg;
 431              		.loc 2 1699 3 is_stmt 1 view .LVU140
 432 002a 039A     		ldr	r2, [sp, #12]
 433              	.LVL17:
 434              		.loc 2 1699 3 is_stmt 0 view .LVU141
 435              	.LBE18:
 436              	.LBE17:
 302:Core/Src/main.c ****   LL_AHB2_GRP1_EnableClock(LL_AHB2_GRP1_PERIPH_GPIOA);
 437              		.loc 1 302 3 is_stmt 1 view .LVU142
 438              	.LBB19:
 439              	.LBI19:
 727:Drivers/STM32U5xx_HAL_Driver/Inc/stm32u5xx_ll_bus.h **** {
 440              		.loc 2 727 22 view .LVU143
 441              	.LBB20:
 729:Drivers/STM32U5xx_HAL_Driver/Inc/stm32u5xx_ll_bus.h ****   SET_BIT(RCC->AHB2ENR1, Periphs);
 442              		.loc 2 729 3 view .LVU144
 730:Drivers/STM32U5xx_HAL_Driver/Inc/stm32u5xx_ll_bus.h ****   /* Delay after an RCC peripheral clock enabling */
 443              		.loc 2 730 3 view .LVU145
 444 002c D3F88C20 		ldr	r2, [r3, #140]
 445 0030 42F00202 		orr	r2, r2, #2
 446 0034 C3F88C20 		str	r2, [r3, #140]
 732:Drivers/STM32U5xx_HAL_Driver/Inc/stm32u5xx_ll_bus.h ****   (void)tmpreg;
 447              		.loc 2 732 3 view .LVU146
 732:Drivers/STM32U5xx_HAL_Driver/Inc/stm32u5xx_ll_bus.h ****   (void)tmpreg;
 448              		.loc 2 732 12 is_stmt 0 view .LVU147
 449 0038 D3F88C20 		ldr	r2, [r3, #140]
 450 003c 02F00202 		and	r2, r2, #2
 732:Drivers/STM32U5xx_HAL_Driver/Inc/stm32u5xx_ll_bus.h ****   (void)tmpreg;
 451              		.loc 2 732 10 view .LVU148
 452 0040 0292     		str	r2, [sp, #8]
 733:Drivers/STM32U5xx_HAL_Driver/Inc/stm32u5xx_ll_bus.h **** }
 453              		.loc 2 733 3 is_stmt 1 view .LVU149
 454 0042 029A     		ldr	r2, [sp, #8]
 455              	.LVL18:
 733:Drivers/STM32U5xx_HAL_Driver/Inc/stm32u5xx_ll_bus.h **** }
 456              		.loc 2 733 3 is_stmt 0 view .LVU150
 457              	.LBE20:
 458              	.LBE19:
 303:Core/Src/main.c ****   /**UCPD1 GPIO Configuration
 459              		.loc 1 303 3 is_stmt 1 view .LVU151
 460              	.LBB21:
ARM GAS  C:\Users\Yamaan\AppData\Local\Temp\ccBR0E2V.s 			page 48


 461              	.LBI21:
 727:Drivers/STM32U5xx_HAL_Driver/Inc/stm32u5xx_ll_bus.h **** {
 462              		.loc 2 727 22 view .LVU152
 463              	.LBB22:
 729:Drivers/STM32U5xx_HAL_Driver/Inc/stm32u5xx_ll_bus.h ****   SET_BIT(RCC->AHB2ENR1, Periphs);
 464              		.loc 2 729 3 view .LVU153
 730:Drivers/STM32U5xx_HAL_Driver/Inc/stm32u5xx_ll_bus.h ****   /* Delay after an RCC peripheral clock enabling */
 465              		.loc 2 730 3 view .LVU154
 466 0044 D3F88C20 		ldr	r2, [r3, #140]
 467 0048 42F00102 		orr	r2, r2, #1
 468 004c C3F88C20 		str	r2, [r3, #140]
 732:Drivers/STM32U5xx_HAL_Driver/Inc/stm32u5xx_ll_bus.h ****   (void)tmpreg;
 469              		.loc 2 732 3 view .LVU155
 732:Drivers/STM32U5xx_HAL_Driver/Inc/stm32u5xx_ll_bus.h ****   (void)tmpreg;
 470              		.loc 2 732 12 is_stmt 0 view .LVU156
 471 0050 D3F88C30 		ldr	r3, [r3, #140]
 472 0054 03F00103 		and	r3, r3, #1
 732:Drivers/STM32U5xx_HAL_Driver/Inc/stm32u5xx_ll_bus.h ****   (void)tmpreg;
 473              		.loc 2 732 10 view .LVU157
 474 0058 0193     		str	r3, [sp, #4]
 733:Drivers/STM32U5xx_HAL_Driver/Inc/stm32u5xx_ll_bus.h **** }
 475              		.loc 2 733 3 is_stmt 1 view .LVU158
 476 005a 019B     		ldr	r3, [sp, #4]
 477              	.LVL19:
 733:Drivers/STM32U5xx_HAL_Driver/Inc/stm32u5xx_ll_bus.h **** }
 478              		.loc 2 733 3 is_stmt 0 view .LVU159
 479              	.LBE22:
 480              	.LBE21:
 308:Core/Src/main.c ****   GPIO_InitStruct.Mode = LL_GPIO_MODE_ANALOG;
 481              		.loc 1 308 3 is_stmt 1 view .LVU160
 308:Core/Src/main.c ****   GPIO_InitStruct.Mode = LL_GPIO_MODE_ANALOG;
 482              		.loc 1 308 23 is_stmt 0 view .LVU161
 483 005c 4FF40046 		mov	r6, #32768
 484 0060 0496     		str	r6, [sp, #16]
 309:Core/Src/main.c ****   GPIO_InitStruct.Pull = LL_GPIO_PULL_NO;
 485              		.loc 1 309 3 is_stmt 1 view .LVU162
 309:Core/Src/main.c ****   GPIO_InitStruct.Pull = LL_GPIO_PULL_NO;
 486              		.loc 1 309 24 is_stmt 0 view .LVU163
 487 0062 0325     		movs	r5, #3
 488 0064 0595     		str	r5, [sp, #20]
 310:Core/Src/main.c ****   LL_GPIO_Init(GPIOB, &GPIO_InitStruct);
 489              		.loc 1 310 3 is_stmt 1 view .LVU164
 311:Core/Src/main.c **** 
 490              		.loc 1 311 3 view .LVU165
 491 0066 04A9     		add	r1, sp, #16
 492 0068 0648     		ldr	r0, .L7+4
 493 006a FFF7FEFF 		bl	LL_GPIO_Init
 494              	.LVL20:
 313:Core/Src/main.c ****   GPIO_InitStruct.Mode = LL_GPIO_MODE_ANALOG;
 495              		.loc 1 313 3 view .LVU166
 313:Core/Src/main.c ****   GPIO_InitStruct.Mode = LL_GPIO_MODE_ANALOG;
 496              		.loc 1 313 23 is_stmt 0 view .LVU167
 497 006e 0496     		str	r6, [sp, #16]
 314:Core/Src/main.c ****   GPIO_InitStruct.Pull = LL_GPIO_PULL_NO;
 498              		.loc 1 314 3 is_stmt 1 view .LVU168
 314:Core/Src/main.c ****   GPIO_InitStruct.Pull = LL_GPIO_PULL_NO;
 499              		.loc 1 314 24 is_stmt 0 view .LVU169
ARM GAS  C:\Users\Yamaan\AppData\Local\Temp\ccBR0E2V.s 			page 49


 500 0070 0595     		str	r5, [sp, #20]
 315:Core/Src/main.c ****   LL_GPIO_Init(GPIOA, &GPIO_InitStruct);
 501              		.loc 1 315 3 is_stmt 1 view .LVU170
 315:Core/Src/main.c ****   LL_GPIO_Init(GPIOA, &GPIO_InitStruct);
 502              		.loc 1 315 24 is_stmt 0 view .LVU171
 503 0072 0894     		str	r4, [sp, #32]
 316:Core/Src/main.c **** 
 504              		.loc 1 316 3 is_stmt 1 view .LVU172
 505 0074 04A9     		add	r1, sp, #16
 506 0076 0448     		ldr	r0, .L7+8
 507 0078 FFF7FEFF 		bl	LL_GPIO_Init
 508              	.LVL21:
 325:Core/Src/main.c **** 
 509              		.loc 1 325 1 is_stmt 0 view .LVU173
 510 007c 0AB0     		add	sp, sp, #40
 511              		.cfi_def_cfa_offset 16
 512              		@ sp needed
 513 007e 70BD     		pop	{r4, r5, r6, pc}
 514              	.L8:
 515              		.align	2
 516              	.L7:
 517 0080 000C0246 		.word	1174539264
 518 0084 00040242 		.word	1107428352
 519 0088 00000242 		.word	1107427328
 520              		.cfi_endproc
 521              	.LFE1332:
 523              		.section	.text.Error_Handler,"ax",%progbits
 524              		.align	1
 525              		.global	Error_Handler
 526              		.syntax unified
 527              		.thumb
 528              		.thumb_func
 530              	Error_Handler:
 531              	.LFB1336:
 510:Core/Src/main.c **** 
 511:Core/Src/main.c **** /* USER CODE BEGIN 4 */
 512:Core/Src/main.c **** 
 513:Core/Src/main.c **** /* USER CODE END 4 */
 514:Core/Src/main.c **** 
 515:Core/Src/main.c **** /**
 516:Core/Src/main.c ****   * @brief  This function is executed in case of error occurrence.
 517:Core/Src/main.c ****   * @retval None
 518:Core/Src/main.c ****   */
 519:Core/Src/main.c **** void Error_Handler(void)
 520:Core/Src/main.c **** {
 532              		.loc 1 520 1 is_stmt 1 view -0
 533              		.cfi_startproc
 534              		@ Volatile: function does not return.
 535              		@ args = 0, pretend = 0, frame = 0
 536              		@ frame_needed = 0, uses_anonymous_args = 0
 537              		@ link register save eliminated.
 521:Core/Src/main.c ****   /* USER CODE BEGIN Error_Handler_Debug */
 522:Core/Src/main.c ****   /* User can add his own implementation to report the HAL error return state */
 523:Core/Src/main.c ****   __disable_irq();
 538              		.loc 1 523 3 view .LVU175
 539              	.LBB23:
 540              	.LBI23:
ARM GAS  C:\Users\Yamaan\AppData\Local\Temp\ccBR0E2V.s 			page 50


 541              		.file 3 "Drivers/CMSIS/Include/cmsis_gcc.h"
   1:Drivers/CMSIS/Include/cmsis_gcc.h **** /**************************************************************************//**
   2:Drivers/CMSIS/Include/cmsis_gcc.h ****  * @file     cmsis_gcc.h
   3:Drivers/CMSIS/Include/cmsis_gcc.h ****  * @brief    CMSIS compiler GCC header file
   4:Drivers/CMSIS/Include/cmsis_gcc.h ****  * @version  V5.2.0
   5:Drivers/CMSIS/Include/cmsis_gcc.h ****  * @date     08. May 2019
   6:Drivers/CMSIS/Include/cmsis_gcc.h ****  ******************************************************************************/
   7:Drivers/CMSIS/Include/cmsis_gcc.h **** /*
   8:Drivers/CMSIS/Include/cmsis_gcc.h ****  * Copyright (c) 2009-2019 Arm Limited. All rights reserved.
   9:Drivers/CMSIS/Include/cmsis_gcc.h ****  *
  10:Drivers/CMSIS/Include/cmsis_gcc.h ****  * SPDX-License-Identifier: Apache-2.0
  11:Drivers/CMSIS/Include/cmsis_gcc.h ****  *
  12:Drivers/CMSIS/Include/cmsis_gcc.h ****  * Licensed under the Apache License, Version 2.0 (the License); you may
  13:Drivers/CMSIS/Include/cmsis_gcc.h ****  * not use this file except in compliance with the License.
  14:Drivers/CMSIS/Include/cmsis_gcc.h ****  * You may obtain a copy of the License at
  15:Drivers/CMSIS/Include/cmsis_gcc.h ****  *
  16:Drivers/CMSIS/Include/cmsis_gcc.h ****  * www.apache.org/licenses/LICENSE-2.0
  17:Drivers/CMSIS/Include/cmsis_gcc.h ****  *
  18:Drivers/CMSIS/Include/cmsis_gcc.h ****  * Unless required by applicable law or agreed to in writing, software
  19:Drivers/CMSIS/Include/cmsis_gcc.h ****  * distributed under the License is distributed on an AS IS BASIS, WITHOUT
  20:Drivers/CMSIS/Include/cmsis_gcc.h ****  * WARRANTIES OR CONDITIONS OF ANY KIND, either express or implied.
  21:Drivers/CMSIS/Include/cmsis_gcc.h ****  * See the License for the specific language governing permissions and
  22:Drivers/CMSIS/Include/cmsis_gcc.h ****  * limitations under the License.
  23:Drivers/CMSIS/Include/cmsis_gcc.h ****  */
  24:Drivers/CMSIS/Include/cmsis_gcc.h **** 
  25:Drivers/CMSIS/Include/cmsis_gcc.h **** #ifndef __CMSIS_GCC_H
  26:Drivers/CMSIS/Include/cmsis_gcc.h **** #define __CMSIS_GCC_H
  27:Drivers/CMSIS/Include/cmsis_gcc.h **** 
  28:Drivers/CMSIS/Include/cmsis_gcc.h **** /* ignore some GCC warnings */
  29:Drivers/CMSIS/Include/cmsis_gcc.h **** #pragma GCC diagnostic push
  30:Drivers/CMSIS/Include/cmsis_gcc.h **** #pragma GCC diagnostic ignored "-Wsign-conversion"
  31:Drivers/CMSIS/Include/cmsis_gcc.h **** #pragma GCC diagnostic ignored "-Wconversion"
  32:Drivers/CMSIS/Include/cmsis_gcc.h **** #pragma GCC diagnostic ignored "-Wunused-parameter"
  33:Drivers/CMSIS/Include/cmsis_gcc.h **** 
  34:Drivers/CMSIS/Include/cmsis_gcc.h **** /* Fallback for __has_builtin */
  35:Drivers/CMSIS/Include/cmsis_gcc.h **** #ifndef __has_builtin
  36:Drivers/CMSIS/Include/cmsis_gcc.h ****   #define __has_builtin(x) (0)
  37:Drivers/CMSIS/Include/cmsis_gcc.h **** #endif
  38:Drivers/CMSIS/Include/cmsis_gcc.h **** 
  39:Drivers/CMSIS/Include/cmsis_gcc.h **** /* CMSIS compiler specific defines */
  40:Drivers/CMSIS/Include/cmsis_gcc.h **** #ifndef   __ASM
  41:Drivers/CMSIS/Include/cmsis_gcc.h ****   #define __ASM                                  __asm
  42:Drivers/CMSIS/Include/cmsis_gcc.h **** #endif
  43:Drivers/CMSIS/Include/cmsis_gcc.h **** #ifndef   __INLINE
  44:Drivers/CMSIS/Include/cmsis_gcc.h ****   #define __INLINE                               inline
  45:Drivers/CMSIS/Include/cmsis_gcc.h **** #endif
  46:Drivers/CMSIS/Include/cmsis_gcc.h **** #ifndef   __STATIC_INLINE
  47:Drivers/CMSIS/Include/cmsis_gcc.h ****   #define __STATIC_INLINE                        static inline
  48:Drivers/CMSIS/Include/cmsis_gcc.h **** #endif
  49:Drivers/CMSIS/Include/cmsis_gcc.h **** #ifndef   __STATIC_FORCEINLINE                 
  50:Drivers/CMSIS/Include/cmsis_gcc.h ****   #define __STATIC_FORCEINLINE                   __attribute__((always_inline)) static inline
  51:Drivers/CMSIS/Include/cmsis_gcc.h **** #endif                                           
  52:Drivers/CMSIS/Include/cmsis_gcc.h **** #ifndef   __NO_RETURN
  53:Drivers/CMSIS/Include/cmsis_gcc.h ****   #define __NO_RETURN                            __attribute__((__noreturn__))
  54:Drivers/CMSIS/Include/cmsis_gcc.h **** #endif
  55:Drivers/CMSIS/Include/cmsis_gcc.h **** #ifndef   __USED
  56:Drivers/CMSIS/Include/cmsis_gcc.h ****   #define __USED                                 __attribute__((used))
ARM GAS  C:\Users\Yamaan\AppData\Local\Temp\ccBR0E2V.s 			page 51


  57:Drivers/CMSIS/Include/cmsis_gcc.h **** #endif
  58:Drivers/CMSIS/Include/cmsis_gcc.h **** #ifndef   __WEAK
  59:Drivers/CMSIS/Include/cmsis_gcc.h ****   #define __WEAK                                 __attribute__((weak))
  60:Drivers/CMSIS/Include/cmsis_gcc.h **** #endif
  61:Drivers/CMSIS/Include/cmsis_gcc.h **** #ifndef   __PACKED
  62:Drivers/CMSIS/Include/cmsis_gcc.h ****   #define __PACKED                               __attribute__((packed, aligned(1)))
  63:Drivers/CMSIS/Include/cmsis_gcc.h **** #endif
  64:Drivers/CMSIS/Include/cmsis_gcc.h **** #ifndef   __PACKED_STRUCT
  65:Drivers/CMSIS/Include/cmsis_gcc.h ****   #define __PACKED_STRUCT                        struct __attribute__((packed, aligned(1)))
  66:Drivers/CMSIS/Include/cmsis_gcc.h **** #endif
  67:Drivers/CMSIS/Include/cmsis_gcc.h **** #ifndef   __PACKED_UNION
  68:Drivers/CMSIS/Include/cmsis_gcc.h ****   #define __PACKED_UNION                         union __attribute__((packed, aligned(1)))
  69:Drivers/CMSIS/Include/cmsis_gcc.h **** #endif
  70:Drivers/CMSIS/Include/cmsis_gcc.h **** #ifndef   __UNALIGNED_UINT32        /* deprecated */
  71:Drivers/CMSIS/Include/cmsis_gcc.h ****   #pragma GCC diagnostic push
  72:Drivers/CMSIS/Include/cmsis_gcc.h ****   #pragma GCC diagnostic ignored "-Wpacked"
  73:Drivers/CMSIS/Include/cmsis_gcc.h ****   #pragma GCC diagnostic ignored "-Wattributes"
  74:Drivers/CMSIS/Include/cmsis_gcc.h ****   struct __attribute__((packed)) T_UINT32 { uint32_t v; };
  75:Drivers/CMSIS/Include/cmsis_gcc.h ****   #pragma GCC diagnostic pop
  76:Drivers/CMSIS/Include/cmsis_gcc.h ****   #define __UNALIGNED_UINT32(x)                  (((struct T_UINT32 *)(x))->v)
  77:Drivers/CMSIS/Include/cmsis_gcc.h **** #endif
  78:Drivers/CMSIS/Include/cmsis_gcc.h **** #ifndef   __UNALIGNED_UINT16_WRITE
  79:Drivers/CMSIS/Include/cmsis_gcc.h ****   #pragma GCC diagnostic push
  80:Drivers/CMSIS/Include/cmsis_gcc.h ****   #pragma GCC diagnostic ignored "-Wpacked"
  81:Drivers/CMSIS/Include/cmsis_gcc.h ****   #pragma GCC diagnostic ignored "-Wattributes"
  82:Drivers/CMSIS/Include/cmsis_gcc.h ****   __PACKED_STRUCT T_UINT16_WRITE { uint16_t v; };
  83:Drivers/CMSIS/Include/cmsis_gcc.h ****   #pragma GCC diagnostic pop
  84:Drivers/CMSIS/Include/cmsis_gcc.h ****   #define __UNALIGNED_UINT16_WRITE(addr, val)    (void)((((struct T_UINT16_WRITE *)(void *)(addr))-
  85:Drivers/CMSIS/Include/cmsis_gcc.h **** #endif
  86:Drivers/CMSIS/Include/cmsis_gcc.h **** #ifndef   __UNALIGNED_UINT16_READ
  87:Drivers/CMSIS/Include/cmsis_gcc.h ****   #pragma GCC diagnostic push
  88:Drivers/CMSIS/Include/cmsis_gcc.h ****   #pragma GCC diagnostic ignored "-Wpacked"
  89:Drivers/CMSIS/Include/cmsis_gcc.h ****   #pragma GCC diagnostic ignored "-Wattributes"
  90:Drivers/CMSIS/Include/cmsis_gcc.h ****   __PACKED_STRUCT T_UINT16_READ { uint16_t v; };
  91:Drivers/CMSIS/Include/cmsis_gcc.h ****   #pragma GCC diagnostic pop
  92:Drivers/CMSIS/Include/cmsis_gcc.h ****   #define __UNALIGNED_UINT16_READ(addr)          (((const struct T_UINT16_READ *)(const void *)(add
  93:Drivers/CMSIS/Include/cmsis_gcc.h **** #endif
  94:Drivers/CMSIS/Include/cmsis_gcc.h **** #ifndef   __UNALIGNED_UINT32_WRITE
  95:Drivers/CMSIS/Include/cmsis_gcc.h ****   #pragma GCC diagnostic push
  96:Drivers/CMSIS/Include/cmsis_gcc.h ****   #pragma GCC diagnostic ignored "-Wpacked"
  97:Drivers/CMSIS/Include/cmsis_gcc.h ****   #pragma GCC diagnostic ignored "-Wattributes"
  98:Drivers/CMSIS/Include/cmsis_gcc.h ****   __PACKED_STRUCT T_UINT32_WRITE { uint32_t v; };
  99:Drivers/CMSIS/Include/cmsis_gcc.h ****   #pragma GCC diagnostic pop
 100:Drivers/CMSIS/Include/cmsis_gcc.h ****   #define __UNALIGNED_UINT32_WRITE(addr, val)    (void)((((struct T_UINT32_WRITE *)(void *)(addr))-
 101:Drivers/CMSIS/Include/cmsis_gcc.h **** #endif
 102:Drivers/CMSIS/Include/cmsis_gcc.h **** #ifndef   __UNALIGNED_UINT32_READ
 103:Drivers/CMSIS/Include/cmsis_gcc.h ****   #pragma GCC diagnostic push
