ARM GAS  C:\Users\Yamaan\AppData\Local\Temp\cctXBHqZ.s 			page 1


   1              		.cpu cortex-m33
   2              		.arch armv8-m.main
   3              		.fpu fpv5-sp-d16
   4              		.arch_extension dsp
   5              		.eabi_attribute 27, 1
   6              		.eabi_attribute 28, 1
   7              		.eabi_attribute 20, 1
   8              		.eabi_attribute 21, 1
   9              		.eabi_attribute 23, 3
  10              		.eabi_attribute 24, 1
  11              		.eabi_attribute 25, 1
  12              		.eabi_attribute 26, 1
  13              		.eabi_attribute 30, 1
  14              		.eabi_attribute 34, 1
  15              		.eabi_attribute 18, 4
  16              		.file	"stm32u5xx_hal_msp.c"
  17              		.text
  18              	.Ltext0:
  19              		.cfi_sections	.debug_frame
  20              		.file 1 "Core/Src/stm32u5xx_hal_msp.c"
  21              		.section	.text.HAL_MspInit,"ax",%progbits
  22              		.align	1
  23              		.global	HAL_MspInit
  24              		.syntax unified
  25              		.thumb
  26              		.thumb_func
  28              	HAL_MspInit:
  29              	.LFB1327:
   1:Core/Src/stm32u5xx_hal_msp.c **** /* USER CODE BEGIN Header */
   2:Core/Src/stm32u5xx_hal_msp.c **** /**
   3:Core/Src/stm32u5xx_hal_msp.c ****   ******************************************************************************
   4:Core/Src/stm32u5xx_hal_msp.c ****   * @file         stm32u5xx_hal_msp.c
   5:Core/Src/stm32u5xx_hal_msp.c ****   * @brief        This file provides code for the MSP Initialization
   6:Core/Src/stm32u5xx_hal_msp.c ****   *               and de-Initialization codes.
   7:Core/Src/stm32u5xx_hal_msp.c ****   ******************************************************************************
   8:Core/Src/stm32u5xx_hal_msp.c ****   * @attention
   9:Core/Src/stm32u5xx_hal_msp.c ****   *
  10:Core/Src/stm32u5xx_hal_msp.c ****   * Copyright (c) 2023 STMicroelectronics.
  11:Core/Src/stm32u5xx_hal_msp.c ****   * All rights reserved.
  12:Core/Src/stm32u5xx_hal_msp.c ****   *
  13:Core/Src/stm32u5xx_hal_msp.c ****   * This software is licensed under terms that can be found in the LICENSE file
  14:Core/Src/stm32u5xx_hal_msp.c ****   * in the root directory of this software component.
  15:Core/Src/stm32u5xx_hal_msp.c ****   * If no LICENSE file comes with this software, it is provided AS-IS.
  16:Core/Src/stm32u5xx_hal_msp.c ****   *
  17:Core/Src/stm32u5xx_hal_msp.c ****   ******************************************************************************
  18:Core/Src/stm32u5xx_hal_msp.c ****   */
  19:Core/Src/stm32u5xx_hal_msp.c **** /* USER CODE END Header */
  20:Core/Src/stm32u5xx_hal_msp.c **** 
  21:Core/Src/stm32u5xx_hal_msp.c **** /* Includes ------------------------------------------------------------------*/
  22:Core/Src/stm32u5xx_hal_msp.c **** #include "main.h"
  23:Core/Src/stm32u5xx_hal_msp.c **** /* USER CODE BEGIN Includes */
  24:Core/Src/stm32u5xx_hal_msp.c **** 
  25:Core/Src/stm32u5xx_hal_msp.c **** /* USER CODE END Includes */
  26:Core/Src/stm32u5xx_hal_msp.c **** 
  27:Core/Src/stm32u5xx_hal_msp.c **** /* Private typedef -----------------------------------------------------------*/
  28:Core/Src/stm32u5xx_hal_msp.c **** /* USER CODE BEGIN TD */
  29:Core/Src/stm32u5xx_hal_msp.c **** 
ARM GAS  C:\Users\Yamaan\AppData\Local\Temp\cctXBHqZ.s 			page 2


  30:Core/Src/stm32u5xx_hal_msp.c **** /* USER CODE END TD */
  31:Core/Src/stm32u5xx_hal_msp.c **** 
  32:Core/Src/stm32u5xx_hal_msp.c **** /* Private define ------------------------------------------------------------*/
  33:Core/Src/stm32u5xx_hal_msp.c **** /* USER CODE BEGIN Define */
  34:Core/Src/stm32u5xx_hal_msp.c **** 
  35:Core/Src/stm32u5xx_hal_msp.c **** /* USER CODE END Define */
  36:Core/Src/stm32u5xx_hal_msp.c **** 
  37:Core/Src/stm32u5xx_hal_msp.c **** /* Private macro -------------------------------------------------------------*/
  38:Core/Src/stm32u5xx_hal_msp.c **** /* USER CODE BEGIN Macro */
  39:Core/Src/stm32u5xx_hal_msp.c **** 
  40:Core/Src/stm32u5xx_hal_msp.c **** /* USER CODE END Macro */
  41:Core/Src/stm32u5xx_hal_msp.c **** 
  42:Core/Src/stm32u5xx_hal_msp.c **** /* Private variables ---------------------------------------------------------*/
  43:Core/Src/stm32u5xx_hal_msp.c **** /* USER CODE BEGIN PV */
  44:Core/Src/stm32u5xx_hal_msp.c **** 
  45:Core/Src/stm32u5xx_hal_msp.c **** /* USER CODE END PV */
  46:Core/Src/stm32u5xx_hal_msp.c **** 
  47:Core/Src/stm32u5xx_hal_msp.c **** /* Private function prototypes -----------------------------------------------*/
  48:Core/Src/stm32u5xx_hal_msp.c **** /* USER CODE BEGIN PFP */
  49:Core/Src/stm32u5xx_hal_msp.c **** 
  50:Core/Src/stm32u5xx_hal_msp.c **** /* USER CODE END PFP */
  51:Core/Src/stm32u5xx_hal_msp.c **** 
  52:Core/Src/stm32u5xx_hal_msp.c **** /* External functions --------------------------------------------------------*/
  53:Core/Src/stm32u5xx_hal_msp.c **** /* USER CODE BEGIN ExternalFunctions */
  54:Core/Src/stm32u5xx_hal_msp.c **** 
  55:Core/Src/stm32u5xx_hal_msp.c **** /* USER CODE END ExternalFunctions */
  56:Core/Src/stm32u5xx_hal_msp.c **** 
  57:Core/Src/stm32u5xx_hal_msp.c **** /* USER CODE BEGIN 0 */
  58:Core/Src/stm32u5xx_hal_msp.c **** 
  59:Core/Src/stm32u5xx_hal_msp.c **** /* USER CODE END 0 */
  60:Core/Src/stm32u5xx_hal_msp.c **** /**
  61:Core/Src/stm32u5xx_hal_msp.c ****   * Initializes the Global MSP.
  62:Core/Src/stm32u5xx_hal_msp.c ****   */
  63:Core/Src/stm32u5xx_hal_msp.c **** void HAL_MspInit(void)
  64:Core/Src/stm32u5xx_hal_msp.c **** {
  30              		.loc 1 64 1 view -0
  31              		.cfi_startproc
  32              		@ args = 0, pretend = 0, frame = 8
  33              		@ frame_needed = 0, uses_anonymous_args = 0
  34 0000 00B5     		push	{lr}
  35              		.cfi_def_cfa_offset 4
  36              		.cfi_offset 14, -4
  37 0002 83B0     		sub	sp, sp, #12
  38              		.cfi_def_cfa_offset 16
  65:Core/Src/stm32u5xx_hal_msp.c ****   /* USER CODE BEGIN MspInit 0 */
  66:Core/Src/stm32u5xx_hal_msp.c **** 
  67:Core/Src/stm32u5xx_hal_msp.c ****   /* USER CODE END MspInit 0 */
  68:Core/Src/stm32u5xx_hal_msp.c **** 
  69:Core/Src/stm32u5xx_hal_msp.c ****   __HAL_RCC_PWR_CLK_ENABLE();
  39              		.loc 1 69 3 view .LVU1
  40              	.LBB2:
  41              		.loc 1 69 3 view .LVU2
  42              		.loc 1 69 3 view .LVU3
  43 0004 094B     		ldr	r3, .L3
  44 0006 D3F89420 		ldr	r2, [r3, #148]
  45 000a 42F00402 		orr	r2, r2, #4
  46 000e C3F89420 		str	r2, [r3, #148]
ARM GAS  C:\Users\Yamaan\AppData\Local\Temp\cctXBHqZ.s 			page 3


  47              		.loc 1 69 3 view .LVU4
  48 0012 D3F89430 		ldr	r3, [r3, #148]
  49 0016 03F00403 		and	r3, r3, #4
  50 001a 0193     		str	r3, [sp, #4]
  51              		.loc 1 69 3 view .LVU5
  52 001c 019B     		ldr	r3, [sp, #4]
  53              	.LBE2:
  54              		.loc 1 69 3 view .LVU6
  70:Core/Src/stm32u5xx_hal_msp.c **** 
  71:Core/Src/stm32u5xx_hal_msp.c ****   HAL_NVIC_SetPriorityGrouping(NVIC_PRIORITYGROUP_3);
  55              		.loc 1 71 3 view .LVU7
  56 001e 0420     		movs	r0, #4
  57 0020 FFF7FEFF 		bl	HAL_NVIC_SetPriorityGrouping
  58              	.LVL0:
  72:Core/Src/stm32u5xx_hal_msp.c **** 
  73:Core/Src/stm32u5xx_hal_msp.c ****   /* System interrupt init*/
  74:Core/Src/stm32u5xx_hal_msp.c **** 
  75:Core/Src/stm32u5xx_hal_msp.c ****   /* USER CODE BEGIN MspInit 1 */
  76:Core/Src/stm32u5xx_hal_msp.c **** 
  77:Core/Src/stm32u5xx_hal_msp.c ****   /* USER CODE END MspInit 1 */
  78:Core/Src/stm32u5xx_hal_msp.c **** }
  59              		.loc 1 78 1 is_stmt 0 view .LVU8
  60 0024 03B0     		add	sp, sp, #12
  61              		.cfi_def_cfa_offset 4
  62              		@ sp needed
  63 0026 5DF804FB 		ldr	pc, [sp], #4
  64              	.L4:
  65 002a 00BF     		.align	2
  66              	.L3:
  67 002c 000C0246 		.word	1174539264
  68              		.cfi_endproc
  69              	.LFE1327:
  71              		.section	.text.HAL_ADC_MspInit,"ax",%progbits
  72              		.align	1
  73              		.global	HAL_ADC_MspInit
  74              		.syntax unified
  75              		.thumb
  76              		.thumb_func
  78              	HAL_ADC_MspInit:
  79              	.LVL1:
  80              	.LFB1328:
  79:Core/Src/stm32u5xx_hal_msp.c **** 
  80:Core/Src/stm32u5xx_hal_msp.c **** /**
  81:Core/Src/stm32u5xx_hal_msp.c **** * @brief ADC MSP Initialization
  82:Core/Src/stm32u5xx_hal_msp.c **** * This function configures the hardware resources used in this example
  83:Core/Src/stm32u5xx_hal_msp.c **** * @param hadc: ADC handle pointer
  84:Core/Src/stm32u5xx_hal_msp.c **** * @retval None
  85:Core/Src/stm32u5xx_hal_msp.c **** */
  86:Core/Src/stm32u5xx_hal_msp.c **** void HAL_ADC_MspInit(ADC_HandleTypeDef* hadc)
  87:Core/Src/stm32u5xx_hal_msp.c **** {
  81              		.loc 1 87 1 is_stmt 1 view -0
  82              		.cfi_startproc
  83              		@ args = 0, pretend = 0, frame = 240
  84              		@ frame_needed = 0, uses_anonymous_args = 0
  85              		.loc 1 87 1 is_stmt 0 view .LVU10
  86 0000 30B5     		push	{r4, r5, lr}
  87              		.cfi_def_cfa_offset 12
ARM GAS  C:\Users\Yamaan\AppData\Local\Temp\cctXBHqZ.s 			page 4


  88              		.cfi_offset 4, -12
  89              		.cfi_offset 5, -8
  90              		.cfi_offset 14, -4
  91 0002 BDB0     		sub	sp, sp, #244
  92              		.cfi_def_cfa_offset 256
  93 0004 0446     		mov	r4, r0
  88:Core/Src/stm32u5xx_hal_msp.c ****   GPIO_InitTypeDef GPIO_InitStruct = {0};
  94              		.loc 1 88 3 is_stmt 1 view .LVU11
  95              		.loc 1 88 20 is_stmt 0 view .LVU12
  96 0006 0021     		movs	r1, #0
  97 0008 3791     		str	r1, [sp, #220]
  98 000a 3891     		str	r1, [sp, #224]
  99 000c 3991     		str	r1, [sp, #228]
 100 000e 3A91     		str	r1, [sp, #232]
 101 0010 3B91     		str	r1, [sp, #236]
  89:Core/Src/stm32u5xx_hal_msp.c ****   RCC_PeriphCLKInitTypeDef PeriphClkInit = {0};
 102              		.loc 1 89 3 is_stmt 1 view .LVU13
 103              		.loc 1 89 28 is_stmt 0 view .LVU14
 104 0012 C822     		movs	r2, #200
 105 0014 04A8     		add	r0, sp, #16
 106              	.LVL2:
 107              		.loc 1 89 28 view .LVU15
 108 0016 FFF7FEFF 		bl	memset
 109              	.LVL3:
  90:Core/Src/stm32u5xx_hal_msp.c ****   if(hadc->Instance==ADC1)
 110              		.loc 1 90 3 is_stmt 1 view .LVU16
 111              		.loc 1 90 10 is_stmt 0 view .LVU17
 112 001a 2268     		ldr	r2, [r4]
 113              		.loc 1 90 5 view .LVU18
 114 001c 304B     		ldr	r3, .L11
 115 001e 9A42     		cmp	r2, r3
 116 0020 01D0     		beq	.L9
 117              	.LVL4:
 118              	.L5:
  91:Core/Src/stm32u5xx_hal_msp.c ****   {
  92:Core/Src/stm32u5xx_hal_msp.c ****   /* USER CODE BEGIN ADC1_MspInit 0 */
  93:Core/Src/stm32u5xx_hal_msp.c **** 
  94:Core/Src/stm32u5xx_hal_msp.c ****   /* USER CODE END ADC1_MspInit 0 */
  95:Core/Src/stm32u5xx_hal_msp.c **** 
  96:Core/Src/stm32u5xx_hal_msp.c ****   /** Initializes the peripherals clock
  97:Core/Src/stm32u5xx_hal_msp.c ****   */
  98:Core/Src/stm32u5xx_hal_msp.c ****     PeriphClkInit.PeriphClockSelection = RCC_PERIPHCLK_ADCDAC;
  99:Core/Src/stm32u5xx_hal_msp.c ****     PeriphClkInit.AdcDacClockSelection = RCC_ADCDACCLKSOURCE_HSI;
 100:Core/Src/stm32u5xx_hal_msp.c ****     if (HAL_RCCEx_PeriphCLKConfig(&PeriphClkInit) != HAL_OK)
 101:Core/Src/stm32u5xx_hal_msp.c ****     {
 102:Core/Src/stm32u5xx_hal_msp.c ****       Error_Handler();
 103:Core/Src/stm32u5xx_hal_msp.c ****     }
 104:Core/Src/stm32u5xx_hal_msp.c **** 
 105:Core/Src/stm32u5xx_hal_msp.c ****     /* Peripheral clock enable */
 106:Core/Src/stm32u5xx_hal_msp.c ****     __HAL_RCC_ADC12_CLK_ENABLE();
 107:Core/Src/stm32u5xx_hal_msp.c **** 
 108:Core/Src/stm32u5xx_hal_msp.c ****     __HAL_RCC_GPIOC_CLK_ENABLE();
 109:Core/Src/stm32u5xx_hal_msp.c ****     __HAL_RCC_GPIOA_CLK_ENABLE();
 110:Core/Src/stm32u5xx_hal_msp.c ****     __HAL_RCC_GPIOB_CLK_ENABLE();
 111:Core/Src/stm32u5xx_hal_msp.c ****     /**ADC1 GPIO Configuration
 112:Core/Src/stm32u5xx_hal_msp.c ****     PC0     ------> ADC1_IN1
 113:Core/Src/stm32u5xx_hal_msp.c ****     PC1     ------> ADC1_IN2
ARM GAS  C:\Users\Yamaan\AppData\Local\Temp\cctXBHqZ.s 			page 5


 114:Core/Src/stm32u5xx_hal_msp.c ****     PC2     ------> ADC1_IN3
 115:Core/Src/stm32u5xx_hal_msp.c ****     PC3     ------> ADC1_IN4
 116:Core/Src/stm32u5xx_hal_msp.c ****     PA2     ------> ADC1_IN7
 117:Core/Src/stm32u5xx_hal_msp.c ****     PA3     ------> ADC1_IN8
 118:Core/Src/stm32u5xx_hal_msp.c ****     PB0     ------> ADC1_IN15
 119:Core/Src/stm32u5xx_hal_msp.c ****     */
 120:Core/Src/stm32u5xx_hal_msp.c ****     GPIO_InitStruct.Pin = Temp6_Pin|Temp5_Pin|VBUS_SENSE_Pin|Temp3_Pin;
 121:Core/Src/stm32u5xx_hal_msp.c ****     GPIO_InitStruct.Mode = GPIO_MODE_ANALOG;
 122:Core/Src/stm32u5xx_hal_msp.c ****     GPIO_InitStruct.Pull = GPIO_NOPULL;
 123:Core/Src/stm32u5xx_hal_msp.c ****     HAL_GPIO_Init(GPIOC, &GPIO_InitStruct);
 124:Core/Src/stm32u5xx_hal_msp.c **** 
 125:Core/Src/stm32u5xx_hal_msp.c ****     GPIO_InitStruct.Pin = Temp2_Pin|Temp1_Pin;
 126:Core/Src/stm32u5xx_hal_msp.c ****     GPIO_InitStruct.Mode = GPIO_MODE_ANALOG;
 127:Core/Src/stm32u5xx_hal_msp.c ****     GPIO_InitStruct.Pull = GPIO_NOPULL;
 128:Core/Src/stm32u5xx_hal_msp.c ****     HAL_GPIO_Init(GPIOA, &GPIO_InitStruct);
 129:Core/Src/stm32u5xx_hal_msp.c **** 
 130:Core/Src/stm32u5xx_hal_msp.c ****     GPIO_InitStruct.Pin = Temp4_Pin;
 131:Core/Src/stm32u5xx_hal_msp.c ****     GPIO_InitStruct.Mode = GPIO_MODE_ANALOG;
 132:Core/Src/stm32u5xx_hal_msp.c ****     GPIO_InitStruct.Pull = GPIO_NOPULL;
 133:Core/Src/stm32u5xx_hal_msp.c ****     HAL_GPIO_Init(Temp4_GPIO_Port, &GPIO_InitStruct);
 134:Core/Src/stm32u5xx_hal_msp.c **** 
 135:Core/Src/stm32u5xx_hal_msp.c ****   /* USER CODE BEGIN ADC1_MspInit 1 */
 136:Core/Src/stm32u5xx_hal_msp.c **** 
 137:Core/Src/stm32u5xx_hal_msp.c ****   /* USER CODE END ADC1_MspInit 1 */
 138:Core/Src/stm32u5xx_hal_msp.c ****   }
 139:Core/Src/stm32u5xx_hal_msp.c **** 
 140:Core/Src/stm32u5xx_hal_msp.c **** }
 119              		.loc 1 140 1 view .LVU19
 120 0022 3DB0     		add	sp, sp, #244
 121              		.cfi_remember_state
 122              		.cfi_def_cfa_offset 12
 123              		@ sp needed
 124 0024 30BD     		pop	{r4, r5, pc}
 125              	.LVL5:
 126              	.L9:
 127              		.cfi_restore_state
  98:Core/Src/stm32u5xx_hal_msp.c ****     PeriphClkInit.AdcDacClockSelection = RCC_ADCDACCLKSOURCE_HSI;
 128              		.loc 1 98 5 is_stmt 1 view .LVU20
  98:Core/Src/stm32u5xx_hal_msp.c ****     PeriphClkInit.AdcDacClockSelection = RCC_ADCDACCLKSOURCE_HSI;
 129              		.loc 1 98 40 is_stmt 0 view .LVU21
 130 0026 4FF40042 		mov	r2, #32768
 131 002a 0023     		movs	r3, #0
 132 002c CDE90423 		strd	r2, [sp, #16]
  99:Core/Src/stm32u5xx_hal_msp.c ****     if (HAL_RCCEx_PeriphCLKConfig(&PeriphClkInit) != HAL_OK)
 133              		.loc 1 99 5 is_stmt 1 view .LVU22
  99:Core/Src/stm32u5xx_hal_msp.c ****     if (HAL_RCCEx_PeriphCLKConfig(&PeriphClkInit) != HAL_OK)
 134              		.loc 1 99 40 is_stmt 0 view .LVU23
 135 0030 4FF48043 		mov	r3, #16384
 136 0034 2E93     		str	r3, [sp, #184]
 100:Core/Src/stm32u5xx_hal_msp.c ****     {
 137              		.loc 1 100 5 is_stmt 1 view .LVU24
 100:Core/Src/stm32u5xx_hal_msp.c ****     {
 138              		.loc 1 100 9 is_stmt 0 view .LVU25
 139 0036 04A8     		add	r0, sp, #16
 140 0038 FFF7FEFF 		bl	HAL_RCCEx_PeriphCLKConfig
 141              	.LVL6:
 100:Core/Src/stm32u5xx_hal_msp.c ****     {
ARM GAS  C:\Users\Yamaan\AppData\Local\Temp\cctXBHqZ.s 			page 6


 142              		.loc 1 100 8 view .LVU26
 143 003c 0028     		cmp	r0, #0
 144 003e 4BD1     		bne	.L10
 145              	.L7:
 106:Core/Src/stm32u5xx_hal_msp.c **** 
 146              		.loc 1 106 5 is_stmt 1 view .LVU27
 147              	.LBB3:
 106:Core/Src/stm32u5xx_hal_msp.c **** 
 148              		.loc 1 106 5 view .LVU28
 106:Core/Src/stm32u5xx_hal_msp.c **** 
 149              		.loc 1 106 5 view .LVU29
 150 0040 284B     		ldr	r3, .L11+4
 151 0042 D3F88C20 		ldr	r2, [r3, #140]
 152 0046 42F48062 		orr	r2, r2, #1024
 153 004a C3F88C20 		str	r2, [r3, #140]
 106:Core/Src/stm32u5xx_hal_msp.c **** 
 154              		.loc 1 106 5 view .LVU30
 155 004e D3F88C20 		ldr	r2, [r3, #140]
 156 0052 02F48062 		and	r2, r2, #1024
 157 0056 0092     		str	r2, [sp]
 106:Core/Src/stm32u5xx_hal_msp.c **** 
 158              		.loc 1 106 5 view .LVU31
 159 0058 009A     		ldr	r2, [sp]
 160              	.LBE3:
 106:Core/Src/stm32u5xx_hal_msp.c **** 
 161              		.loc 1 106 5 view .LVU32
 108:Core/Src/stm32u5xx_hal_msp.c ****     __HAL_RCC_GPIOA_CLK_ENABLE();
 162              		.loc 1 108 5 view .LVU33
 163              	.LBB4:
 108:Core/Src/stm32u5xx_hal_msp.c ****     __HAL_RCC_GPIOA_CLK_ENABLE();
 164              		.loc 1 108 5 view .LVU34
 108:Core/Src/stm32u5xx_hal_msp.c ****     __HAL_RCC_GPIOA_CLK_ENABLE();
 165              		.loc 1 108 5 view .LVU35
 166 005a D3F88C20 		ldr	r2, [r3, #140]
 167 005e 42F00402 		orr	r2, r2, #4
 168 0062 C3F88C20 		str	r2, [r3, #140]
 108:Core/Src/stm32u5xx_hal_msp.c ****     __HAL_RCC_GPIOA_CLK_ENABLE();
 169              		.loc 1 108 5 view .LVU36
 170 0066 D3F88C20 		ldr	r2, [r3, #140]
 171 006a 02F00402 		and	r2, r2, #4
 172 006e 0192     		str	r2, [sp, #4]
 108:Core/Src/stm32u5xx_hal_msp.c ****     __HAL_RCC_GPIOA_CLK_ENABLE();
 173              		.loc 1 108 5 view .LVU37
 174 0070 019A     		ldr	r2, [sp, #4]
 175              	.LBE4:
 108:Core/Src/stm32u5xx_hal_msp.c ****     __HAL_RCC_GPIOA_CLK_ENABLE();
 176              		.loc 1 108 5 view .LVU38
 109:Core/Src/stm32u5xx_hal_msp.c ****     __HAL_RCC_GPIOB_CLK_ENABLE();
 177              		.loc 1 109 5 view .LVU39
 178              	.LBB5:
 109:Core/Src/stm32u5xx_hal_msp.c ****     __HAL_RCC_GPIOB_CLK_ENABLE();
 179              		.loc 1 109 5 view .LVU40
 109:Core/Src/stm32u5xx_hal_msp.c ****     __HAL_RCC_GPIOB_CLK_ENABLE();
 180              		.loc 1 109 5 view .LVU41
 181 0072 D3F88C20 		ldr	r2, [r3, #140]
 182 0076 42F00102 		orr	r2, r2, #1
 183 007a C3F88C20 		str	r2, [r3, #140]
ARM GAS  C:\Users\Yamaan\AppData\Local\Temp\cctXBHqZ.s 			page 7


 109:Core/Src/stm32u5xx_hal_msp.c ****     __HAL_RCC_GPIOB_CLK_ENABLE();
 184              		.loc 1 109 5 view .LVU42
 185 007e D3F88C20 		ldr	r2, [r3, #140]
 186 0082 02F00102 		and	r2, r2, #1
 187 0086 0292     		str	r2, [sp, #8]
 109:Core/Src/stm32u5xx_hal_msp.c ****     __HAL_RCC_GPIOB_CLK_ENABLE();
 188              		.loc 1 109 5 view .LVU43
 189 0088 029A     		ldr	r2, [sp, #8]
 190              	.LBE5:
 109:Core/Src/stm32u5xx_hal_msp.c ****     __HAL_RCC_GPIOB_CLK_ENABLE();
 191              		.loc 1 109 5 view .LVU44
 110:Core/Src/stm32u5xx_hal_msp.c ****     /**ADC1 GPIO Configuration
 192              		.loc 1 110 5 view .LVU45
 193              	.LBB6:
 110:Core/Src/stm32u5xx_hal_msp.c ****     /**ADC1 GPIO Configuration
 194              		.loc 1 110 5 view .LVU46
 110:Core/Src/stm32u5xx_hal_msp.c ****     /**ADC1 GPIO Configuration
 195              		.loc 1 110 5 view .LVU47
 196 008a D3F88C20 		ldr	r2, [r3, #140]
 197 008e 42F00202 		orr	r2, r2, #2
 198 0092 C3F88C20 		str	r2, [r3, #140]
 110:Core/Src/stm32u5xx_hal_msp.c ****     /**ADC1 GPIO Configuration
 199              		.loc 1 110 5 view .LVU48
 200 0096 D3F88C30 		ldr	r3, [r3, #140]
 201 009a 03F00203 		and	r3, r3, #2
 202 009e 0393     		str	r3, [sp, #12]
 110:Core/Src/stm32u5xx_hal_msp.c ****     /**ADC1 GPIO Configuration
 203              		.loc 1 110 5 view .LVU49
 204 00a0 039B     		ldr	r3, [sp, #12]
 205              	.LBE6:
 110:Core/Src/stm32u5xx_hal_msp.c ****     /**ADC1 GPIO Configuration
 206              		.loc 1 110 5 view .LVU50
 120:Core/Src/stm32u5xx_hal_msp.c ****     GPIO_InitStruct.Mode = GPIO_MODE_ANALOG;
 207              		.loc 1 120 5 view .LVU51
 120:Core/Src/stm32u5xx_hal_msp.c ****     GPIO_InitStruct.Mode = GPIO_MODE_ANALOG;
 208              		.loc 1 120 25 is_stmt 0 view .LVU52
 209 00a2 0F23     		movs	r3, #15
 210 00a4 3793     		str	r3, [sp, #220]
 121:Core/Src/stm32u5xx_hal_msp.c ****     GPIO_InitStruct.Pull = GPIO_NOPULL;
 211              		.loc 1 121 5 is_stmt 1 view .LVU53
 121:Core/Src/stm32u5xx_hal_msp.c ****     GPIO_InitStruct.Pull = GPIO_NOPULL;
 212              		.loc 1 121 26 is_stmt 0 view .LVU54
 213 00a6 0325     		movs	r5, #3
 214 00a8 3895     		str	r5, [sp, #224]
 122:Core/Src/stm32u5xx_hal_msp.c ****     HAL_GPIO_Init(GPIOC, &GPIO_InitStruct);
 215              		.loc 1 122 5 is_stmt 1 view .LVU55
 122:Core/Src/stm32u5xx_hal_msp.c ****     HAL_GPIO_Init(GPIOC, &GPIO_InitStruct);
 216              		.loc 1 122 26 is_stmt 0 view .LVU56
 217 00aa 0024     		movs	r4, #0
 218              	.LVL7:
 122:Core/Src/stm32u5xx_hal_msp.c ****     HAL_GPIO_Init(GPIOC, &GPIO_InitStruct);
 219              		.loc 1 122 26 view .LVU57
 220 00ac 3994     		str	r4, [sp, #228]
 123:Core/Src/stm32u5xx_hal_msp.c **** 
 221              		.loc 1 123 5 is_stmt 1 view .LVU58
 222 00ae 37A9     		add	r1, sp, #220
 223 00b0 0D48     		ldr	r0, .L11+8
ARM GAS  C:\Users\Yamaan\AppData\Local\Temp\cctXBHqZ.s 			page 8


 224 00b2 FFF7FEFF 		bl	HAL_GPIO_Init
 225              	.LVL8:
 125:Core/Src/stm32u5xx_hal_msp.c ****     GPIO_InitStruct.Mode = GPIO_MODE_ANALOG;
 226              		.loc 1 125 5 view .LVU59
 125:Core/Src/stm32u5xx_hal_msp.c ****     GPIO_InitStruct.Mode = GPIO_MODE_ANALOG;
 227              		.loc 1 125 25 is_stmt 0 view .LVU60
 228 00b6 0C23     		movs	r3, #12
 229 00b8 3793     		str	r3, [sp, #220]
 126:Core/Src/stm32u5xx_hal_msp.c ****     GPIO_InitStruct.Pull = GPIO_NOPULL;
 230              		.loc 1 126 5 is_stmt 1 view .LVU61
 126:Core/Src/stm32u5xx_hal_msp.c ****     GPIO_InitStruct.Pull = GPIO_NOPULL;
 231              		.loc 1 126 26 is_stmt 0 view .LVU62
 232 00ba 3895     		str	r5, [sp, #224]
 127:Core/Src/stm32u5xx_hal_msp.c ****     HAL_GPIO_Init(GPIOA, &GPIO_InitStruct);
 233              		.loc 1 127 5 is_stmt 1 view .LVU63
 127:Core/Src/stm32u5xx_hal_msp.c ****     HAL_GPIO_Init(GPIOA, &GPIO_InitStruct);
 234              		.loc 1 127 26 is_stmt 0 view .LVU64
 235 00bc 3994     		str	r4, [sp, #228]
 128:Core/Src/stm32u5xx_hal_msp.c **** 
 236              		.loc 1 128 5 is_stmt 1 view .LVU65
 237 00be 37A9     		add	r1, sp, #220
 238 00c0 0A48     		ldr	r0, .L11+12
 239 00c2 FFF7FEFF 		bl	HAL_GPIO_Init
 240              	.LVL9:
 130:Core/Src/stm32u5xx_hal_msp.c ****     GPIO_InitStruct.Mode = GPIO_MODE_ANALOG;
 241              		.loc 1 130 5 view .LVU66
 130:Core/Src/stm32u5xx_hal_msp.c ****     GPIO_InitStruct.Mode = GPIO_MODE_ANALOG;
 242              		.loc 1 130 25 is_stmt 0 view .LVU67
 243 00c6 0123     		movs	r3, #1
 244 00c8 3793     		str	r3, [sp, #220]
 131:Core/Src/stm32u5xx_hal_msp.c ****     GPIO_InitStruct.Pull = GPIO_NOPULL;
 245              		.loc 1 131 5 is_stmt 1 view .LVU68
 131:Core/Src/stm32u5xx_hal_msp.c ****     GPIO_InitStruct.Pull = GPIO_NOPULL;
 246              		.loc 1 131 26 is_stmt 0 view .LVU69
 247 00ca 3895     		str	r5, [sp, #224]
 132:Core/Src/stm32u5xx_hal_msp.c ****     HAL_GPIO_Init(Temp4_GPIO_Port, &GPIO_InitStruct);
 248              		.loc 1 132 5 is_stmt 1 view .LVU70
 132:Core/Src/stm32u5xx_hal_msp.c ****     HAL_GPIO_Init(Temp4_GPIO_Port, &GPIO_InitStruct);
 249              		.loc 1 132 26 is_stmt 0 view .LVU71
 250 00cc 3994     		str	r4, [sp, #228]
 133:Core/Src/stm32u5xx_hal_msp.c **** 
 251              		.loc 1 133 5 is_stmt 1 view .LVU72
 252 00ce 37A9     		add	r1, sp, #220
 253 00d0 0748     		ldr	r0, .L11+16
 254 00d2 FFF7FEFF 		bl	HAL_GPIO_Init
 255              	.LVL10:
 256              		.loc 1 140 1 is_stmt 0 view .LVU73
 257 00d6 A4E7     		b	.L5
 258              	.LVL11:
 259              	.L10:
 102:Core/Src/stm32u5xx_hal_msp.c ****     }
 260              		.loc 1 102 7 is_stmt 1 view .LVU74
 261 00d8 FFF7FEFF 		bl	Error_Handler
 262              	.LVL12:
 263 00dc B0E7     		b	.L7
 264              	.L12:
 265 00de 00BF     		.align	2
ARM GAS  C:\Users\Yamaan\AppData\Local\Temp\cctXBHqZ.s 			page 9


 266              	.L11:
 267 00e0 00800242 		.word	1107460096
 268 00e4 000C0246 		.word	1174539264
 269 00e8 00080242 		.word	1107429376
 270 00ec 00000242 		.word	1107427328
 271 00f0 00040242 		.word	1107428352
 272              		.cfi_endproc
 273              	.LFE1328:
 275              		.section	.text.HAL_ADC_MspDeInit,"ax",%progbits
 276              		.align	1
 277              		.global	HAL_ADC_MspDeInit
 278              		.syntax unified
 279              		.thumb
 280              		.thumb_func
 282              	HAL_ADC_MspDeInit:
 283              	.LVL13:
 284              	.LFB1329:
 141:Core/Src/stm32u5xx_hal_msp.c **** 
 142:Core/Src/stm32u5xx_hal_msp.c **** /**
 143:Core/Src/stm32u5xx_hal_msp.c **** * @brief ADC MSP De-Initialization
 144:Core/Src/stm32u5xx_hal_msp.c **** * This function freeze the hardware resources used in this example
 145:Core/Src/stm32u5xx_hal_msp.c **** * @param hadc: ADC handle pointer
 146:Core/Src/stm32u5xx_hal_msp.c **** * @retval None
 147:Core/Src/stm32u5xx_hal_msp.c **** */
 148:Core/Src/stm32u5xx_hal_msp.c **** void HAL_ADC_MspDeInit(ADC_HandleTypeDef* hadc)
 149:Core/Src/stm32u5xx_hal_msp.c **** {
 285              		.loc 1 149 1 view -0
 286              		.cfi_startproc
 287              		@ args = 0, pretend = 0, frame = 0
 288              		@ frame_needed = 0, uses_anonymous_args = 0
 289              		.loc 1 149 1 is_stmt 0 view .LVU76
 290 0000 08B5     		push	{r3, lr}
 291              		.cfi_def_cfa_offset 8
 292              		.cfi_offset 3, -8
 293              		.cfi_offset 14, -4
 150:Core/Src/stm32u5xx_hal_msp.c ****   if(hadc->Instance==ADC1)
 294              		.loc 1 150 3 is_stmt 1 view .LVU77
 295              		.loc 1 150 10 is_stmt 0 view .LVU78
 296 0002 0268     		ldr	r2, [r0]
 297              		.loc 1 150 5 view .LVU79
 298 0004 0B4B     		ldr	r3, .L17
 299 0006 9A42     		cmp	r2, r3
 300 0008 00D0     		beq	.L16
 301              	.LVL14:
 302              	.L13:
 151:Core/Src/stm32u5xx_hal_msp.c ****   {
 152:Core/Src/stm32u5xx_hal_msp.c ****   /* USER CODE BEGIN ADC1_MspDeInit 0 */
 153:Core/Src/stm32u5xx_hal_msp.c **** 
 154:Core/Src/stm32u5xx_hal_msp.c ****   /* USER CODE END ADC1_MspDeInit 0 */
 155:Core/Src/stm32u5xx_hal_msp.c ****     /* Peripheral clock disable */
 156:Core/Src/stm32u5xx_hal_msp.c ****     __HAL_RCC_ADC12_CLK_DISABLE();
 157:Core/Src/stm32u5xx_hal_msp.c **** 
 158:Core/Src/stm32u5xx_hal_msp.c ****     /**ADC1 GPIO Configuration
 159:Core/Src/stm32u5xx_hal_msp.c ****     PC0     ------> ADC1_IN1
 160:Core/Src/stm32u5xx_hal_msp.c ****     PC1     ------> ADC1_IN2
 161:Core/Src/stm32u5xx_hal_msp.c ****     PC2     ------> ADC1_IN3
 162:Core/Src/stm32u5xx_hal_msp.c ****     PC3     ------> ADC1_IN4
ARM GAS  C:\Users\Yamaan\AppData\Local\Temp\cctXBHqZ.s 			page 10


 163:Core/Src/stm32u5xx_hal_msp.c ****     PA2     ------> ADC1_IN7
 164:Core/Src/stm32u5xx_hal_msp.c ****     PA3     ------> ADC1_IN8
 165:Core/Src/stm32u5xx_hal_msp.c ****     PB0     ------> ADC1_IN15
 166:Core/Src/stm32u5xx_hal_msp.c ****     */
 167:Core/Src/stm32u5xx_hal_msp.c ****     HAL_GPIO_DeInit(GPIOC, Temp6_Pin|Temp5_Pin|VBUS_SENSE_Pin|Temp3_Pin);
 168:Core/Src/stm32u5xx_hal_msp.c **** 
 169:Core/Src/stm32u5xx_hal_msp.c ****     HAL_GPIO_DeInit(GPIOA, Temp2_Pin|Temp1_Pin);
 170:Core/Src/stm32u5xx_hal_msp.c **** 
 171:Core/Src/stm32u5xx_hal_msp.c ****     HAL_GPIO_DeInit(Temp4_GPIO_Port, Temp4_Pin);
 172:Core/Src/stm32u5xx_hal_msp.c **** 
 173:Core/Src/stm32u5xx_hal_msp.c ****   /* USER CODE BEGIN ADC1_MspDeInit 1 */
 174:Core/Src/stm32u5xx_hal_msp.c **** 
 175:Core/Src/stm32u5xx_hal_msp.c ****   /* USER CODE END ADC1_MspDeInit 1 */
 176:Core/Src/stm32u5xx_hal_msp.c ****   }
 177:Core/Src/stm32u5xx_hal_msp.c **** 
 178:Core/Src/stm32u5xx_hal_msp.c **** }
 303              		.loc 1 178 1 view .LVU80
 304 000a 08BD     		pop	{r3, pc}
 305              	.LVL15:
 306              	.L16:
 156:Core/Src/stm32u5xx_hal_msp.c **** 
 307              		.loc 1 156 5 is_stmt 1 view .LVU81
 308 000c 0A4A     		ldr	r2, .L17+4
 309 000e D2F88C30 		ldr	r3, [r2, #140]
 310 0012 23F48063 		bic	r3, r3, #1024
 311 0016 C2F88C30 		str	r3, [r2, #140]
 167:Core/Src/stm32u5xx_hal_msp.c **** 
 312              		.loc 1 167 5 view .LVU82
 313 001a 0F21     		movs	r1, #15
 314 001c 0748     		ldr	r0, .L17+8
 315              	.LVL16:
 167:Core/Src/stm32u5xx_hal_msp.c **** 
 316              		.loc 1 167 5 is_stmt 0 view .LVU83
 317 001e FFF7FEFF 		bl	HAL_GPIO_DeInit
 318              	.LVL17:
 169:Core/Src/stm32u5xx_hal_msp.c **** 
 319              		.loc 1 169 5 is_stmt 1 view .LVU84
 320 0022 0C21     		movs	r1, #12
 321 0024 0648     		ldr	r0, .L17+12
 322 0026 FFF7FEFF 		bl	HAL_GPIO_DeInit
 323              	.LVL18:
 171:Core/Src/stm32u5xx_hal_msp.c **** 
 324              		.loc 1 171 5 view .LVU85
 325 002a 0121     		movs	r1, #1
 326 002c 0548     		ldr	r0, .L17+16
 327 002e FFF7FEFF 		bl	HAL_GPIO_DeInit
 328              	.LVL19:
 329              		.loc 1 178 1 is_stmt 0 view .LVU86
 330 0032 EAE7     		b	.L13
 331              	.L18:
 332              		.align	2
 333              	.L17:
 334 0034 00800242 		.word	1107460096
 335 0038 000C0246 		.word	1174539264
 336 003c 00080242 		.word	1107429376
 337 0040 00000242 		.word	1107427328
 338 0044 00040242 		.word	1107428352
ARM GAS  C:\Users\Yamaan\AppData\Local\Temp\cctXBHqZ.s 			page 11


 339              		.cfi_endproc
 340              	.LFE1329:
 342              		.section	.text.HAL_FDCAN_MspInit,"ax",%progbits
 343              		.align	1
 344              		.global	HAL_FDCAN_MspInit
 345              		.syntax unified
 346              		.thumb
 347              		.thumb_func
 349              	HAL_FDCAN_MspInit:
 350              	.LVL20:
 351              	.LFB1330:
 179:Core/Src/stm32u5xx_hal_msp.c **** 
 180:Core/Src/stm32u5xx_hal_msp.c **** /**
 181:Core/Src/stm32u5xx_hal_msp.c **** * @brief FDCAN MSP Initialization
 182:Core/Src/stm32u5xx_hal_msp.c **** * This function configures the hardware resources used in this example
 183:Core/Src/stm32u5xx_hal_msp.c **** * @param hfdcan: FDCAN handle pointer
 184:Core/Src/stm32u5xx_hal_msp.c **** * @retval None
 185:Core/Src/stm32u5xx_hal_msp.c **** */
 186:Core/Src/stm32u5xx_hal_msp.c **** void HAL_FDCAN_MspInit(FDCAN_HandleTypeDef* hfdcan)
 187:Core/Src/stm32u5xx_hal_msp.c **** {
 352              		.loc 1 187 1 is_stmt 1 view -0
 353              		.cfi_startproc
 354              		@ args = 0, pretend = 0, frame = 232
 355              		@ frame_needed = 0, uses_anonymous_args = 0
 356              		.loc 1 187 1 is_stmt 0 view .LVU88
 357 0000 10B5     		push	{r4, lr}
 358              		.cfi_def_cfa_offset 8
 359              		.cfi_offset 4, -8
 360              		.cfi_offset 14, -4
 361 0002 BAB0     		sub	sp, sp, #232
 362              		.cfi_def_cfa_offset 240
 363 0004 0446     		mov	r4, r0
 188:Core/Src/stm32u5xx_hal_msp.c ****   GPIO_InitTypeDef GPIO_InitStruct = {0};
 364              		.loc 1 188 3 is_stmt 1 view .LVU89
 365              		.loc 1 188 20 is_stmt 0 view .LVU90
 366 0006 0021     		movs	r1, #0
 367 0008 3591     		str	r1, [sp, #212]
 368 000a 3691     		str	r1, [sp, #216]
 369 000c 3791     		str	r1, [sp, #220]
 370 000e 3891     		str	r1, [sp, #224]
 371 0010 3991     		str	r1, [sp, #228]
 189:Core/Src/stm32u5xx_hal_msp.c ****   RCC_PeriphCLKInitTypeDef PeriphClkInit = {0};
 372              		.loc 1 189 3 is_stmt 1 view .LVU91
 373              		.loc 1 189 28 is_stmt 0 view .LVU92
 374 0012 C822     		movs	r2, #200
 375 0014 02A8     		add	r0, sp, #8
 376              	.LVL21:
 377              		.loc 1 189 28 view .LVU93
 378 0016 FFF7FEFF 		bl	memset
 379              	.LVL22:
 190:Core/Src/stm32u5xx_hal_msp.c ****   if(hfdcan->Instance==FDCAN1)
 380              		.loc 1 190 3 is_stmt 1 view .LVU94
 381              		.loc 1 190 12 is_stmt 0 view .LVU95
 382 001a 2268     		ldr	r2, [r4]
 383              		.loc 1 190 5 view .LVU96
 384 001c 1D4B     		ldr	r3, .L25
 385 001e 9A42     		cmp	r2, r3
ARM GAS  C:\Users\Yamaan\AppData\Local\Temp\cctXBHqZ.s 			page 12


 386 0020 01D0     		beq	.L23
 387              	.L19:
 191:Core/Src/stm32u5xx_hal_msp.c ****   {
 192:Core/Src/stm32u5xx_hal_msp.c ****   /* USER CODE BEGIN FDCAN1_MspInit 0 */
 193:Core/Src/stm32u5xx_hal_msp.c **** 
 194:Core/Src/stm32u5xx_hal_msp.c ****   /* USER CODE END FDCAN1_MspInit 0 */
 195:Core/Src/stm32u5xx_hal_msp.c **** 
 196:Core/Src/stm32u5xx_hal_msp.c ****   /** Initializes the peripherals clock
 197:Core/Src/stm32u5xx_hal_msp.c ****   */
 198:Core/Src/stm32u5xx_hal_msp.c ****     PeriphClkInit.PeriphClockSelection = RCC_PERIPHCLK_FDCAN1;
 199:Core/Src/stm32u5xx_hal_msp.c ****     PeriphClkInit.Fdcan1ClockSelection = RCC_FDCAN1CLKSOURCE_PLL1;
 200:Core/Src/stm32u5xx_hal_msp.c ****     if (HAL_RCCEx_PeriphCLKConfig(&PeriphClkInit) != HAL_OK)
 201:Core/Src/stm32u5xx_hal_msp.c ****     {
 202:Core/Src/stm32u5xx_hal_msp.c ****       Error_Handler();
 203:Core/Src/stm32u5xx_hal_msp.c ****     }
 204:Core/Src/stm32u5xx_hal_msp.c **** 
 205:Core/Src/stm32u5xx_hal_msp.c ****     /* Peripheral clock enable */
 206:Core/Src/stm32u5xx_hal_msp.c ****     __HAL_RCC_FDCAN1_CLK_ENABLE();
 207:Core/Src/stm32u5xx_hal_msp.c **** 
 208:Core/Src/stm32u5xx_hal_msp.c ****     __HAL_RCC_GPIOD_CLK_ENABLE();
 209:Core/Src/stm32u5xx_hal_msp.c ****     /**FDCAN1 GPIO Configuration
 210:Core/Src/stm32u5xx_hal_msp.c ****     PD0     ------> FDCAN1_RX
 211:Core/Src/stm32u5xx_hal_msp.c ****     PD1     ------> FDCAN1_TX
 212:Core/Src/stm32u5xx_hal_msp.c ****     */
 213:Core/Src/stm32u5xx_hal_msp.c ****     GPIO_InitStruct.Pin = GPIO_PIN_0|GPIO_PIN_1;
 214:Core/Src/stm32u5xx_hal_msp.c ****     GPIO_InitStruct.Mode = GPIO_MODE_AF_PP;
 215:Core/Src/stm32u5xx_hal_msp.c ****     GPIO_InitStruct.Pull = GPIO_NOPULL;
 216:Core/Src/stm32u5xx_hal_msp.c ****     GPIO_InitStruct.Speed = GPIO_SPEED_FREQ_LOW;
 217:Core/Src/stm32u5xx_hal_msp.c ****     GPIO_InitStruct.Alternate = GPIO_AF9_FDCAN1;
 218:Core/Src/stm32u5xx_hal_msp.c ****     HAL_GPIO_Init(GPIOD, &GPIO_InitStruct);
 219:Core/Src/stm32u5xx_hal_msp.c **** 
 220:Core/Src/stm32u5xx_hal_msp.c ****   /* USER CODE BEGIN FDCAN1_MspInit 1 */
 221:Core/Src/stm32u5xx_hal_msp.c **** 
 222:Core/Src/stm32u5xx_hal_msp.c ****   /* USER CODE END FDCAN1_MspInit 1 */
 223:Core/Src/stm32u5xx_hal_msp.c ****   }
 224:Core/Src/stm32u5xx_hal_msp.c **** 
 225:Core/Src/stm32u5xx_hal_msp.c **** }
 388              		.loc 1 225 1 view .LVU97
 389 0022 3AB0     		add	sp, sp, #232
 390              		.cfi_remember_state
 391              		.cfi_def_cfa_offset 8
 392              		@ sp needed
 393 0024 10BD     		pop	{r4, pc}
 394              	.LVL23:
 395              	.L23:
 396              		.cfi_restore_state
 198:Core/Src/stm32u5xx_hal_msp.c ****     PeriphClkInit.Fdcan1ClockSelection = RCC_FDCAN1CLKSOURCE_PLL1;
 397              		.loc 1 198 5 is_stmt 1 view .LVU98
 198:Core/Src/stm32u5xx_hal_msp.c ****     PeriphClkInit.Fdcan1ClockSelection = RCC_FDCAN1CLKSOURCE_PLL1;
 398              		.loc 1 198 40 is_stmt 0 view .LVU99
 399 0026 4FF00062 		mov	r2, #134217728
 400 002a 0023     		movs	r3, #0
 401 002c CDE90223 		strd	r2, [sp, #8]
 199:Core/Src/stm32u5xx_hal_msp.c ****     if (HAL_RCCEx_PeriphCLKConfig(&PeriphClkInit) != HAL_OK)
 402              		.loc 1 199 5 is_stmt 1 view .LVU100
 199:Core/Src/stm32u5xx_hal_msp.c ****     if (HAL_RCCEx_PeriphCLKConfig(&PeriphClkInit) != HAL_OK)
 403              		.loc 1 199 40 is_stmt 0 view .LVU101
ARM GAS  C:\Users\Yamaan\AppData\Local\Temp\cctXBHqZ.s 			page 13


 404 0030 4FF08073 		mov	r3, #16777216
 405 0034 2393     		str	r3, [sp, #140]
 200:Core/Src/stm32u5xx_hal_msp.c ****     {
 406              		.loc 1 200 5 is_stmt 1 view .LVU102
 200:Core/Src/stm32u5xx_hal_msp.c ****     {
 407              		.loc 1 200 9 is_stmt 0 view .LVU103
 408 0036 02A8     		add	r0, sp, #8
 409 0038 FFF7FEFF 		bl	HAL_RCCEx_PeriphCLKConfig
 410              	.LVL24:
 200:Core/Src/stm32u5xx_hal_msp.c ****     {
 411              		.loc 1 200 8 view .LVU104
 412 003c 30BB     		cbnz	r0, .L24
 413              	.L21:
 206:Core/Src/stm32u5xx_hal_msp.c **** 
 414              		.loc 1 206 5 is_stmt 1 view .LVU105
 415              	.LBB7:
 206:Core/Src/stm32u5xx_hal_msp.c **** 
 416              		.loc 1 206 5 view .LVU106
 206:Core/Src/stm32u5xx_hal_msp.c **** 
 417              		.loc 1 206 5 view .LVU107
 418 003e 164B     		ldr	r3, .L25+4
 419 0040 D3F8A020 		ldr	r2, [r3, #160]
 420 0044 42F40072 		orr	r2, r2, #512
 421 0048 C3F8A020 		str	r2, [r3, #160]
 206:Core/Src/stm32u5xx_hal_msp.c **** 
 422              		.loc 1 206 5 view .LVU108
 423 004c D3F8A020 		ldr	r2, [r3, #160]
 424 0050 02F40072 		and	r2, r2, #512
 425 0054 0092     		str	r2, [sp]
 206:Core/Src/stm32u5xx_hal_msp.c **** 
 426              		.loc 1 206 5 view .LVU109
 427 0056 009A     		ldr	r2, [sp]
 428              	.LBE7:
 206:Core/Src/stm32u5xx_hal_msp.c **** 
 429              		.loc 1 206 5 view .LVU110
 208:Core/Src/stm32u5xx_hal_msp.c ****     /**FDCAN1 GPIO Configuration
 430              		.loc 1 208 5 view .LVU111
 431              	.LBB8:
 208:Core/Src/stm32u5xx_hal_msp.c ****     /**FDCAN1 GPIO Configuration
 432              		.loc 1 208 5 view .LVU112
 208:Core/Src/stm32u5xx_hal_msp.c ****     /**FDCAN1 GPIO Configuration
 433              		.loc 1 208 5 view .LVU113
 434 0058 D3F88C20 		ldr	r2, [r3, #140]
 435 005c 42F00802 		orr	r2, r2, #8
 436 0060 C3F88C20 		str	r2, [r3, #140]
 208:Core/Src/stm32u5xx_hal_msp.c ****     /**FDCAN1 GPIO Configuration
 437              		.loc 1 208 5 view .LVU114
 438 0064 D3F88C30 		ldr	r3, [r3, #140]
 439 0068 03F00803 		and	r3, r3, #8
 440 006c 0193     		str	r3, [sp, #4]
 208:Core/Src/stm32u5xx_hal_msp.c ****     /**FDCAN1 GPIO Configuration
 441              		.loc 1 208 5 view .LVU115
 442 006e 019B     		ldr	r3, [sp, #4]
 443              	.LBE8:
 208:Core/Src/stm32u5xx_hal_msp.c ****     /**FDCAN1 GPIO Configuration
 444              		.loc 1 208 5 view .LVU116
 213:Core/Src/stm32u5xx_hal_msp.c ****     GPIO_InitStruct.Mode = GPIO_MODE_AF_PP;
ARM GAS  C:\Users\Yamaan\AppData\Local\Temp\cctXBHqZ.s 			page 14


 445              		.loc 1 213 5 view .LVU117
 213:Core/Src/stm32u5xx_hal_msp.c ****     GPIO_InitStruct.Mode = GPIO_MODE_AF_PP;
 446              		.loc 1 213 25 is_stmt 0 view .LVU118
 447 0070 0323     		movs	r3, #3
 448 0072 3593     		str	r3, [sp, #212]
 214:Core/Src/stm32u5xx_hal_msp.c ****     GPIO_InitStruct.Pull = GPIO_NOPULL;
 449              		.loc 1 214 5 is_stmt 1 view .LVU119
 214:Core/Src/stm32u5xx_hal_msp.c ****     GPIO_InitStruct.Pull = GPIO_NOPULL;
 450              		.loc 1 214 26 is_stmt 0 view .LVU120
 451 0074 0223     		movs	r3, #2
 452 0076 3693     		str	r3, [sp, #216]
 215:Core/Src/stm32u5xx_hal_msp.c ****     GPIO_InitStruct.Speed = GPIO_SPEED_FREQ_LOW;
 453              		.loc 1 215 5 is_stmt 1 view .LVU121
 215:Core/Src/stm32u5xx_hal_msp.c ****     GPIO_InitStruct.Speed = GPIO_SPEED_FREQ_LOW;
 454              		.loc 1 215 26 is_stmt 0 view .LVU122
 455 0078 0023     		movs	r3, #0
 456 007a 3793     		str	r3, [sp, #220]
 216:Core/Src/stm32u5xx_hal_msp.c ****     GPIO_InitStruct.Alternate = GPIO_AF9_FDCAN1;
 457              		.loc 1 216 5 is_stmt 1 view .LVU123
 216:Core/Src/stm32u5xx_hal_msp.c ****     GPIO_InitStruct.Alternate = GPIO_AF9_FDCAN1;
 458              		.loc 1 216 27 is_stmt 0 view .LVU124
 459 007c 3893     		str	r3, [sp, #224]
 217:Core/Src/stm32u5xx_hal_msp.c ****     HAL_GPIO_Init(GPIOD, &GPIO_InitStruct);
 460              		.loc 1 217 5 is_stmt 1 view .LVU125
 217:Core/Src/stm32u5xx_hal_msp.c ****     HAL_GPIO_Init(GPIOD, &GPIO_InitStruct);
 461              		.loc 1 217 31 is_stmt 0 view .LVU126
 462 007e 0923     		movs	r3, #9
 463 0080 3993     		str	r3, [sp, #228]
 218:Core/Src/stm32u5xx_hal_msp.c **** 
 464              		.loc 1 218 5 is_stmt 1 view .LVU127
 465 0082 35A9     		add	r1, sp, #212
 466 0084 0548     		ldr	r0, .L25+8
 467 0086 FFF7FEFF 		bl	HAL_GPIO_Init
 468              	.LVL25:
 469              		.loc 1 225 1 is_stmt 0 view .LVU128
 470 008a CAE7     		b	.L19
 471              	.L24:
 202:Core/Src/stm32u5xx_hal_msp.c ****     }
 472              		.loc 1 202 7 is_stmt 1 view .LVU129
 473 008c FFF7FEFF 		bl	Error_Handler
 474              	.LVL26:
 475 0090 D5E7     		b	.L21
 476              	.L26:
 477 0092 00BF     		.align	2
 478              	.L25:
 479 0094 00A40040 		.word	1073783808
 480 0098 000C0246 		.word	1174539264
 481 009c 000C0242 		.word	1107430400
 482              		.cfi_endproc
 483              	.LFE1330:
 485              		.section	.text.HAL_FDCAN_MspDeInit,"ax",%progbits
 486              		.align	1
 487              		.global	HAL_FDCAN_MspDeInit
 488              		.syntax unified
 489              		.thumb
 490              		.thumb_func
 492              	HAL_FDCAN_MspDeInit:
ARM GAS  C:\Users\Yamaan\AppData\Local\Temp\cctXBHqZ.s 			page 15


 493              	.LVL27:
 494              	.LFB1331:
 226:Core/Src/stm32u5xx_hal_msp.c **** 
 227:Core/Src/stm32u5xx_hal_msp.c **** /**
 228:Core/Src/stm32u5xx_hal_msp.c **** * @brief FDCAN MSP De-Initialization
 229:Core/Src/stm32u5xx_hal_msp.c **** * This function freeze the hardware resources used in this example
 230:Core/Src/stm32u5xx_hal_msp.c **** * @param hfdcan: FDCAN handle pointer
 231:Core/Src/stm32u5xx_hal_msp.c **** * @retval None
 232:Core/Src/stm32u5xx_hal_msp.c **** */
 233:Core/Src/stm32u5xx_hal_msp.c **** void HAL_FDCAN_MspDeInit(FDCAN_HandleTypeDef* hfdcan)
 234:Core/Src/stm32u5xx_hal_msp.c **** {
 495              		.loc 1 234 1 view -0
 496              		.cfi_startproc
 497              		@ args = 0, pretend = 0, frame = 0
 498              		@ frame_needed = 0, uses_anonymous_args = 0
 499              		.loc 1 234 1 is_stmt 0 view .LVU131
 500 0000 08B5     		push	{r3, lr}
 501              		.cfi_def_cfa_offset 8
 502              		.cfi_offset 3, -8
 503              		.cfi_offset 14, -4
 235:Core/Src/stm32u5xx_hal_msp.c ****   if(hfdcan->Instance==FDCAN1)
 504              		.loc 1 235 3 is_stmt 1 view .LVU132
 505              		.loc 1 235 12 is_stmt 0 view .LVU133
 506 0002 0268     		ldr	r2, [r0]
 507              		.loc 1 235 5 view .LVU134
 508 0004 074B     		ldr	r3, .L31
 509 0006 9A42     		cmp	r2, r3
 510 0008 00D0     		beq	.L30
 511              	.LVL28:
 512              	.L27:
 236:Core/Src/stm32u5xx_hal_msp.c ****   {
 237:Core/Src/stm32u5xx_hal_msp.c ****   /* USER CODE BEGIN FDCAN1_MspDeInit 0 */
 238:Core/Src/stm32u5xx_hal_msp.c **** 
 239:Core/Src/stm32u5xx_hal_msp.c ****   /* USER CODE END FDCAN1_MspDeInit 0 */
 240:Core/Src/stm32u5xx_hal_msp.c ****     /* Peripheral clock disable */
 241:Core/Src/stm32u5xx_hal_msp.c ****     __HAL_RCC_FDCAN1_CLK_DISABLE();
 242:Core/Src/stm32u5xx_hal_msp.c **** 
 243:Core/Src/stm32u5xx_hal_msp.c ****     /**FDCAN1 GPIO Configuration
 244:Core/Src/stm32u5xx_hal_msp.c ****     PD0     ------> FDCAN1_RX
 245:Core/Src/stm32u5xx_hal_msp.c ****     PD1     ------> FDCAN1_TX
 246:Core/Src/stm32u5xx_hal_msp.c ****     */
 247:Core/Src/stm32u5xx_hal_msp.c ****     HAL_GPIO_DeInit(GPIOD, GPIO_PIN_0|GPIO_PIN_1);
 248:Core/Src/stm32u5xx_hal_msp.c **** 
 249:Core/Src/stm32u5xx_hal_msp.c ****   /* USER CODE BEGIN FDCAN1_MspDeInit 1 */
 250:Core/Src/stm32u5xx_hal_msp.c **** 
 251:Core/Src/stm32u5xx_hal_msp.c ****   /* USER CODE END FDCAN1_MspDeInit 1 */
 252:Core/Src/stm32u5xx_hal_msp.c ****   }
 253:Core/Src/stm32u5xx_hal_msp.c **** 
 254:Core/Src/stm32u5xx_hal_msp.c **** }
 513              		.loc 1 254 1 view .LVU135
 514 000a 08BD     		pop	{r3, pc}
 515              	.LVL29:
 516              	.L30:
 241:Core/Src/stm32u5xx_hal_msp.c **** 
 517              		.loc 1 241 5 is_stmt 1 view .LVU136
 518 000c 064A     		ldr	r2, .L31+4
 519 000e D2F8A030 		ldr	r3, [r2, #160]
ARM GAS  C:\Users\Yamaan\AppData\Local\Temp\cctXBHqZ.s 			page 16


 520 0012 23F40073 		bic	r3, r3, #512
 521 0016 C2F8A030 		str	r3, [r2, #160]
 247:Core/Src/stm32u5xx_hal_msp.c **** 
 522              		.loc 1 247 5 view .LVU137
 523 001a 0321     		movs	r1, #3
 524 001c 0348     		ldr	r0, .L31+8
 525              	.LVL30:
 247:Core/Src/stm32u5xx_hal_msp.c **** 
 526              		.loc 1 247 5 is_stmt 0 view .LVU138
 527 001e FFF7FEFF 		bl	HAL_GPIO_DeInit
 528              	.LVL31:
 529              		.loc 1 254 1 view .LVU139
 530 0022 F2E7     		b	.L27
 531              	.L32:
 532              		.align	2
 533              	.L31:
 534 0024 00A40040 		.word	1073783808
 535 0028 000C0246 		.word	1174539264
 536 002c 000C0242 		.word	1107430400
 537              		.cfi_endproc
 538              	.LFE1331:
 540              		.section	.text.HAL_UART_MspInit,"ax",%progbits
 541              		.align	1
 542              		.global	HAL_UART_MspInit
 543              		.syntax unified
 544              		.thumb
 545              		.thumb_func
 547              	HAL_UART_MspInit:
 548              	.LVL32:
 549              	.LFB1332:
 255:Core/Src/stm32u5xx_hal_msp.c **** 
 256:Core/Src/stm32u5xx_hal_msp.c **** /**
 257:Core/Src/stm32u5xx_hal_msp.c **** * @brief UART MSP Initialization
 258:Core/Src/stm32u5xx_hal_msp.c **** * This function configures the hardware resources used in this example
 259:Core/Src/stm32u5xx_hal_msp.c **** * @param huart: UART handle pointer
 260:Core/Src/stm32u5xx_hal_msp.c **** * @retval None
 261:Core/Src/stm32u5xx_hal_msp.c **** */
 262:Core/Src/stm32u5xx_hal_msp.c **** void HAL_UART_MspInit(UART_HandleTypeDef* huart)
 263:Core/Src/stm32u5xx_hal_msp.c **** {
 550              		.loc 1 263 1 is_stmt 1 view -0
 551              		.cfi_startproc
 552              		@ args = 0, pretend = 0, frame = 232
 553              		@ frame_needed = 0, uses_anonymous_args = 0
 554              		.loc 1 263 1 is_stmt 0 view .LVU141
 555 0000 10B5     		push	{r4, lr}
 556              		.cfi_def_cfa_offset 8
 557              		.cfi_offset 4, -8
 558              		.cfi_offset 14, -4
 559 0002 BAB0     		sub	sp, sp, #232
 560              		.cfi_def_cfa_offset 240
 561 0004 0446     		mov	r4, r0
 264:Core/Src/stm32u5xx_hal_msp.c ****   GPIO_InitTypeDef GPIO_InitStruct = {0};
 562              		.loc 1 264 3 is_stmt 1 view .LVU142
 563              		.loc 1 264 20 is_stmt 0 view .LVU143
 564 0006 0021     		movs	r1, #0
 565 0008 3591     		str	r1, [sp, #212]
 566 000a 3691     		str	r1, [sp, #216]
ARM GAS  C:\Users\Yamaan\AppData\Local\Temp\cctXBHqZ.s 			page 17


 567 000c 3791     		str	r1, [sp, #220]
 568 000e 3891     		str	r1, [sp, #224]
 569 0010 3991     		str	r1, [sp, #228]
 265:Core/Src/stm32u5xx_hal_msp.c ****   RCC_PeriphCLKInitTypeDef PeriphClkInit = {0};
 570              		.loc 1 265 3 is_stmt 1 view .LVU144
 571              		.loc 1 265 28 is_stmt 0 view .LVU145
 572 0012 C822     		movs	r2, #200
 573 0014 02A8     		add	r0, sp, #8
 574              	.LVL33:
 575              		.loc 1 265 28 view .LVU146
 576 0016 FFF7FEFF 		bl	memset
 577              	.LVL34:
 266:Core/Src/stm32u5xx_hal_msp.c ****   if(huart->Instance==USART1)
 578              		.loc 1 266 3 is_stmt 1 view .LVU147
 579              		.loc 1 266 11 is_stmt 0 view .LVU148
 580 001a 2268     		ldr	r2, [r4]
 581              		.loc 1 266 5 view .LVU149
 582 001c 1B4B     		ldr	r3, .L39
 583 001e 9A42     		cmp	r2, r3
 584 0020 01D0     		beq	.L37
 585              	.L33:
 267:Core/Src/stm32u5xx_hal_msp.c ****   {
 268:Core/Src/stm32u5xx_hal_msp.c ****   /* USER CODE BEGIN USART1_MspInit 0 */
 269:Core/Src/stm32u5xx_hal_msp.c **** 
 270:Core/Src/stm32u5xx_hal_msp.c ****   /* USER CODE END USART1_MspInit 0 */
 271:Core/Src/stm32u5xx_hal_msp.c **** 
 272:Core/Src/stm32u5xx_hal_msp.c ****   /** Initializes the peripherals clock
 273:Core/Src/stm32u5xx_hal_msp.c ****   */
 274:Core/Src/stm32u5xx_hal_msp.c ****     PeriphClkInit.PeriphClockSelection = RCC_PERIPHCLK_USART1;
 275:Core/Src/stm32u5xx_hal_msp.c ****     PeriphClkInit.Usart1ClockSelection = RCC_USART1CLKSOURCE_PCLK2;
 276:Core/Src/stm32u5xx_hal_msp.c ****     if (HAL_RCCEx_PeriphCLKConfig(&PeriphClkInit) != HAL_OK)
 277:Core/Src/stm32u5xx_hal_msp.c ****     {
 278:Core/Src/stm32u5xx_hal_msp.c ****       Error_Handler();
 279:Core/Src/stm32u5xx_hal_msp.c ****     }
 280:Core/Src/stm32u5xx_hal_msp.c **** 
 281:Core/Src/stm32u5xx_hal_msp.c ****     /* Peripheral clock enable */
 282:Core/Src/stm32u5xx_hal_msp.c ****     __HAL_RCC_USART1_CLK_ENABLE();
 283:Core/Src/stm32u5xx_hal_msp.c **** 
 284:Core/Src/stm32u5xx_hal_msp.c ****     __HAL_RCC_GPIOA_CLK_ENABLE();
 285:Core/Src/stm32u5xx_hal_msp.c ****     /**USART1 GPIO Configuration
 286:Core/Src/stm32u5xx_hal_msp.c ****     PA9     ------> USART1_TX
 287:Core/Src/stm32u5xx_hal_msp.c ****     PA10     ------> USART1_RX
 288:Core/Src/stm32u5xx_hal_msp.c ****     */
 289:Core/Src/stm32u5xx_hal_msp.c ****     GPIO_InitStruct.Pin = USART1_TX_Pin|USART1_RX_Pin;
 290:Core/Src/stm32u5xx_hal_msp.c ****     GPIO_InitStruct.Mode = GPIO_MODE_AF_PP;
 291:Core/Src/stm32u5xx_hal_msp.c ****     GPIO_InitStruct.Pull = GPIO_PULLDOWN;
 292:Core/Src/stm32u5xx_hal_msp.c ****     GPIO_InitStruct.Speed = GPIO_SPEED_FREQ_VERY_HIGH;
 293:Core/Src/stm32u5xx_hal_msp.c ****     GPIO_InitStruct.Alternate = GPIO_AF7_USART1;
 294:Core/Src/stm32u5xx_hal_msp.c ****     HAL_GPIO_Init(GPIOA, &GPIO_InitStruct);
 295:Core/Src/stm32u5xx_hal_msp.c **** 
 296:Core/Src/stm32u5xx_hal_msp.c ****   /* USER CODE BEGIN USART1_MspInit 1 */
 297:Core/Src/stm32u5xx_hal_msp.c **** 
 298:Core/Src/stm32u5xx_hal_msp.c ****   /* USER CODE END USART1_MspInit 1 */
 299:Core/Src/stm32u5xx_hal_msp.c ****   }
 300:Core/Src/stm32u5xx_hal_msp.c **** 
 301:Core/Src/stm32u5xx_hal_msp.c **** }
 586              		.loc 1 301 1 view .LVU150
ARM GAS  C:\Users\Yamaan\AppData\Local\Temp\cctXBHqZ.s 			page 18


 587 0022 3AB0     		add	sp, sp, #232
 588              		.cfi_remember_state
 589              		.cfi_def_cfa_offset 8
 590              		@ sp needed
 591 0024 10BD     		pop	{r4, pc}
 592              	.LVL35:
 593              	.L37:
 594              		.cfi_restore_state
 274:Core/Src/stm32u5xx_hal_msp.c ****     PeriphClkInit.Usart1ClockSelection = RCC_USART1CLKSOURCE_PCLK2;
 595              		.loc 1 274 5 is_stmt 1 view .LVU151
 274:Core/Src/stm32u5xx_hal_msp.c ****     PeriphClkInit.Usart1ClockSelection = RCC_USART1CLKSOURCE_PCLK2;
 596              		.loc 1 274 40 is_stmt 0 view .LVU152
 597 0026 0122     		movs	r2, #1
 598 0028 0023     		movs	r3, #0
 599 002a CDE90223 		strd	r2, [sp, #8]
 275:Core/Src/stm32u5xx_hal_msp.c ****     if (HAL_RCCEx_PeriphCLKConfig(&PeriphClkInit) != HAL_OK)
 600              		.loc 1 275 5 is_stmt 1 view .LVU153
 276:Core/Src/stm32u5xx_hal_msp.c ****     {
 601              		.loc 1 276 5 view .LVU154
 276:Core/Src/stm32u5xx_hal_msp.c ****     {
 602              		.loc 1 276 9 is_stmt 0 view .LVU155
 603 002e 02A8     		add	r0, sp, #8
 604 0030 FFF7FEFF 		bl	HAL_RCCEx_PeriphCLKConfig
 605              	.LVL36:
 276:Core/Src/stm32u5xx_hal_msp.c ****     {
 606              		.loc 1 276 8 view .LVU156
 607 0034 38BB     		cbnz	r0, .L38
 608              	.L35:
 282:Core/Src/stm32u5xx_hal_msp.c **** 
 609              		.loc 1 282 5 is_stmt 1 view .LVU157
 610              	.LBB9:
 282:Core/Src/stm32u5xx_hal_msp.c **** 
 611              		.loc 1 282 5 view .LVU158
 282:Core/Src/stm32u5xx_hal_msp.c **** 
 612              		.loc 1 282 5 view .LVU159
 613 0036 164B     		ldr	r3, .L39+4
 614 0038 D3F8A420 		ldr	r2, [r3, #164]
 615 003c 42F48042 		orr	r2, r2, #16384
 616 0040 C3F8A420 		str	r2, [r3, #164]
 282:Core/Src/stm32u5xx_hal_msp.c **** 
 617              		.loc 1 282 5 view .LVU160
 618 0044 D3F8A420 		ldr	r2, [r3, #164]
 619 0048 02F48042 		and	r2, r2, #16384
 620 004c 0092     		str	r2, [sp]
 282:Core/Src/stm32u5xx_hal_msp.c **** 
 621              		.loc 1 282 5 view .LVU161
 622 004e 009A     		ldr	r2, [sp]
 623              	.LBE9:
 282:Core/Src/stm32u5xx_hal_msp.c **** 
 624              		.loc 1 282 5 view .LVU162
 284:Core/Src/stm32u5xx_hal_msp.c ****     /**USART1 GPIO Configuration
 625              		.loc 1 284 5 view .LVU163
 626              	.LBB10:
 284:Core/Src/stm32u5xx_hal_msp.c ****     /**USART1 GPIO Configuration
 627              		.loc 1 284 5 view .LVU164
 284:Core/Src/stm32u5xx_hal_msp.c ****     /**USART1 GPIO Configuration
 628              		.loc 1 284 5 view .LVU165
ARM GAS  C:\Users\Yamaan\AppData\Local\Temp\cctXBHqZ.s 			page 19


 629 0050 D3F88C20 		ldr	r2, [r3, #140]
 630 0054 42F00102 		orr	r2, r2, #1
 631 0058 C3F88C20 		str	r2, [r3, #140]
 284:Core/Src/stm32u5xx_hal_msp.c ****     /**USART1 GPIO Configuration
 632              		.loc 1 284 5 view .LVU166
 633 005c D3F88C30 		ldr	r3, [r3, #140]
 634 0060 03F00103 		and	r3, r3, #1
 635 0064 0193     		str	r3, [sp, #4]
 284:Core/Src/stm32u5xx_hal_msp.c ****     /**USART1 GPIO Configuration
 636              		.loc 1 284 5 view .LVU167
 637 0066 019B     		ldr	r3, [sp, #4]
 638              	.LBE10:
 284:Core/Src/stm32u5xx_hal_msp.c ****     /**USART1 GPIO Configuration
 639              		.loc 1 284 5 view .LVU168
 289:Core/Src/stm32u5xx_hal_msp.c ****     GPIO_InitStruct.Mode = GPIO_MODE_AF_PP;
 640              		.loc 1 289 5 view .LVU169
 289:Core/Src/stm32u5xx_hal_msp.c ****     GPIO_InitStruct.Mode = GPIO_MODE_AF_PP;
 641              		.loc 1 289 25 is_stmt 0 view .LVU170
 642 0068 4FF4C063 		mov	r3, #1536
 643 006c 3593     		str	r3, [sp, #212]
 290:Core/Src/stm32u5xx_hal_msp.c ****     GPIO_InitStruct.Pull = GPIO_PULLDOWN;
 644              		.loc 1 290 5 is_stmt 1 view .LVU171
 290:Core/Src/stm32u5xx_hal_msp.c ****     GPIO_InitStruct.Pull = GPIO_PULLDOWN;
 645              		.loc 1 290 26 is_stmt 0 view .LVU172
 646 006e 0223     		movs	r3, #2
 647 0070 3693     		str	r3, [sp, #216]
 291:Core/Src/stm32u5xx_hal_msp.c ****     GPIO_InitStruct.Speed = GPIO_SPEED_FREQ_VERY_HIGH;
 648              		.loc 1 291 5 is_stmt 1 view .LVU173
 291:Core/Src/stm32u5xx_hal_msp.c ****     GPIO_InitStruct.Speed = GPIO_SPEED_FREQ_VERY_HIGH;
 649              		.loc 1 291 26 is_stmt 0 view .LVU174
 650 0072 3793     		str	r3, [sp, #220]
 292:Core/Src/stm32u5xx_hal_msp.c ****     GPIO_InitStruct.Alternate = GPIO_AF7_USART1;
 651              		.loc 1 292 5 is_stmt 1 view .LVU175
 292:Core/Src/stm32u5xx_hal_msp.c ****     GPIO_InitStruct.Alternate = GPIO_AF7_USART1;
 652              		.loc 1 292 27 is_stmt 0 view .LVU176
 653 0074 0323     		movs	r3, #3
 654 0076 3893     		str	r3, [sp, #224]
 293:Core/Src/stm32u5xx_hal_msp.c ****     HAL_GPIO_Init(GPIOA, &GPIO_InitStruct);
 655              		.loc 1 293 5 is_stmt 1 view .LVU177
 293:Core/Src/stm32u5xx_hal_msp.c ****     HAL_GPIO_Init(GPIOA, &GPIO_InitStruct);
 656              		.loc 1 293 31 is_stmt 0 view .LVU178
 657 0078 0723     		movs	r3, #7
 658 007a 3993     		str	r3, [sp, #228]
 294:Core/Src/stm32u5xx_hal_msp.c **** 
 659              		.loc 1 294 5 is_stmt 1 view .LVU179
 660 007c 35A9     		add	r1, sp, #212
 661 007e 0548     		ldr	r0, .L39+8
 662 0080 FFF7FEFF 		bl	HAL_GPIO_Init
 663              	.LVL37:
 664              		.loc 1 301 1 is_stmt 0 view .LVU180
 665 0084 CDE7     		b	.L33
 666              	.L38:
 278:Core/Src/stm32u5xx_hal_msp.c ****     }
 667              		.loc 1 278 7 is_stmt 1 view .LVU181
 668 0086 FFF7FEFF 		bl	Error_Handler
 669              	.LVL38:
 670 008a D4E7     		b	.L35
ARM GAS  C:\Users\Yamaan\AppData\Local\Temp\cctXBHqZ.s 			page 20


 671              	.L40:
 672              		.align	2
 673              	.L39:
 674 008c 00380140 		.word	1073821696
 675 0090 000C0246 		.word	1174539264
 676 0094 00000242 		.word	1107427328
 677              		.cfi_endproc
 678              	.LFE1332:
 680              		.section	.text.HAL_UART_MspDeInit,"ax",%progbits
 681              		.align	1
 682              		.global	HAL_UART_MspDeInit
 683              		.syntax unified
 684              		.thumb
 685              		.thumb_func
 687              	HAL_UART_MspDeInit:
 688              	.LVL39:
 689              	.LFB1333:
 302:Core/Src/stm32u5xx_hal_msp.c **** 
 303:Core/Src/stm32u5xx_hal_msp.c **** /**
 304:Core/Src/stm32u5xx_hal_msp.c **** * @brief UART MSP De-Initialization
 305:Core/Src/stm32u5xx_hal_msp.c **** * This function freeze the hardware resources used in this example
 306:Core/Src/stm32u5xx_hal_msp.c **** * @param huart: UART handle pointer
 307:Core/Src/stm32u5xx_hal_msp.c **** * @retval None
 308:Core/Src/stm32u5xx_hal_msp.c **** */
 309:Core/Src/stm32u5xx_hal_msp.c **** void HAL_UART_MspDeInit(UART_HandleTypeDef* huart)
 310:Core/Src/stm32u5xx_hal_msp.c **** {
 690              		.loc 1 310 1 view -0
 691              		.cfi_startproc
 692              		@ args = 0, pretend = 0, frame = 0
 693              		@ frame_needed = 0, uses_anonymous_args = 0
 694              		.loc 1 310 1 is_stmt 0 view .LVU183
 695 0000 08B5     		push	{r3, lr}
 696              		.cfi_def_cfa_offset 8
 697              		.cfi_offset 3, -8
 698              		.cfi_offset 14, -4
 311:Core/Src/stm32u5xx_hal_msp.c ****   if(huart->Instance==USART1)
 699              		.loc 1 311 3 is_stmt 1 view .LVU184
 700              		.loc 1 311 11 is_stmt 0 view .LVU185
 701 0002 0268     		ldr	r2, [r0]
 702              		.loc 1 311 5 view .LVU186
 703 0004 084B     		ldr	r3, .L45
 704 0006 9A42     		cmp	r2, r3
 705 0008 00D0     		beq	.L44
 706              	.LVL40:
 707              	.L41:
 312:Core/Src/stm32u5xx_hal_msp.c ****   {
 313:Core/Src/stm32u5xx_hal_msp.c ****   /* USER CODE BEGIN USART1_MspDeInit 0 */
 314:Core/Src/stm32u5xx_hal_msp.c **** 
 315:Core/Src/stm32u5xx_hal_msp.c ****   /* USER CODE END USART1_MspDeInit 0 */
 316:Core/Src/stm32u5xx_hal_msp.c ****     /* Peripheral clock disable */
 317:Core/Src/stm32u5xx_hal_msp.c ****     __HAL_RCC_USART1_CLK_DISABLE();
 318:Core/Src/stm32u5xx_hal_msp.c **** 
 319:Core/Src/stm32u5xx_hal_msp.c ****     /**USART1 GPIO Configuration
 320:Core/Src/stm32u5xx_hal_msp.c ****     PA9     ------> USART1_TX
 321:Core/Src/stm32u5xx_hal_msp.c ****     PA10     ------> USART1_RX
 322:Core/Src/stm32u5xx_hal_msp.c ****     */
 323:Core/Src/stm32u5xx_hal_msp.c ****     HAL_GPIO_DeInit(GPIOA, USART1_TX_Pin|USART1_RX_Pin);
ARM GAS  C:\Users\Yamaan\AppData\Local\Temp\cctXBHqZ.s 			page 21


 324:Core/Src/stm32u5xx_hal_msp.c **** 
 325:Core/Src/stm32u5xx_hal_msp.c ****   /* USER CODE BEGIN USART1_MspDeInit 1 */
 326:Core/Src/stm32u5xx_hal_msp.c **** 
 327:Core/Src/stm32u5xx_hal_msp.c ****   /* USER CODE END USART1_MspDeInit 1 */
 328:Core/Src/stm32u5xx_hal_msp.c ****   }
 329:Core/Src/stm32u5xx_hal_msp.c **** 
 330:Core/Src/stm32u5xx_hal_msp.c **** }
 708              		.loc 1 330 1 view .LVU187
 709 000a 08BD     		pop	{r3, pc}
 710              	.LVL41:
 711              	.L44:
 317:Core/Src/stm32u5xx_hal_msp.c **** 
 712              		.loc 1 317 5 is_stmt 1 view .LVU188
 713 000c 074A     		ldr	r2, .L45+4
 714 000e D2F8A430 		ldr	r3, [r2, #164]
 715 0012 23F48043 		bic	r3, r3, #16384
 716 0016 C2F8A430 		str	r3, [r2, #164]
 323:Core/Src/stm32u5xx_hal_msp.c **** 
 717              		.loc 1 323 5 view .LVU189
 718 001a 4FF4C061 		mov	r1, #1536
 719 001e 0448     		ldr	r0, .L45+8
 720              	.LVL42:
 323:Core/Src/stm32u5xx_hal_msp.c **** 
 721              		.loc 1 323 5 is_stmt 0 view .LVU190
 722 0020 FFF7FEFF 		bl	HAL_GPIO_DeInit
 723              	.LVL43:
 724              		.loc 1 330 1 view .LVU191
 725 0024 F1E7     		b	.L41
 726              	.L46:
 727 0026 00BF     		.align	2
 728              	.L45:
 729 0028 00380140 		.word	1073821696
 730 002c 000C0246 		.word	1174539264
 731 0030 00000242 		.word	1107427328
 732              		.cfi_endproc
 733              	.LFE1333:
 735              		.section	.text.HAL_PCD_MspInit,"ax",%progbits
 736              		.align	1
 737              		.global	HAL_PCD_MspInit
 738              		.syntax unified
 739              		.thumb
 740              		.thumb_func
 742              	HAL_PCD_MspInit:
 743              	.LVL44:
 744              	.LFB1334:
 331:Core/Src/stm32u5xx_hal_msp.c **** 
 332:Core/Src/stm32u5xx_hal_msp.c **** /**
 333:Core/Src/stm32u5xx_hal_msp.c **** * @brief PCD MSP Initialization
 334:Core/Src/stm32u5xx_hal_msp.c **** * This function configures the hardware resources used in this example
 335:Core/Src/stm32u5xx_hal_msp.c **** * @param hpcd: PCD handle pointer
 336:Core/Src/stm32u5xx_hal_msp.c **** * @retval None
 337:Core/Src/stm32u5xx_hal_msp.c **** */
 338:Core/Src/stm32u5xx_hal_msp.c **** void HAL_PCD_MspInit(PCD_HandleTypeDef* hpcd)
 339:Core/Src/stm32u5xx_hal_msp.c **** {
 745              		.loc 1 339 1 is_stmt 1 view -0
 746              		.cfi_startproc
 747              		@ args = 0, pretend = 0, frame = 240
ARM GAS  C:\Users\Yamaan\AppData\Local\Temp\cctXBHqZ.s 			page 22


 748              		@ frame_needed = 0, uses_anonymous_args = 0
 749              		.loc 1 339 1 is_stmt 0 view .LVU193
 750 0000 10B5     		push	{r4, lr}
 751              		.cfi_def_cfa_offset 8
 752              		.cfi_offset 4, -8
 753              		.cfi_offset 14, -4
 754 0002 BCB0     		sub	sp, sp, #240
 755              		.cfi_def_cfa_offset 248
 756 0004 0446     		mov	r4, r0
 340:Core/Src/stm32u5xx_hal_msp.c ****   GPIO_InitTypeDef GPIO_InitStruct = {0};
 757              		.loc 1 340 3 is_stmt 1 view .LVU194
 758              		.loc 1 340 20 is_stmt 0 view .LVU195
 759 0006 0021     		movs	r1, #0
 760 0008 3791     		str	r1, [sp, #220]
 761 000a 3891     		str	r1, [sp, #224]
 762 000c 3991     		str	r1, [sp, #228]
 763 000e 3A91     		str	r1, [sp, #232]
 764 0010 3B91     		str	r1, [sp, #236]
 341:Core/Src/stm32u5xx_hal_msp.c ****   RCC_PeriphCLKInitTypeDef PeriphClkInit = {0};
 765              		.loc 1 341 3 is_stmt 1 view .LVU196
 766              		.loc 1 341 28 is_stmt 0 view .LVU197
 767 0012 C822     		movs	r2, #200
 768 0014 04A8     		add	r0, sp, #16
 769              	.LVL45:
 770              		.loc 1 341 28 view .LVU198
 771 0016 FFF7FEFF 		bl	memset
 772              	.LVL46:
 342:Core/Src/stm32u5xx_hal_msp.c ****   if(hpcd->Instance==USB_OTG_FS)
 773              		.loc 1 342 3 is_stmt 1 view .LVU199
 774              		.loc 1 342 10 is_stmt 0 view .LVU200
 775 001a 2268     		ldr	r2, [r4]
 776              		.loc 1 342 5 view .LVU201
 777 001c 2F4B     		ldr	r3, .L55
 778 001e 9A42     		cmp	r2, r3
 779 0020 01D0     		beq	.L53
 780              	.LVL47:
 781              	.L47:
 343:Core/Src/stm32u5xx_hal_msp.c ****   {
 344:Core/Src/stm32u5xx_hal_msp.c ****   /* USER CODE BEGIN USB_OTG_FS_MspInit 0 */
 345:Core/Src/stm32u5xx_hal_msp.c **** 
 346:Core/Src/stm32u5xx_hal_msp.c ****   /* USER CODE END USB_OTG_FS_MspInit 0 */
 347:Core/Src/stm32u5xx_hal_msp.c **** 
 348:Core/Src/stm32u5xx_hal_msp.c ****   /** Initializes the peripherals clock
 349:Core/Src/stm32u5xx_hal_msp.c ****   */
 350:Core/Src/stm32u5xx_hal_msp.c ****     PeriphClkInit.PeriphClockSelection = RCC_PERIPHCLK_CLK48;
 351:Core/Src/stm32u5xx_hal_msp.c ****     PeriphClkInit.IclkClockSelection = RCC_CLK48CLKSOURCE_HSI48;
 352:Core/Src/stm32u5xx_hal_msp.c ****     if (HAL_RCCEx_PeriphCLKConfig(&PeriphClkInit) != HAL_OK)
 353:Core/Src/stm32u5xx_hal_msp.c ****     {
 354:Core/Src/stm32u5xx_hal_msp.c ****       Error_Handler();
 355:Core/Src/stm32u5xx_hal_msp.c ****     }
 356:Core/Src/stm32u5xx_hal_msp.c **** 
 357:Core/Src/stm32u5xx_hal_msp.c ****     __HAL_RCC_GPIOA_CLK_ENABLE();
 358:Core/Src/stm32u5xx_hal_msp.c ****     /**USB_OTG_FS GPIO Configuration
 359:Core/Src/stm32u5xx_hal_msp.c ****     PA11     ------> USB_OTG_FS_DM
 360:Core/Src/stm32u5xx_hal_msp.c ****     PA12     ------> USB_OTG_FS_DP
 361:Core/Src/stm32u5xx_hal_msp.c ****     */
 362:Core/Src/stm32u5xx_hal_msp.c ****     GPIO_InitStruct.Pin = USB_OTG_FS_DM_Pin|USB_OTG_FS_DP_Pin;
ARM GAS  C:\Users\Yamaan\AppData\Local\Temp\cctXBHqZ.s 			page 23


 363:Core/Src/stm32u5xx_hal_msp.c ****     GPIO_InitStruct.Mode = GPIO_MODE_AF_PP;
 364:Core/Src/stm32u5xx_hal_msp.c ****     GPIO_InitStruct.Pull = GPIO_NOPULL;
 365:Core/Src/stm32u5xx_hal_msp.c ****     GPIO_InitStruct.Speed = GPIO_SPEED_FREQ_VERY_HIGH;
 366:Core/Src/stm32u5xx_hal_msp.c ****     GPIO_InitStruct.Alternate = GPIO_AF10_USB;
 367:Core/Src/stm32u5xx_hal_msp.c ****     HAL_GPIO_Init(GPIOA, &GPIO_InitStruct);
 368:Core/Src/stm32u5xx_hal_msp.c **** 
 369:Core/Src/stm32u5xx_hal_msp.c ****     /* Peripheral clock enable */
 370:Core/Src/stm32u5xx_hal_msp.c ****     __HAL_RCC_USB_CLK_ENABLE();
 371:Core/Src/stm32u5xx_hal_msp.c **** 
 372:Core/Src/stm32u5xx_hal_msp.c ****     /* Enable VDDUSB */
 373:Core/Src/stm32u5xx_hal_msp.c ****     if(__HAL_RCC_PWR_IS_CLK_DISABLED())
 374:Core/Src/stm32u5xx_hal_msp.c ****     {
 375:Core/Src/stm32u5xx_hal_msp.c ****       __HAL_RCC_PWR_CLK_ENABLE();
 376:Core/Src/stm32u5xx_hal_msp.c ****       HAL_PWREx_EnableVddUSB();
 377:Core/Src/stm32u5xx_hal_msp.c ****       __HAL_RCC_PWR_CLK_DISABLE();
 378:Core/Src/stm32u5xx_hal_msp.c ****     }
 379:Core/Src/stm32u5xx_hal_msp.c ****     else
 380:Core/Src/stm32u5xx_hal_msp.c ****     {
 381:Core/Src/stm32u5xx_hal_msp.c ****       HAL_PWREx_EnableVddUSB();
 382:Core/Src/stm32u5xx_hal_msp.c ****     }
 383:Core/Src/stm32u5xx_hal_msp.c ****     /* USB_OTG_FS interrupt Init */
 384:Core/Src/stm32u5xx_hal_msp.c ****     HAL_NVIC_SetPriority(OTG_FS_IRQn, 0, 0);
 385:Core/Src/stm32u5xx_hal_msp.c ****     HAL_NVIC_EnableIRQ(OTG_FS_IRQn);
 386:Core/Src/stm32u5xx_hal_msp.c ****   /* USER CODE BEGIN USB_OTG_FS_MspInit 1 */
 387:Core/Src/stm32u5xx_hal_msp.c **** 
 388:Core/Src/stm32u5xx_hal_msp.c ****   /* USER CODE END USB_OTG_FS_MspInit 1 */
 389:Core/Src/stm32u5xx_hal_msp.c ****   }
 390:Core/Src/stm32u5xx_hal_msp.c **** 
 391:Core/Src/stm32u5xx_hal_msp.c **** }
 782              		.loc 1 391 1 view .LVU202
 783 0022 3CB0     		add	sp, sp, #240
 784              		.cfi_remember_state
 785              		.cfi_def_cfa_offset 8
 786              		@ sp needed
 787 0024 10BD     		pop	{r4, pc}
 788              	.LVL48:
 789              	.L53:
 790              		.cfi_restore_state
 350:Core/Src/stm32u5xx_hal_msp.c ****     PeriphClkInit.IclkClockSelection = RCC_CLK48CLKSOURCE_HSI48;
 791              		.loc 1 350 5 is_stmt 1 view .LVU203
 350:Core/Src/stm32u5xx_hal_msp.c ****     PeriphClkInit.IclkClockSelection = RCC_CLK48CLKSOURCE_HSI48;
 792              		.loc 1 350 40 is_stmt 0 view .LVU204
 793 0026 4FF48012 		mov	r2, #1048576
 794 002a 0023     		movs	r3, #0
 795 002c CDE90423 		strd	r2, [sp, #16]
 351:Core/Src/stm32u5xx_hal_msp.c ****     if (HAL_RCCEx_PeriphCLKConfig(&PeriphClkInit) != HAL_OK)
 796              		.loc 1 351 5 is_stmt 1 view .LVU205
 352:Core/Src/stm32u5xx_hal_msp.c ****     {
 797              		.loc 1 352 5 view .LVU206
 352:Core/Src/stm32u5xx_hal_msp.c ****     {
 798              		.loc 1 352 9 is_stmt 0 view .LVU207
 799 0030 04A8     		add	r0, sp, #16
 800 0032 FFF7FEFF 		bl	HAL_RCCEx_PeriphCLKConfig
 801              	.LVL49:
 352:Core/Src/stm32u5xx_hal_msp.c ****     {
 802              		.loc 1 352 8 view .LVU208
 803 0036 0028     		cmp	r0, #0
ARM GAS  C:\Users\Yamaan\AppData\Local\Temp\cctXBHqZ.s 			page 24


 804 0038 49D1     		bne	.L54
 805              	.L49:
 357:Core/Src/stm32u5xx_hal_msp.c ****     /**USB_OTG_FS GPIO Configuration
 806              		.loc 1 357 5 is_stmt 1 view .LVU209
 807              	.LBB11:
 357:Core/Src/stm32u5xx_hal_msp.c ****     /**USB_OTG_FS GPIO Configuration
 808              		.loc 1 357 5 view .LVU210
 357:Core/Src/stm32u5xx_hal_msp.c ****     /**USB_OTG_FS GPIO Configuration
 809              		.loc 1 357 5 view .LVU211
 810 003a 294C     		ldr	r4, .L55+4
 811              	.LVL50:
 357:Core/Src/stm32u5xx_hal_msp.c ****     /**USB_OTG_FS GPIO Configuration
 812              		.loc 1 357 5 is_stmt 0 view .LVU212
 813 003c D4F88C30 		ldr	r3, [r4, #140]
 814 0040 43F00103 		orr	r3, r3, #1
 815 0044 C4F88C30 		str	r3, [r4, #140]
 357:Core/Src/stm32u5xx_hal_msp.c ****     /**USB_OTG_FS GPIO Configuration
 816              		.loc 1 357 5 is_stmt 1 view .LVU213
 817 0048 D4F88C30 		ldr	r3, [r4, #140]
 818 004c 03F00103 		and	r3, r3, #1
 819 0050 0193     		str	r3, [sp, #4]
 357:Core/Src/stm32u5xx_hal_msp.c ****     /**USB_OTG_FS GPIO Configuration
 820              		.loc 1 357 5 view .LVU214
 821 0052 019B     		ldr	r3, [sp, #4]
 822              	.LBE11:
 357:Core/Src/stm32u5xx_hal_msp.c ****     /**USB_OTG_FS GPIO Configuration
 823              		.loc 1 357 5 view .LVU215
 362:Core/Src/stm32u5xx_hal_msp.c ****     GPIO_InitStruct.Mode = GPIO_MODE_AF_PP;
 824              		.loc 1 362 5 view .LVU216
 362:Core/Src/stm32u5xx_hal_msp.c ****     GPIO_InitStruct.Mode = GPIO_MODE_AF_PP;
 825              		.loc 1 362 25 is_stmt 0 view .LVU217
 826 0054 4FF4C053 		mov	r3, #6144
 827 0058 3793     		str	r3, [sp, #220]
 363:Core/Src/stm32u5xx_hal_msp.c ****     GPIO_InitStruct.Pull = GPIO_NOPULL;
 828              		.loc 1 363 5 is_stmt 1 view .LVU218
 363:Core/Src/stm32u5xx_hal_msp.c ****     GPIO_InitStruct.Pull = GPIO_NOPULL;
 829              		.loc 1 363 26 is_stmt 0 view .LVU219
 830 005a 0223     		movs	r3, #2
 831 005c 3893     		str	r3, [sp, #224]
 364:Core/Src/stm32u5xx_hal_msp.c ****     GPIO_InitStruct.Speed = GPIO_SPEED_FREQ_VERY_HIGH;
 832              		.loc 1 364 5 is_stmt 1 view .LVU220
 364:Core/Src/stm32u5xx_hal_msp.c ****     GPIO_InitStruct.Speed = GPIO_SPEED_FREQ_VERY_HIGH;
 833              		.loc 1 364 26 is_stmt 0 view .LVU221
 834 005e 0023     		movs	r3, #0
 835 0060 3993     		str	r3, [sp, #228]
 365:Core/Src/stm32u5xx_hal_msp.c ****     GPIO_InitStruct.Alternate = GPIO_AF10_USB;
 836              		.loc 1 365 5 is_stmt 1 view .LVU222
 365:Core/Src/stm32u5xx_hal_msp.c ****     GPIO_InitStruct.Alternate = GPIO_AF10_USB;
 837              		.loc 1 365 27 is_stmt 0 view .LVU223
 838 0062 0323     		movs	r3, #3
 839 0064 3A93     		str	r3, [sp, #232]
 366:Core/Src/stm32u5xx_hal_msp.c ****     HAL_GPIO_Init(GPIOA, &GPIO_InitStruct);
 840              		.loc 1 366 5 is_stmt 1 view .LVU224
 366:Core/Src/stm32u5xx_hal_msp.c ****     HAL_GPIO_Init(GPIOA, &GPIO_InitStruct);
 841              		.loc 1 366 31 is_stmt 0 view .LVU225
 842 0066 0A23     		movs	r3, #10
 843 0068 3B93     		str	r3, [sp, #236]
ARM GAS  C:\Users\Yamaan\AppData\Local\Temp\cctXBHqZ.s 			page 25


 367:Core/Src/stm32u5xx_hal_msp.c **** 
 844              		.loc 1 367 5 is_stmt 1 view .LVU226
 845 006a 37A9     		add	r1, sp, #220
 846 006c 1D48     		ldr	r0, .L55+8
 847 006e FFF7FEFF 		bl	HAL_GPIO_Init
 848              	.LVL51:
 370:Core/Src/stm32u5xx_hal_msp.c **** 
 849              		.loc 1 370 5 view .LVU227
 850              	.LBB12:
 370:Core/Src/stm32u5xx_hal_msp.c **** 
 851              		.loc 1 370 5 view .LVU228
 370:Core/Src/stm32u5xx_hal_msp.c **** 
 852              		.loc 1 370 5 view .LVU229
 853 0072 D4F88C30 		ldr	r3, [r4, #140]
 854 0076 43F48043 		orr	r3, r3, #16384
 855 007a C4F88C30 		str	r3, [r4, #140]
 370:Core/Src/stm32u5xx_hal_msp.c **** 
 856              		.loc 1 370 5 view .LVU230
 857 007e D4F88C30 		ldr	r3, [r4, #140]
 858 0082 03F48043 		and	r3, r3, #16384
 859 0086 0293     		str	r3, [sp, #8]
 370:Core/Src/stm32u5xx_hal_msp.c **** 
 860              		.loc 1 370 5 view .LVU231
 861 0088 029B     		ldr	r3, [sp, #8]
 862              	.LBE12:
 370:Core/Src/stm32u5xx_hal_msp.c **** 
 863              		.loc 1 370 5 view .LVU232
 373:Core/Src/stm32u5xx_hal_msp.c ****     {
 864              		.loc 1 373 5 view .LVU233
 373:Core/Src/stm32u5xx_hal_msp.c ****     {
 865              		.loc 1 373 8 is_stmt 0 view .LVU234
 866 008a D4F89430 		ldr	r3, [r4, #148]
 373:Core/Src/stm32u5xx_hal_msp.c ****     {
 867              		.loc 1 373 7 view .LVU235
 868 008e 13F0040F 		tst	r3, #4
 869 0092 1FD1     		bne	.L50
 375:Core/Src/stm32u5xx_hal_msp.c ****       HAL_PWREx_EnableVddUSB();
 870              		.loc 1 375 7 is_stmt 1 view .LVU236
 871              	.LBB13:
 375:Core/Src/stm32u5xx_hal_msp.c ****       HAL_PWREx_EnableVddUSB();
 872              		.loc 1 375 7 view .LVU237
 375:Core/Src/stm32u5xx_hal_msp.c ****       HAL_PWREx_EnableVddUSB();
 873              		.loc 1 375 7 view .LVU238
 874 0094 D4F89430 		ldr	r3, [r4, #148]
 875 0098 43F00403 		orr	r3, r3, #4
 876 009c C4F89430 		str	r3, [r4, #148]
 375:Core/Src/stm32u5xx_hal_msp.c ****       HAL_PWREx_EnableVddUSB();
 877              		.loc 1 375 7 view .LVU239
 878 00a0 D4F89430 		ldr	r3, [r4, #148]
 879 00a4 03F00403 		and	r3, r3, #4
 880 00a8 0393     		str	r3, [sp, #12]
 375:Core/Src/stm32u5xx_hal_msp.c ****       HAL_PWREx_EnableVddUSB();
 881              		.loc 1 375 7 view .LVU240
 882 00aa 039B     		ldr	r3, [sp, #12]
 883              	.LBE13:
 375:Core/Src/stm32u5xx_hal_msp.c ****       HAL_PWREx_EnableVddUSB();
 884              		.loc 1 375 7 view .LVU241
ARM GAS  C:\Users\Yamaan\AppData\Local\Temp\cctXBHqZ.s 			page 26


 376:Core/Src/stm32u5xx_hal_msp.c ****       __HAL_RCC_PWR_CLK_DISABLE();
 885              		.loc 1 376 7 view .LVU242
 886 00ac FFF7FEFF 		bl	HAL_PWREx_EnableVddUSB
 887              	.LVL52:
 377:Core/Src/stm32u5xx_hal_msp.c ****     }
 888              		.loc 1 377 7 view .LVU243
 889 00b0 D4F89430 		ldr	r3, [r4, #148]
 890 00b4 23F00403 		bic	r3, r3, #4
 891 00b8 C4F89430 		str	r3, [r4, #148]
 892              	.L51:
 384:Core/Src/stm32u5xx_hal_msp.c ****     HAL_NVIC_EnableIRQ(OTG_FS_IRQn);
 893              		.loc 1 384 5 view .LVU244
 894 00bc 0022     		movs	r2, #0
 895 00be 1146     		mov	r1, r2
 896 00c0 4920     		movs	r0, #73
 897 00c2 FFF7FEFF 		bl	HAL_NVIC_SetPriority
 898              	.LVL53:
 385:Core/Src/stm32u5xx_hal_msp.c ****   /* USER CODE BEGIN USB_OTG_FS_MspInit 1 */
 899              		.loc 1 385 5 view .LVU245
 900 00c6 4920     		movs	r0, #73
 901 00c8 FFF7FEFF 		bl	HAL_NVIC_EnableIRQ
 902              	.LVL54:
 903              		.loc 1 391 1 is_stmt 0 view .LVU246
 904 00cc A9E7     		b	.L47
 905              	.LVL55:
 906              	.L54:
 354:Core/Src/stm32u5xx_hal_msp.c ****     }
 907              		.loc 1 354 7 is_stmt 1 view .LVU247
 908 00ce FFF7FEFF 		bl	Error_Handler
 909              	.LVL56:
 910 00d2 B2E7     		b	.L49
 911              	.LVL57:
 912              	.L50:
 381:Core/Src/stm32u5xx_hal_msp.c ****     }
 913              		.loc 1 381 7 view .LVU248
 914 00d4 FFF7FEFF 		bl	HAL_PWREx_EnableVddUSB
 915              	.LVL58:
 916 00d8 F0E7     		b	.L51
 917              	.L56:
 918 00da 00BF     		.align	2
 919              	.L55:
 920 00dc 00000442 		.word	1107558400
 921 00e0 000C0246 		.word	1174539264
 922 00e4 00000242 		.word	1107427328
 923              		.cfi_endproc
 924              	.LFE1334:
 926              		.section	.text.HAL_PCD_MspDeInit,"ax",%progbits
 927              		.align	1
 928              		.global	HAL_PCD_MspDeInit
 929              		.syntax unified
 930              		.thumb
 931              		.thumb_func
 933              	HAL_PCD_MspDeInit:
 934              	.LVL59:
 935              	.LFB1335:
 392:Core/Src/stm32u5xx_hal_msp.c **** 
 393:Core/Src/stm32u5xx_hal_msp.c **** /**
ARM GAS  C:\Users\Yamaan\AppData\Local\Temp\cctXBHqZ.s 			page 27


 394:Core/Src/stm32u5xx_hal_msp.c **** * @brief PCD MSP De-Initialization
 395:Core/Src/stm32u5xx_hal_msp.c **** * This function freeze the hardware resources used in this example
 396:Core/Src/stm32u5xx_hal_msp.c **** * @param hpcd: PCD handle pointer
 397:Core/Src/stm32u5xx_hal_msp.c **** * @retval None
 398:Core/Src/stm32u5xx_hal_msp.c **** */
 399:Core/Src/stm32u5xx_hal_msp.c **** void HAL_PCD_MspDeInit(PCD_HandleTypeDef* hpcd)
 400:Core/Src/stm32u5xx_hal_msp.c **** {
 936              		.loc 1 400 1 view -0
 937              		.cfi_startproc
 938              		@ args = 0, pretend = 0, frame = 0
 939              		@ frame_needed = 0, uses_anonymous_args = 0
 940              		.loc 1 400 1 is_stmt 0 view .LVU250
 941 0000 08B5     		push	{r3, lr}
 942              		.cfi_def_cfa_offset 8
 943              		.cfi_offset 3, -8
 944              		.cfi_offset 14, -4
 401:Core/Src/stm32u5xx_hal_msp.c ****   if(hpcd->Instance==USB_OTG_FS)
 945              		.loc 1 401 3 is_stmt 1 view .LVU251
 946              		.loc 1 401 10 is_stmt 0 view .LVU252
 947 0002 0268     		ldr	r2, [r0]
 948              		.loc 1 401 5 view .LVU253
 949 0004 094B     		ldr	r3, .L61
 950 0006 9A42     		cmp	r2, r3
 951 0008 00D0     		beq	.L60
 952              	.LVL60:
 953              	.L57:
 402:Core/Src/stm32u5xx_hal_msp.c ****   {
 403:Core/Src/stm32u5xx_hal_msp.c ****   /* USER CODE BEGIN USB_OTG_FS_MspDeInit 0 */
 404:Core/Src/stm32u5xx_hal_msp.c **** 
 405:Core/Src/stm32u5xx_hal_msp.c ****   /* USER CODE END USB_OTG_FS_MspDeInit 0 */
 406:Core/Src/stm32u5xx_hal_msp.c ****     /* Peripheral clock disable */
 407:Core/Src/stm32u5xx_hal_msp.c ****     __HAL_RCC_USB_CLK_DISABLE();
 408:Core/Src/stm32u5xx_hal_msp.c **** 
 409:Core/Src/stm32u5xx_hal_msp.c ****     /**USB_OTG_FS GPIO Configuration
 410:Core/Src/stm32u5xx_hal_msp.c ****     PA11     ------> USB_OTG_FS_DM
 411:Core/Src/stm32u5xx_hal_msp.c ****     PA12     ------> USB_OTG_FS_DP
 412:Core/Src/stm32u5xx_hal_msp.c ****     */
 413:Core/Src/stm32u5xx_hal_msp.c ****     HAL_GPIO_DeInit(GPIOA, USB_OTG_FS_DM_Pin|USB_OTG_FS_DP_Pin);
 414:Core/Src/stm32u5xx_hal_msp.c **** 
 415:Core/Src/stm32u5xx_hal_msp.c ****     /* USB_OTG_FS interrupt DeInit */
 416:Core/Src/stm32u5xx_hal_msp.c ****     HAL_NVIC_DisableIRQ(OTG_FS_IRQn);
 417:Core/Src/stm32u5xx_hal_msp.c ****   /* USER CODE BEGIN USB_OTG_FS_MspDeInit 1 */
 418:Core/Src/stm32u5xx_hal_msp.c **** 
 419:Core/Src/stm32u5xx_hal_msp.c ****   /* USER CODE END USB_OTG_FS_MspDeInit 1 */
 420:Core/Src/stm32u5xx_hal_msp.c ****   }
 421:Core/Src/stm32u5xx_hal_msp.c **** 
 422:Core/Src/stm32u5xx_hal_msp.c **** }
 954              		.loc 1 422 1 view .LVU254
 955 000a 08BD     		pop	{r3, pc}
 956              	.LVL61:
 957              	.L60:
 407:Core/Src/stm32u5xx_hal_msp.c **** 
 958              		.loc 1 407 5 is_stmt 1 view .LVU255
 959 000c 084A     		ldr	r2, .L61+4
 960 000e D2F88C30 		ldr	r3, [r2, #140]
 961 0012 23F48043 		bic	r3, r3, #16384
 962 0016 C2F88C30 		str	r3, [r2, #140]
ARM GAS  C:\Users\Yamaan\AppData\Local\Temp\cctXBHqZ.s 			page 28


 413:Core/Src/stm32u5xx_hal_msp.c **** 
 963              		.loc 1 413 5 view .LVU256
 964 001a 4FF4C051 		mov	r1, #6144
 965 001e 0548     		ldr	r0, .L61+8
 966              	.LVL62:
 413:Core/Src/stm32u5xx_hal_msp.c **** 
 967              		.loc 1 413 5 is_stmt 0 view .LVU257
 968 0020 FFF7FEFF 		bl	HAL_GPIO_DeInit
 969              	.LVL63:
 416:Core/Src/stm32u5xx_hal_msp.c ****   /* USER CODE BEGIN USB_OTG_FS_MspDeInit 1 */
 970              		.loc 1 416 5 is_stmt 1 view .LVU258
 971 0024 4920     		movs	r0, #73
 972 0026 FFF7FEFF 		bl	HAL_NVIC_DisableIRQ
 973              	.LVL64:
 974              		.loc 1 422 1 is_stmt 0 view .LVU259
 975 002a EEE7     		b	.L57
 976              	.L62:
 977              		.align	2
 978              	.L61:
 979 002c 00000442 		.word	1107558400
 980 0030 000C0246 		.word	1174539264
 981 0034 00000242 		.word	1107427328
 982              		.cfi_endproc
 983              	.LFE1335:
 985              		.text
 986              	.Letext0:
 987              		.file 2 "Drivers/CMSIS/Device/ST/STM32U5xx/Include/stm32u575xx.h"
 988              		.file 3 "c:\\users\\yamaan\\appdata\\roaming\\code\\user\\globalstorage\\bmd.stm32-for-vscode\\@xp
 989              		.file 4 "c:\\users\\yamaan\\appdata\\roaming\\code\\user\\globalstorage\\bmd.stm32-for-vscode\\@xp
 990              		.file 5 "Drivers/CMSIS/Device/ST/STM32U5xx/Include/stm32u5xx.h"
 991              		.file 6 "Drivers/STM32U5xx_HAL_Driver/Inc/stm32u5xx_hal_def.h"
 992              		.file 7 "Drivers/STM32U5xx_HAL_Driver/Inc/stm32u5xx_hal_rcc_ex.h"
 993              		.file 8 "Drivers/STM32U5xx_HAL_Driver/Inc/stm32u5xx_hal_gpio.h"
 994              		.file 9 "Drivers/STM32U5xx_HAL_Driver/Inc/stm32u5xx_hal_dma.h"
 995              		.file 10 "Drivers/STM32U5xx_HAL_Driver/Inc/stm32u5xx_hal_dma_ex.h"
 996              		.file 11 "Drivers/STM32U5xx_HAL_Driver/Inc/stm32u5xx_hal_adc.h"
 997              		.file 12 "Drivers/STM32U5xx_HAL_Driver/Inc/stm32u5xx_hal_uart.h"
 998              		.file 13 "Drivers/STM32U5xx_HAL_Driver/Inc/stm32u5xx_ll_usb.h"
 999              		.file 14 "Drivers/STM32U5xx_HAL_Driver/Inc/stm32u5xx_hal_pcd.h"
 1000              		.file 15 "Drivers/STM32U5xx_HAL_Driver/Inc/stm32u5xx_hal_fdcan.h"
 1001              		.file 16 "Drivers/STM32U5xx_HAL_Driver/Inc/stm32u5xx_hal_cortex.h"
 1002              		.file 17 "Drivers/STM32U5xx_HAL_Driver/Inc/stm32u5xx_hal_pwr_ex.h"
 1003              		.file 18 "Core/Inc/main.h"
 1004              		.file 19 "Drivers/STM32U5xx_HAL_Driver/Inc/stm32u5xx_ll_dma.h"
 1005              		.file 20 "<built-in>"
ARM GAS  C:\Users\Yamaan\AppData\Local\Temp\cctXBHqZ.s 			page 29

