ARM GAS  C:\Users\Yamaan\AppData\Local\Temp\ccnzxzH5.s 			page 1


   1              		.cpu cortex-m33
   2              		.arch armv8-m.main
   3              		.fpu fpv5-sp-d16
   4              		.arch_extension dsp
   5              		.eabi_attribute 27, 1
   6              		.eabi_attribute 28, 1
   7              		.eabi_attribute 20, 1
   8              		.eabi_attribute 21, 1
   9              		.eabi_attribute 23, 3
  10              		.eabi_attribute 24, 1
  11              		.eabi_attribute 25, 1
  12              		.eabi_attribute 26, 1
  13              		.eabi_attribute 30, 1
  14              		.eabi_attribute 34, 1
  15              		.eabi_attribute 18, 4
  16              		.file	"stm32u5xx_ll_exti.c"
  17              		.text
  18              	.Ltext0:
  19              		.cfi_sections	.debug_frame
  20              		.file 1 "Drivers/STM32U5xx_HAL_Driver/Src/stm32u5xx_ll_exti.c"
  21              		.section	.text.LL_EXTI_DeInit,"ax",%progbits
  22              		.align	1
  23              		.global	LL_EXTI_DeInit
  24              		.syntax unified
  25              		.thumb
  26              		.thumb_func
  28              	LL_EXTI_DeInit:
  29              	.LFB365:
   1:Drivers/STM32U5xx_HAL_Driver/Src/stm32u5xx_ll_exti.c **** /**
   2:Drivers/STM32U5xx_HAL_Driver/Src/stm32u5xx_ll_exti.c ****   ******************************************************************************
   3:Drivers/STM32U5xx_HAL_Driver/Src/stm32u5xx_ll_exti.c ****   * @file    stm32u5xx_ll_exti.c
   4:Drivers/STM32U5xx_HAL_Driver/Src/stm32u5xx_ll_exti.c ****   * @author  MCD Application Team
   5:Drivers/STM32U5xx_HAL_Driver/Src/stm32u5xx_ll_exti.c ****   * @brief   EXTI LL module driver.
   6:Drivers/STM32U5xx_HAL_Driver/Src/stm32u5xx_ll_exti.c ****   ******************************************************************************
   7:Drivers/STM32U5xx_HAL_Driver/Src/stm32u5xx_ll_exti.c ****   * @attention
   8:Drivers/STM32U5xx_HAL_Driver/Src/stm32u5xx_ll_exti.c ****   *
   9:Drivers/STM32U5xx_HAL_Driver/Src/stm32u5xx_ll_exti.c ****   * Copyright (c) 2021 STMicroelectronics.
  10:Drivers/STM32U5xx_HAL_Driver/Src/stm32u5xx_ll_exti.c ****   * All rights reserved.
  11:Drivers/STM32U5xx_HAL_Driver/Src/stm32u5xx_ll_exti.c ****   *
  12:Drivers/STM32U5xx_HAL_Driver/Src/stm32u5xx_ll_exti.c ****   * This software is licensed under terms that can be found in the LICENSE file
  13:Drivers/STM32U5xx_HAL_Driver/Src/stm32u5xx_ll_exti.c ****   * in the root directory of this software component.
  14:Drivers/STM32U5xx_HAL_Driver/Src/stm32u5xx_ll_exti.c ****   * If no LICENSE file comes with this software, it is provided AS-IS.
  15:Drivers/STM32U5xx_HAL_Driver/Src/stm32u5xx_ll_exti.c ****   *
  16:Drivers/STM32U5xx_HAL_Driver/Src/stm32u5xx_ll_exti.c ****   ******************************************************************************
  17:Drivers/STM32U5xx_HAL_Driver/Src/stm32u5xx_ll_exti.c ****   */
  18:Drivers/STM32U5xx_HAL_Driver/Src/stm32u5xx_ll_exti.c **** #if defined(USE_FULL_LL_DRIVER)
  19:Drivers/STM32U5xx_HAL_Driver/Src/stm32u5xx_ll_exti.c **** 
  20:Drivers/STM32U5xx_HAL_Driver/Src/stm32u5xx_ll_exti.c **** /* Includes ------------------------------------------------------------------*/
  21:Drivers/STM32U5xx_HAL_Driver/Src/stm32u5xx_ll_exti.c **** #include "stm32u5xx_ll_exti.h"
  22:Drivers/STM32U5xx_HAL_Driver/Src/stm32u5xx_ll_exti.c **** #ifdef  USE_FULL_ASSERT
  23:Drivers/STM32U5xx_HAL_Driver/Src/stm32u5xx_ll_exti.c **** #include "stm32_assert.h"
  24:Drivers/STM32U5xx_HAL_Driver/Src/stm32u5xx_ll_exti.c **** #else
  25:Drivers/STM32U5xx_HAL_Driver/Src/stm32u5xx_ll_exti.c **** #define assert_param(expr) ((void)0U)
  26:Drivers/STM32U5xx_HAL_Driver/Src/stm32u5xx_ll_exti.c **** #endif /* USE_FULL_ASSERT */
  27:Drivers/STM32U5xx_HAL_Driver/Src/stm32u5xx_ll_exti.c **** 
  28:Drivers/STM32U5xx_HAL_Driver/Src/stm32u5xx_ll_exti.c **** /** @addtogroup STM32U5xx_LL_Driver
  29:Drivers/STM32U5xx_HAL_Driver/Src/stm32u5xx_ll_exti.c ****   * @{
ARM GAS  C:\Users\Yamaan\AppData\Local\Temp\ccnzxzH5.s 			page 2


  30:Drivers/STM32U5xx_HAL_Driver/Src/stm32u5xx_ll_exti.c ****   */
  31:Drivers/STM32U5xx_HAL_Driver/Src/stm32u5xx_ll_exti.c **** 
  32:Drivers/STM32U5xx_HAL_Driver/Src/stm32u5xx_ll_exti.c **** #if defined (EXTI)
  33:Drivers/STM32U5xx_HAL_Driver/Src/stm32u5xx_ll_exti.c **** 
  34:Drivers/STM32U5xx_HAL_Driver/Src/stm32u5xx_ll_exti.c **** /** @defgroup EXTI_LL EXTI
  35:Drivers/STM32U5xx_HAL_Driver/Src/stm32u5xx_ll_exti.c ****   * @{
  36:Drivers/STM32U5xx_HAL_Driver/Src/stm32u5xx_ll_exti.c ****   */
  37:Drivers/STM32U5xx_HAL_Driver/Src/stm32u5xx_ll_exti.c **** 
  38:Drivers/STM32U5xx_HAL_Driver/Src/stm32u5xx_ll_exti.c **** /* Private types -------------------------------------------------------------*/
  39:Drivers/STM32U5xx_HAL_Driver/Src/stm32u5xx_ll_exti.c **** /* Private variables ---------------------------------------------------------*/
  40:Drivers/STM32U5xx_HAL_Driver/Src/stm32u5xx_ll_exti.c **** /* Private constants ---------------------------------------------------------*/
  41:Drivers/STM32U5xx_HAL_Driver/Src/stm32u5xx_ll_exti.c **** /* Private macros ------------------------------------------------------------*/
  42:Drivers/STM32U5xx_HAL_Driver/Src/stm32u5xx_ll_exti.c **** /** @addtogroup EXTI_LL_Private_Macros
  43:Drivers/STM32U5xx_HAL_Driver/Src/stm32u5xx_ll_exti.c ****   * @{
  44:Drivers/STM32U5xx_HAL_Driver/Src/stm32u5xx_ll_exti.c ****   */
  45:Drivers/STM32U5xx_HAL_Driver/Src/stm32u5xx_ll_exti.c **** 
  46:Drivers/STM32U5xx_HAL_Driver/Src/stm32u5xx_ll_exti.c **** #define IS_LL_EXTI_LINE_0_31(__VALUE__)              (((__VALUE__) & ~LL_EXTI_LINE_ALL_0_31) == 0x0
  47:Drivers/STM32U5xx_HAL_Driver/Src/stm32u5xx_ll_exti.c **** 
  48:Drivers/STM32U5xx_HAL_Driver/Src/stm32u5xx_ll_exti.c **** #define IS_LL_EXTI_MODE(__VALUE__)                   (((__VALUE__) == LL_EXTI_MODE_IT)            \
  49:Drivers/STM32U5xx_HAL_Driver/Src/stm32u5xx_ll_exti.c ****                                                       || ((__VALUE__) == LL_EXTI_MODE_EVENT)       
  50:Drivers/STM32U5xx_HAL_Driver/Src/stm32u5xx_ll_exti.c ****                                                       || ((__VALUE__) == LL_EXTI_MODE_IT_EVENT))
  51:Drivers/STM32U5xx_HAL_Driver/Src/stm32u5xx_ll_exti.c **** 
  52:Drivers/STM32U5xx_HAL_Driver/Src/stm32u5xx_ll_exti.c **** 
  53:Drivers/STM32U5xx_HAL_Driver/Src/stm32u5xx_ll_exti.c **** #define IS_LL_EXTI_TRIGGER(__VALUE__)                (((__VALUE__) == LL_EXTI_TRIGGER_NONE)       \
  54:Drivers/STM32U5xx_HAL_Driver/Src/stm32u5xx_ll_exti.c ****                                                       || ((__VALUE__) == LL_EXTI_TRIGGER_RISING)   
  55:Drivers/STM32U5xx_HAL_Driver/Src/stm32u5xx_ll_exti.c ****                                                       || ((__VALUE__) == LL_EXTI_TRIGGER_FALLING)  
  56:Drivers/STM32U5xx_HAL_Driver/Src/stm32u5xx_ll_exti.c ****                                                       || ((__VALUE__) == LL_EXTI_TRIGGER_RISING_FAL
  57:Drivers/STM32U5xx_HAL_Driver/Src/stm32u5xx_ll_exti.c **** 
  58:Drivers/STM32U5xx_HAL_Driver/Src/stm32u5xx_ll_exti.c **** /**
  59:Drivers/STM32U5xx_HAL_Driver/Src/stm32u5xx_ll_exti.c ****   * @}
  60:Drivers/STM32U5xx_HAL_Driver/Src/stm32u5xx_ll_exti.c ****   */
  61:Drivers/STM32U5xx_HAL_Driver/Src/stm32u5xx_ll_exti.c **** 
  62:Drivers/STM32U5xx_HAL_Driver/Src/stm32u5xx_ll_exti.c **** /* Private function prototypes -----------------------------------------------*/
  63:Drivers/STM32U5xx_HAL_Driver/Src/stm32u5xx_ll_exti.c **** 
  64:Drivers/STM32U5xx_HAL_Driver/Src/stm32u5xx_ll_exti.c **** /* Exported functions --------------------------------------------------------*/
  65:Drivers/STM32U5xx_HAL_Driver/Src/stm32u5xx_ll_exti.c **** /** @addtogroup EXTI_LL_Exported_Functions
  66:Drivers/STM32U5xx_HAL_Driver/Src/stm32u5xx_ll_exti.c ****   * @{
  67:Drivers/STM32U5xx_HAL_Driver/Src/stm32u5xx_ll_exti.c ****   */
  68:Drivers/STM32U5xx_HAL_Driver/Src/stm32u5xx_ll_exti.c **** 
  69:Drivers/STM32U5xx_HAL_Driver/Src/stm32u5xx_ll_exti.c **** /** @addtogroup EXTI_LL_EF_Init
  70:Drivers/STM32U5xx_HAL_Driver/Src/stm32u5xx_ll_exti.c ****   * @{
  71:Drivers/STM32U5xx_HAL_Driver/Src/stm32u5xx_ll_exti.c ****   */
  72:Drivers/STM32U5xx_HAL_Driver/Src/stm32u5xx_ll_exti.c **** 
  73:Drivers/STM32U5xx_HAL_Driver/Src/stm32u5xx_ll_exti.c **** /**
  74:Drivers/STM32U5xx_HAL_Driver/Src/stm32u5xx_ll_exti.c ****   * @brief  De-initialize the EXTI registers to their default reset values.
  75:Drivers/STM32U5xx_HAL_Driver/Src/stm32u5xx_ll_exti.c ****   * @retval An ErrorStatus enumeration value:
  76:Drivers/STM32U5xx_HAL_Driver/Src/stm32u5xx_ll_exti.c ****   *          - SUCCESS: EXTI registers are de-initialized
  77:Drivers/STM32U5xx_HAL_Driver/Src/stm32u5xx_ll_exti.c ****   *          - ERROR: not applicable
  78:Drivers/STM32U5xx_HAL_Driver/Src/stm32u5xx_ll_exti.c ****   */
  79:Drivers/STM32U5xx_HAL_Driver/Src/stm32u5xx_ll_exti.c **** ErrorStatus LL_EXTI_DeInit(void)
  80:Drivers/STM32U5xx_HAL_Driver/Src/stm32u5xx_ll_exti.c **** {
  30              		.loc 1 80 1 view -0
  31              		.cfi_startproc
  32              		@ args = 0, pretend = 0, frame = 0
  33              		@ frame_needed = 0, uses_anonymous_args = 0
  34              		@ link register save eliminated.
  81:Drivers/STM32U5xx_HAL_Driver/Src/stm32u5xx_ll_exti.c ****   /* Interrupt mask register set to default reset values */
ARM GAS  C:\Users\Yamaan\AppData\Local\Temp\ccnzxzH5.s 			page 3


  82:Drivers/STM32U5xx_HAL_Driver/Src/stm32u5xx_ll_exti.c ****   LL_EXTI_WriteReg(IMR1,   0xFF9E0000U);
  35              		.loc 1 82 3 view .LVU1
  36 0000 074B     		ldr	r3, .L2
  37 0002 084A     		ldr	r2, .L2+4
  38 0004 C3F88020 		str	r2, [r3, #128]
  83:Drivers/STM32U5xx_HAL_Driver/Src/stm32u5xx_ll_exti.c ****   /* Event mask register set to default reset values */
  84:Drivers/STM32U5xx_HAL_Driver/Src/stm32u5xx_ll_exti.c ****   LL_EXTI_WriteReg(EMR1,   0x00000000U);
  39              		.loc 1 84 3 view .LVU2
  40 0008 0020     		movs	r0, #0
  41 000a C3F88400 		str	r0, [r3, #132]
  85:Drivers/STM32U5xx_HAL_Driver/Src/stm32u5xx_ll_exti.c ****   /* Rising Trigger selection register set to default reset values */
  86:Drivers/STM32U5xx_HAL_Driver/Src/stm32u5xx_ll_exti.c ****   LL_EXTI_WriteReg(RTSR1,  0x00000000U);
  42              		.loc 1 86 3 view .LVU3
  43 000e 1860     		str	r0, [r3]
  87:Drivers/STM32U5xx_HAL_Driver/Src/stm32u5xx_ll_exti.c ****   /* Falling Trigger selection register set to default reset values */
  88:Drivers/STM32U5xx_HAL_Driver/Src/stm32u5xx_ll_exti.c ****   LL_EXTI_WriteReg(FTSR1,  0x00000000U);
  44              		.loc 1 88 3 view .LVU4
  45 0010 5860     		str	r0, [r3, #4]
  89:Drivers/STM32U5xx_HAL_Driver/Src/stm32u5xx_ll_exti.c ****   /* Software interrupt event register set to default reset values */
  90:Drivers/STM32U5xx_HAL_Driver/Src/stm32u5xx_ll_exti.c ****   LL_EXTI_WriteReg(SWIER1, 0x00000000U);
  46              		.loc 1 90 3 view .LVU5
  47 0012 9860     		str	r0, [r3, #8]
  91:Drivers/STM32U5xx_HAL_Driver/Src/stm32u5xx_ll_exti.c ****   /* Pending register set to default reset values */
  92:Drivers/STM32U5xx_HAL_Driver/Src/stm32u5xx_ll_exti.c ****   LL_EXTI_WriteReg(RPR1,   0xFFFFFFFFU);
  48              		.loc 1 92 3 view .LVU6
  49 0014 4FF0FF32 		mov	r2, #-1
  50 0018 DA60     		str	r2, [r3, #12]
  93:Drivers/STM32U5xx_HAL_Driver/Src/stm32u5xx_ll_exti.c ****   LL_EXTI_WriteReg(FPR1,   0xFFFFFFFFU);
  51              		.loc 1 93 3 view .LVU7
  52 001a 1A61     		str	r2, [r3, #16]
  94:Drivers/STM32U5xx_HAL_Driver/Src/stm32u5xx_ll_exti.c ****   /* Privilege register set to default reset values */
  95:Drivers/STM32U5xx_HAL_Driver/Src/stm32u5xx_ll_exti.c ****   LL_EXTI_WriteReg(PRIVCFGR1,  0x00000000U);
  53              		.loc 1 95 3 view .LVU8
  54 001c 9861     		str	r0, [r3, #24]
  96:Drivers/STM32U5xx_HAL_Driver/Src/stm32u5xx_ll_exti.c **** #if defined (__ARM_FEATURE_CMSE) && (__ARM_FEATURE_CMSE == 3U)
  97:Drivers/STM32U5xx_HAL_Driver/Src/stm32u5xx_ll_exti.c ****   /* Secure register set to default reset values */
  98:Drivers/STM32U5xx_HAL_Driver/Src/stm32u5xx_ll_exti.c ****   LL_EXTI_WriteReg(SECCFGR1,  0x00000000U);
  99:Drivers/STM32U5xx_HAL_Driver/Src/stm32u5xx_ll_exti.c **** #endif /* __ARM_FEATURE_CMSE */
 100:Drivers/STM32U5xx_HAL_Driver/Src/stm32u5xx_ll_exti.c ****   return SUCCESS;
  55              		.loc 1 100 3 view .LVU9
 101:Drivers/STM32U5xx_HAL_Driver/Src/stm32u5xx_ll_exti.c **** }
  56              		.loc 1 101 1 is_stmt 0 view .LVU10
  57 001e 7047     		bx	lr
  58              	.L3:
  59              		.align	2
  60              	.L2:
  61 0020 00200246 		.word	1174544384
  62 0024 00009EFF 		.word	-6422528
  63              		.cfi_endproc
  64              	.LFE365:
  66              		.section	.text.LL_EXTI_Init,"ax",%progbits
  67              		.align	1
  68              		.global	LL_EXTI_Init
  69              		.syntax unified
  70              		.thumb
  71              		.thumb_func
  73              	LL_EXTI_Init:
ARM GAS  C:\Users\Yamaan\AppData\Local\Temp\ccnzxzH5.s 			page 4


  74              	.LVL0:
  75              	.LFB366:
 102:Drivers/STM32U5xx_HAL_Driver/Src/stm32u5xx_ll_exti.c **** 
 103:Drivers/STM32U5xx_HAL_Driver/Src/stm32u5xx_ll_exti.c **** /**
 104:Drivers/STM32U5xx_HAL_Driver/Src/stm32u5xx_ll_exti.c ****   * @brief  Initialize the EXTI registers according to the specified parameters in EXTI_InitStruct.
 105:Drivers/STM32U5xx_HAL_Driver/Src/stm32u5xx_ll_exti.c ****   * @param  EXTI_InitStruct pointer to a @ref LL_EXTI_InitTypeDef structure.
 106:Drivers/STM32U5xx_HAL_Driver/Src/stm32u5xx_ll_exti.c ****   * @retval An ErrorStatus enumeration value:
 107:Drivers/STM32U5xx_HAL_Driver/Src/stm32u5xx_ll_exti.c ****   *          - SUCCESS: EXTI registers are initialized
 108:Drivers/STM32U5xx_HAL_Driver/Src/stm32u5xx_ll_exti.c ****   *          - ERROR: not applicable
 109:Drivers/STM32U5xx_HAL_Driver/Src/stm32u5xx_ll_exti.c ****   */
 110:Drivers/STM32U5xx_HAL_Driver/Src/stm32u5xx_ll_exti.c **** ErrorStatus LL_EXTI_Init(LL_EXTI_InitTypeDef *EXTI_InitStruct)
 111:Drivers/STM32U5xx_HAL_Driver/Src/stm32u5xx_ll_exti.c **** {
  76              		.loc 1 111 1 is_stmt 1 view -0
  77              		.cfi_startproc
  78              		@ args = 0, pretend = 0, frame = 0
  79              		@ frame_needed = 0, uses_anonymous_args = 0
  80              		@ link register save eliminated.
  81              		.loc 1 111 1 is_stmt 0 view .LVU12
  82 0000 10B4     		push	{r4}
  83              		.cfi_def_cfa_offset 4
  84              		.cfi_offset 4, -4
  85 0002 0346     		mov	r3, r0
 112:Drivers/STM32U5xx_HAL_Driver/Src/stm32u5xx_ll_exti.c ****   ErrorStatus status = SUCCESS;
  86              		.loc 1 112 3 is_stmt 1 view .LVU13
  87              	.LVL1:
 113:Drivers/STM32U5xx_HAL_Driver/Src/stm32u5xx_ll_exti.c ****   /* Check the parameters */
 114:Drivers/STM32U5xx_HAL_Driver/Src/stm32u5xx_ll_exti.c ****   assert_param(IS_LL_EXTI_LINE_0_31(EXTI_InitStruct->Line_0_31));
  88              		.loc 1 114 3 view .LVU14
 115:Drivers/STM32U5xx_HAL_Driver/Src/stm32u5xx_ll_exti.c ****   assert_param(IS_FUNCTIONAL_STATE(EXTI_InitStruct->LineCommand));
  89              		.loc 1 115 3 view .LVU15
 116:Drivers/STM32U5xx_HAL_Driver/Src/stm32u5xx_ll_exti.c ****   assert_param(IS_LL_EXTI_MODE(EXTI_InitStruct->Mode));
  90              		.loc 1 116 3 view .LVU16
 117:Drivers/STM32U5xx_HAL_Driver/Src/stm32u5xx_ll_exti.c **** 
 118:Drivers/STM32U5xx_HAL_Driver/Src/stm32u5xx_ll_exti.c ****   /* ENABLE LineCommand */
 119:Drivers/STM32U5xx_HAL_Driver/Src/stm32u5xx_ll_exti.c ****   if (EXTI_InitStruct->LineCommand != DISABLE)
  91              		.loc 1 119 3 view .LVU17
  92              		.loc 1 119 22 is_stmt 0 view .LVU18
  93 0004 0079     		ldrb	r0, [r0, #4]	@ zero_extendqisi2
  94              	.LVL2:
  95              		.loc 1 119 6 view .LVU19
  96 0006 0028     		cmp	r0, #0
  97 0008 5FD0     		beq	.L5
 120:Drivers/STM32U5xx_HAL_Driver/Src/stm32u5xx_ll_exti.c ****   {
 121:Drivers/STM32U5xx_HAL_Driver/Src/stm32u5xx_ll_exti.c ****     assert_param(IS_LL_EXTI_TRIGGER(EXTI_InitStruct->Trigger));
  98              		.loc 1 121 5 is_stmt 1 view .LVU20
 122:Drivers/STM32U5xx_HAL_Driver/Src/stm32u5xx_ll_exti.c **** 
 123:Drivers/STM32U5xx_HAL_Driver/Src/stm32u5xx_ll_exti.c ****     /* Configure EXTI Lines in range from 0 to 31 */
 124:Drivers/STM32U5xx_HAL_Driver/Src/stm32u5xx_ll_exti.c ****     if (EXTI_InitStruct->Line_0_31 != LL_EXTI_LINE_NONE)
  99              		.loc 1 124 5 view .LVU21
 100              		.loc 1 124 24 is_stmt 0 view .LVU22
 101 000a 1A68     		ldr	r2, [r3]
 102              		.loc 1 124 8 view .LVU23
 103 000c 002A     		cmp	r2, #0
 104 000e 6ED0     		beq	.L12
 125:Drivers/STM32U5xx_HAL_Driver/Src/stm32u5xx_ll_exti.c ****     {
 126:Drivers/STM32U5xx_HAL_Driver/Src/stm32u5xx_ll_exti.c ****       switch (EXTI_InitStruct->Mode)
 105              		.loc 1 126 7 is_stmt 1 view .LVU24
ARM GAS  C:\Users\Yamaan\AppData\Local\Temp\ccnzxzH5.s 			page 5


 106              		.loc 1 126 30 is_stmt 0 view .LVU25
 107 0010 5879     		ldrb	r0, [r3, #5]	@ zero_extendqisi2
 108              		.loc 1 126 7 view .LVU26
 109 0012 0128     		cmp	r0, #1
 110 0014 1CD0     		beq	.L7
 111 0016 0228     		cmp	r0, #2
 112 0018 29D0     		beq	.L8
 113 001a 58B1     		cbz	r0, .L16
 114 001c 0120     		movs	r0, #1
 115              	.L9:
 116              	.LVL3:
 127:Drivers/STM32U5xx_HAL_Driver/Src/stm32u5xx_ll_exti.c ****       {
 128:Drivers/STM32U5xx_HAL_Driver/Src/stm32u5xx_ll_exti.c ****         case LL_EXTI_MODE_IT:
 129:Drivers/STM32U5xx_HAL_Driver/Src/stm32u5xx_ll_exti.c ****           /* First Disable Event on provided Lines */
 130:Drivers/STM32U5xx_HAL_Driver/Src/stm32u5xx_ll_exti.c ****           LL_EXTI_DisableEvent_0_31(EXTI_InitStruct->Line_0_31);
 131:Drivers/STM32U5xx_HAL_Driver/Src/stm32u5xx_ll_exti.c ****           /* Then Enable IT on provided Lines */
 132:Drivers/STM32U5xx_HAL_Driver/Src/stm32u5xx_ll_exti.c ****           LL_EXTI_EnableIT_0_31(EXTI_InitStruct->Line_0_31);
 133:Drivers/STM32U5xx_HAL_Driver/Src/stm32u5xx_ll_exti.c ****           break;
 134:Drivers/STM32U5xx_HAL_Driver/Src/stm32u5xx_ll_exti.c ****         case LL_EXTI_MODE_EVENT:
 135:Drivers/STM32U5xx_HAL_Driver/Src/stm32u5xx_ll_exti.c ****           /* First Disable IT on provided Lines */
 136:Drivers/STM32U5xx_HAL_Driver/Src/stm32u5xx_ll_exti.c ****           LL_EXTI_DisableIT_0_31(EXTI_InitStruct->Line_0_31);
 137:Drivers/STM32U5xx_HAL_Driver/Src/stm32u5xx_ll_exti.c ****           /* Then Enable Event on provided Lines */
 138:Drivers/STM32U5xx_HAL_Driver/Src/stm32u5xx_ll_exti.c ****           LL_EXTI_EnableEvent_0_31(EXTI_InitStruct->Line_0_31);
 139:Drivers/STM32U5xx_HAL_Driver/Src/stm32u5xx_ll_exti.c ****           break;
 140:Drivers/STM32U5xx_HAL_Driver/Src/stm32u5xx_ll_exti.c ****         case LL_EXTI_MODE_IT_EVENT:
 141:Drivers/STM32U5xx_HAL_Driver/Src/stm32u5xx_ll_exti.c ****           /* Directly Enable IT & Event on provided Lines */
 142:Drivers/STM32U5xx_HAL_Driver/Src/stm32u5xx_ll_exti.c ****           LL_EXTI_EnableIT_0_31(EXTI_InitStruct->Line_0_31);
 143:Drivers/STM32U5xx_HAL_Driver/Src/stm32u5xx_ll_exti.c ****           LL_EXTI_EnableEvent_0_31(EXTI_InitStruct->Line_0_31);
 144:Drivers/STM32U5xx_HAL_Driver/Src/stm32u5xx_ll_exti.c ****           break;
 145:Drivers/STM32U5xx_HAL_Driver/Src/stm32u5xx_ll_exti.c ****         default:
 146:Drivers/STM32U5xx_HAL_Driver/Src/stm32u5xx_ll_exti.c ****           status = ERROR;
 147:Drivers/STM32U5xx_HAL_Driver/Src/stm32u5xx_ll_exti.c ****           break;
 148:Drivers/STM32U5xx_HAL_Driver/Src/stm32u5xx_ll_exti.c ****       }
 149:Drivers/STM32U5xx_HAL_Driver/Src/stm32u5xx_ll_exti.c ****       if (EXTI_InitStruct->Trigger != LL_EXTI_TRIGGER_NONE)
 117              		.loc 1 149 7 is_stmt 1 view .LVU27
 118              		.loc 1 149 26 is_stmt 0 view .LVU28
 119 001e 9A79     		ldrb	r2, [r3, #6]	@ zero_extendqisi2
 120              		.loc 1 149 10 view .LVU29
 121 0020 002A     		cmp	r2, #0
 122 0022 61D0     		beq	.L6
 150:Drivers/STM32U5xx_HAL_Driver/Src/stm32u5xx_ll_exti.c ****       {
 151:Drivers/STM32U5xx_HAL_Driver/Src/stm32u5xx_ll_exti.c ****         switch (EXTI_InitStruct->Trigger)
 123              		.loc 1 151 9 is_stmt 1 view .LVU30
 124 0024 022A     		cmp	r2, #2
 125 0026 3BD0     		beq	.L10
 126 0028 032A     		cmp	r2, #3
 127 002a 44D0     		beq	.L11
 128 002c 012A     		cmp	r2, #1
 129 002e 2CD0     		beq	.L17
 130 0030 0120     		movs	r0, #1
 131              	.LVL4:
 132              		.loc 1 151 9 is_stmt 0 view .LVU31
 133 0032 59E0     		b	.L6
 134              	.LVL5:
 135              	.L16:
 130:Drivers/STM32U5xx_HAL_Driver/Src/stm32u5xx_ll_exti.c ****           /* Then Enable IT on provided Lines */
 136              		.loc 1 130 11 is_stmt 1 view .LVU32
ARM GAS  C:\Users\Yamaan\AppData\Local\Temp\ccnzxzH5.s 			page 6


 137              	.LBB30:
 138              	.LBI30:
 139              		.file 2 "Drivers/STM32U5xx_HAL_Driver/Inc/stm32u5xx_ll_exti.h"
   1:Drivers/STM32U5xx_HAL_Driver/Inc/stm32u5xx_ll_exti.h **** /**
   2:Drivers/STM32U5xx_HAL_Driver/Inc/stm32u5xx_ll_exti.h ****   ******************************************************************************
   3:Drivers/STM32U5xx_HAL_Driver/Inc/stm32u5xx_ll_exti.h ****   * @file    stm32u5xx_ll_exti.h
   4:Drivers/STM32U5xx_HAL_Driver/Inc/stm32u5xx_ll_exti.h ****   * @author  MCD Application Team
   5:Drivers/STM32U5xx_HAL_Driver/Inc/stm32u5xx_ll_exti.h ****   * @brief   Header file of EXTI LL module.
   6:Drivers/STM32U5xx_HAL_Driver/Inc/stm32u5xx_ll_exti.h ****   ******************************************************************************
   7:Drivers/STM32U5xx_HAL_Driver/Inc/stm32u5xx_ll_exti.h ****   * @attention
   8:Drivers/STM32U5xx_HAL_Driver/Inc/stm32u5xx_ll_exti.h ****   *
   9:Drivers/STM32U5xx_HAL_Driver/Inc/stm32u5xx_ll_exti.h ****   * Copyright (c) 2021 STMicroelectronics.
  10:Drivers/STM32U5xx_HAL_Driver/Inc/stm32u5xx_ll_exti.h ****   * All rights reserved.
  11:Drivers/STM32U5xx_HAL_Driver/Inc/stm32u5xx_ll_exti.h ****   *
  12:Drivers/STM32U5xx_HAL_Driver/Inc/stm32u5xx_ll_exti.h ****   * This software is licensed under terms that can be found in the LICENSE file
  13:Drivers/STM32U5xx_HAL_Driver/Inc/stm32u5xx_ll_exti.h ****   * in the root directory of this software component.
  14:Drivers/STM32U5xx_HAL_Driver/Inc/stm32u5xx_ll_exti.h ****   * If no LICENSE file comes with this software, it is provided AS-IS.
  15:Drivers/STM32U5xx_HAL_Driver/Inc/stm32u5xx_ll_exti.h ****   *
  16:Drivers/STM32U5xx_HAL_Driver/Inc/stm32u5xx_ll_exti.h ****   ******************************************************************************
  17:Drivers/STM32U5xx_HAL_Driver/Inc/stm32u5xx_ll_exti.h ****   */
  18:Drivers/STM32U5xx_HAL_Driver/Inc/stm32u5xx_ll_exti.h **** 
  19:Drivers/STM32U5xx_HAL_Driver/Inc/stm32u5xx_ll_exti.h **** /* Define to prevent recursive inclusion -------------------------------------*/
  20:Drivers/STM32U5xx_HAL_Driver/Inc/stm32u5xx_ll_exti.h **** #ifndef  STM32U5xx_LL_EXTI_H
  21:Drivers/STM32U5xx_HAL_Driver/Inc/stm32u5xx_ll_exti.h **** #define  STM32U5xx_LL_EXTI_H
  22:Drivers/STM32U5xx_HAL_Driver/Inc/stm32u5xx_ll_exti.h **** 
  23:Drivers/STM32U5xx_HAL_Driver/Inc/stm32u5xx_ll_exti.h **** #ifdef __cplusplus
  24:Drivers/STM32U5xx_HAL_Driver/Inc/stm32u5xx_ll_exti.h **** extern "C" {
  25:Drivers/STM32U5xx_HAL_Driver/Inc/stm32u5xx_ll_exti.h **** #endif
  26:Drivers/STM32U5xx_HAL_Driver/Inc/stm32u5xx_ll_exti.h **** 
  27:Drivers/STM32U5xx_HAL_Driver/Inc/stm32u5xx_ll_exti.h **** /* Includes ------------------------------------------------------------------*/
  28:Drivers/STM32U5xx_HAL_Driver/Inc/stm32u5xx_ll_exti.h **** #include "stm32u5xx.h"
  29:Drivers/STM32U5xx_HAL_Driver/Inc/stm32u5xx_ll_exti.h **** 
  30:Drivers/STM32U5xx_HAL_Driver/Inc/stm32u5xx_ll_exti.h **** /** @addtogroup STM32U5xx_LL_Driver
  31:Drivers/STM32U5xx_HAL_Driver/Inc/stm32u5xx_ll_exti.h ****   * @{
  32:Drivers/STM32U5xx_HAL_Driver/Inc/stm32u5xx_ll_exti.h ****   */
  33:Drivers/STM32U5xx_HAL_Driver/Inc/stm32u5xx_ll_exti.h **** 
  34:Drivers/STM32U5xx_HAL_Driver/Inc/stm32u5xx_ll_exti.h **** #if defined (EXTI)
  35:Drivers/STM32U5xx_HAL_Driver/Inc/stm32u5xx_ll_exti.h **** 
  36:Drivers/STM32U5xx_HAL_Driver/Inc/stm32u5xx_ll_exti.h **** /** @defgroup EXTI_LL EXTI
  37:Drivers/STM32U5xx_HAL_Driver/Inc/stm32u5xx_ll_exti.h ****   * @{
  38:Drivers/STM32U5xx_HAL_Driver/Inc/stm32u5xx_ll_exti.h ****   */
  39:Drivers/STM32U5xx_HAL_Driver/Inc/stm32u5xx_ll_exti.h **** 
  40:Drivers/STM32U5xx_HAL_Driver/Inc/stm32u5xx_ll_exti.h **** /* Private types -------------------------------------------------------------*/
  41:Drivers/STM32U5xx_HAL_Driver/Inc/stm32u5xx_ll_exti.h **** /* Private variables ---------------------------------------------------------*/
  42:Drivers/STM32U5xx_HAL_Driver/Inc/stm32u5xx_ll_exti.h **** /* Private constants ---------------------------------------------------------*/
  43:Drivers/STM32U5xx_HAL_Driver/Inc/stm32u5xx_ll_exti.h **** #define LL_EXTI_REGISTER_PINPOS_SHFT        16U   /*!< Define used to shift pin position in EXTICR 
  44:Drivers/STM32U5xx_HAL_Driver/Inc/stm32u5xx_ll_exti.h **** 
  45:Drivers/STM32U5xx_HAL_Driver/Inc/stm32u5xx_ll_exti.h **** /* Private Macros ------------------------------------------------------------*/
  46:Drivers/STM32U5xx_HAL_Driver/Inc/stm32u5xx_ll_exti.h **** #if defined(USE_FULL_LL_DRIVER)
  47:Drivers/STM32U5xx_HAL_Driver/Inc/stm32u5xx_ll_exti.h **** /** @defgroup EXTI_LL_Private_Macros EXTI Private Macros
  48:Drivers/STM32U5xx_HAL_Driver/Inc/stm32u5xx_ll_exti.h ****   * @{
  49:Drivers/STM32U5xx_HAL_Driver/Inc/stm32u5xx_ll_exti.h ****   */
  50:Drivers/STM32U5xx_HAL_Driver/Inc/stm32u5xx_ll_exti.h **** /**
  51:Drivers/STM32U5xx_HAL_Driver/Inc/stm32u5xx_ll_exti.h ****   * @}
  52:Drivers/STM32U5xx_HAL_Driver/Inc/stm32u5xx_ll_exti.h ****   */
  53:Drivers/STM32U5xx_HAL_Driver/Inc/stm32u5xx_ll_exti.h **** #endif /*USE_FULL_LL_DRIVER*/
  54:Drivers/STM32U5xx_HAL_Driver/Inc/stm32u5xx_ll_exti.h **** /* Exported types ------------------------------------------------------------*/
ARM GAS  C:\Users\Yamaan\AppData\Local\Temp\ccnzxzH5.s 			page 7


  55:Drivers/STM32U5xx_HAL_Driver/Inc/stm32u5xx_ll_exti.h **** #if defined(USE_FULL_LL_DRIVER)
  56:Drivers/STM32U5xx_HAL_Driver/Inc/stm32u5xx_ll_exti.h **** /** @defgroup EXTI_LL_ES_INIT EXTI Exported Init structure
  57:Drivers/STM32U5xx_HAL_Driver/Inc/stm32u5xx_ll_exti.h ****   * @{
  58:Drivers/STM32U5xx_HAL_Driver/Inc/stm32u5xx_ll_exti.h ****   */
  59:Drivers/STM32U5xx_HAL_Driver/Inc/stm32u5xx_ll_exti.h **** typedef struct
  60:Drivers/STM32U5xx_HAL_Driver/Inc/stm32u5xx_ll_exti.h **** {
  61:Drivers/STM32U5xx_HAL_Driver/Inc/stm32u5xx_ll_exti.h **** 
  62:Drivers/STM32U5xx_HAL_Driver/Inc/stm32u5xx_ll_exti.h ****   uint32_t Line_0_31;           /*!< Specifies the EXTI lines to be enabled or disabled for Lines i
  63:Drivers/STM32U5xx_HAL_Driver/Inc/stm32u5xx_ll_exti.h ****                                      This parameter can be any combination of @ref EXTI_LL_EC_LINE 
  64:Drivers/STM32U5xx_HAL_Driver/Inc/stm32u5xx_ll_exti.h **** 
  65:Drivers/STM32U5xx_HAL_Driver/Inc/stm32u5xx_ll_exti.h ****   FunctionalState LineCommand;  /*!< Specifies the new state of the selected EXTI lines.
  66:Drivers/STM32U5xx_HAL_Driver/Inc/stm32u5xx_ll_exti.h ****                                      This parameter can be set either to ENABLE or DISABLE */
  67:Drivers/STM32U5xx_HAL_Driver/Inc/stm32u5xx_ll_exti.h **** 
  68:Drivers/STM32U5xx_HAL_Driver/Inc/stm32u5xx_ll_exti.h ****   uint8_t Mode;                 /*!< Specifies the mode for the EXTI lines.
  69:Drivers/STM32U5xx_HAL_Driver/Inc/stm32u5xx_ll_exti.h ****                                      This parameter can be a value of @ref EXTI_LL_EC_MODE. */
  70:Drivers/STM32U5xx_HAL_Driver/Inc/stm32u5xx_ll_exti.h **** 
  71:Drivers/STM32U5xx_HAL_Driver/Inc/stm32u5xx_ll_exti.h ****   uint8_t Trigger;              /*!< Specifies the trigger signal active edge for the EXTI lines.
  72:Drivers/STM32U5xx_HAL_Driver/Inc/stm32u5xx_ll_exti.h ****                                      This parameter can be a value of @ref EXTI_LL_EC_TRIGGER. */
  73:Drivers/STM32U5xx_HAL_Driver/Inc/stm32u5xx_ll_exti.h **** } LL_EXTI_InitTypeDef;
  74:Drivers/STM32U5xx_HAL_Driver/Inc/stm32u5xx_ll_exti.h **** 
  75:Drivers/STM32U5xx_HAL_Driver/Inc/stm32u5xx_ll_exti.h **** /**
  76:Drivers/STM32U5xx_HAL_Driver/Inc/stm32u5xx_ll_exti.h ****   * @}
  77:Drivers/STM32U5xx_HAL_Driver/Inc/stm32u5xx_ll_exti.h ****   */
  78:Drivers/STM32U5xx_HAL_Driver/Inc/stm32u5xx_ll_exti.h **** #endif /*USE_FULL_LL_DRIVER*/
  79:Drivers/STM32U5xx_HAL_Driver/Inc/stm32u5xx_ll_exti.h **** 
  80:Drivers/STM32U5xx_HAL_Driver/Inc/stm32u5xx_ll_exti.h **** /* Exported constants --------------------------------------------------------*/
  81:Drivers/STM32U5xx_HAL_Driver/Inc/stm32u5xx_ll_exti.h **** /** @defgroup EXTI_LL_Exported_Constants EXTI Exported Constants
  82:Drivers/STM32U5xx_HAL_Driver/Inc/stm32u5xx_ll_exti.h ****   * @{
  83:Drivers/STM32U5xx_HAL_Driver/Inc/stm32u5xx_ll_exti.h ****   */
  84:Drivers/STM32U5xx_HAL_Driver/Inc/stm32u5xx_ll_exti.h **** 
  85:Drivers/STM32U5xx_HAL_Driver/Inc/stm32u5xx_ll_exti.h **** /** @defgroup EXTI_LL_EC_LINE LINE
  86:Drivers/STM32U5xx_HAL_Driver/Inc/stm32u5xx_ll_exti.h ****   * @{
  87:Drivers/STM32U5xx_HAL_Driver/Inc/stm32u5xx_ll_exti.h ****   */
  88:Drivers/STM32U5xx_HAL_Driver/Inc/stm32u5xx_ll_exti.h **** #define LL_EXTI_LINE_0                 EXTI_IMR1_IM0           /*!< Extended line 0 */
  89:Drivers/STM32U5xx_HAL_Driver/Inc/stm32u5xx_ll_exti.h **** #define LL_EXTI_LINE_1                 EXTI_IMR1_IM1           /*!< Extended line 1 */
  90:Drivers/STM32U5xx_HAL_Driver/Inc/stm32u5xx_ll_exti.h **** #define LL_EXTI_LINE_2                 EXTI_IMR1_IM2           /*!< Extended line 2 */
  91:Drivers/STM32U5xx_HAL_Driver/Inc/stm32u5xx_ll_exti.h **** #define LL_EXTI_LINE_3                 EXTI_IMR1_IM3           /*!< Extended line 3 */
  92:Drivers/STM32U5xx_HAL_Driver/Inc/stm32u5xx_ll_exti.h **** #define LL_EXTI_LINE_4                 EXTI_IMR1_IM4           /*!< Extended line 4 */
  93:Drivers/STM32U5xx_HAL_Driver/Inc/stm32u5xx_ll_exti.h **** #define LL_EXTI_LINE_5                 EXTI_IMR1_IM5           /*!< Extended line 5 */
  94:Drivers/STM32U5xx_HAL_Driver/Inc/stm32u5xx_ll_exti.h **** #define LL_EXTI_LINE_6                 EXTI_IMR1_IM6           /*!< Extended line 6 */
  95:Drivers/STM32U5xx_HAL_Driver/Inc/stm32u5xx_ll_exti.h **** #define LL_EXTI_LINE_7                 EXTI_IMR1_IM7           /*!< Extended line 7 */
  96:Drivers/STM32U5xx_HAL_Driver/Inc/stm32u5xx_ll_exti.h **** #define LL_EXTI_LINE_8                 EXTI_IMR1_IM8           /*!< Extended line 8 */
  97:Drivers/STM32U5xx_HAL_Driver/Inc/stm32u5xx_ll_exti.h **** #define LL_EXTI_LINE_9                 EXTI_IMR1_IM9           /*!< Extended line 9 */
  98:Drivers/STM32U5xx_HAL_Driver/Inc/stm32u5xx_ll_exti.h **** #define LL_EXTI_LINE_10               EXTI_IMR1_IM10          /*!< Extended line 10 */
  99:Drivers/STM32U5xx_HAL_Driver/Inc/stm32u5xx_ll_exti.h **** #define LL_EXTI_LINE_11               EXTI_IMR1_IM11          /*!< Extended line 11 */
 100:Drivers/STM32U5xx_HAL_Driver/Inc/stm32u5xx_ll_exti.h **** #define LL_EXTI_LINE_12               EXTI_IMR1_IM12          /*!< Extended line 12 */
 101:Drivers/STM32U5xx_HAL_Driver/Inc/stm32u5xx_ll_exti.h **** #define LL_EXTI_LINE_13               EXTI_IMR1_IM13          /*!< Extended line 13 */
 102:Drivers/STM32U5xx_HAL_Driver/Inc/stm32u5xx_ll_exti.h **** #define LL_EXTI_LINE_14               EXTI_IMR1_IM14          /*!< Extended line 14 */
 103:Drivers/STM32U5xx_HAL_Driver/Inc/stm32u5xx_ll_exti.h **** #define LL_EXTI_LINE_15               EXTI_IMR1_IM15          /*!< Extended line 15 */
 104:Drivers/STM32U5xx_HAL_Driver/Inc/stm32u5xx_ll_exti.h **** #define LL_EXTI_LINE_16               EXTI_IMR1_IM16          /*!< Extended line 16 */
 105:Drivers/STM32U5xx_HAL_Driver/Inc/stm32u5xx_ll_exti.h **** #define LL_EXTI_LINE_17               EXTI_IMR1_IM17          /*!< Extended line 17 */
 106:Drivers/STM32U5xx_HAL_Driver/Inc/stm32u5xx_ll_exti.h **** #define LL_EXTI_LINE_18               EXTI_IMR1_IM18          /*!< Extended line 18 */
 107:Drivers/STM32U5xx_HAL_Driver/Inc/stm32u5xx_ll_exti.h **** #define LL_EXTI_LINE_19               EXTI_IMR1_IM19          /*!< Extended line 19 */
 108:Drivers/STM32U5xx_HAL_Driver/Inc/stm32u5xx_ll_exti.h **** #define LL_EXTI_LINE_20               EXTI_IMR1_IM20          /*!< Extended line 20 */
 109:Drivers/STM32U5xx_HAL_Driver/Inc/stm32u5xx_ll_exti.h **** #define LL_EXTI_LINE_21               EXTI_IMR1_IM21          /*!< Extended line 21 */
 110:Drivers/STM32U5xx_HAL_Driver/Inc/stm32u5xx_ll_exti.h **** #define LL_EXTI_LINE_22               EXTI_IMR1_IM22          /*!< Extended line 22 */
 111:Drivers/STM32U5xx_HAL_Driver/Inc/stm32u5xx_ll_exti.h **** #define LL_EXTI_LINE_ALL_0_31         0x007FFFFFU             /*!< ALL Extended line */
ARM GAS  C:\Users\Yamaan\AppData\Local\Temp\ccnzxzH5.s 			page 8


 112:Drivers/STM32U5xx_HAL_Driver/Inc/stm32u5xx_ll_exti.h **** 
 113:Drivers/STM32U5xx_HAL_Driver/Inc/stm32u5xx_ll_exti.h **** #if defined(USE_FULL_LL_DRIVER)
 114:Drivers/STM32U5xx_HAL_Driver/Inc/stm32u5xx_ll_exti.h **** #define LL_EXTI_LINE_NONE              0x00000000U             /*!< None Extended line */
 115:Drivers/STM32U5xx_HAL_Driver/Inc/stm32u5xx_ll_exti.h **** #endif /*USE_FULL_LL_DRIVER*/
 116:Drivers/STM32U5xx_HAL_Driver/Inc/stm32u5xx_ll_exti.h **** 
 117:Drivers/STM32U5xx_HAL_Driver/Inc/stm32u5xx_ll_exti.h **** /** @defgroup SYSTEM_LL_EC_EXTI_PORT EXTI EXTI PORT
 118:Drivers/STM32U5xx_HAL_Driver/Inc/stm32u5xx_ll_exti.h ****   * @{
 119:Drivers/STM32U5xx_HAL_Driver/Inc/stm32u5xx_ll_exti.h ****   */
 120:Drivers/STM32U5xx_HAL_Driver/Inc/stm32u5xx_ll_exti.h **** #define LL_EXTI_EXTI_PORTA               0U                                          /*!< EXTI PORT
 121:Drivers/STM32U5xx_HAL_Driver/Inc/stm32u5xx_ll_exti.h **** #define LL_EXTI_EXTI_PORTB               EXTI_EXTICR1_EXTI0_0                        /*!< EXTI PORT
 122:Drivers/STM32U5xx_HAL_Driver/Inc/stm32u5xx_ll_exti.h **** #define LL_EXTI_EXTI_PORTC               EXTI_EXTICR1_EXTI0_1                        /*!< EXTI PORT
 123:Drivers/STM32U5xx_HAL_Driver/Inc/stm32u5xx_ll_exti.h **** #define LL_EXTI_EXTI_PORTD               (EXTI_EXTICR1_EXTI0_1|EXTI_EXTICR1_EXTI0_0) /*!< EXTI PORT
 124:Drivers/STM32U5xx_HAL_Driver/Inc/stm32u5xx_ll_exti.h **** #define LL_EXTI_EXTI_PORTE               EXTI_EXTICR1_EXTI0_2                        /*!< EXTI PORT
 125:Drivers/STM32U5xx_HAL_Driver/Inc/stm32u5xx_ll_exti.h **** #define LL_EXTI_EXTI_PORTF               (EXTI_EXTICR1_EXTI0_2|EXTI_EXTICR1_EXTI0_0) /*!< EXTI PORT
 126:Drivers/STM32U5xx_HAL_Driver/Inc/stm32u5xx_ll_exti.h **** #define LL_EXTI_EXTI_PORTG               (EXTI_EXTICR1_EXTI0_2|EXTI_EXTICR1_EXTI0_1) /*!< EXTI PORT
 127:Drivers/STM32U5xx_HAL_Driver/Inc/stm32u5xx_ll_exti.h **** #define LL_EXTI_EXTI_PORTH               (EXTI_EXTICR1_EXTI0_2|EXTI_EXTICR1_EXTI0_1|EXTI_EXTICR1_EX
 128:Drivers/STM32U5xx_HAL_Driver/Inc/stm32u5xx_ll_exti.h **** #define LL_EXTI_EXTI_PORTI               EXTI_EXTICR1_EXTI0_3 /*!< EXTI PORT I */
 129:Drivers/STM32U5xx_HAL_Driver/Inc/stm32u5xx_ll_exti.h **** #if defined(GPIOJ)
 130:Drivers/STM32U5xx_HAL_Driver/Inc/stm32u5xx_ll_exti.h **** #define LL_EXTI_EXTI_PORTJ               (EXTI_EXTICR1_EXTI0_3 | EXTI_EXTICR1_EXTI0_0) /*!< EXTI PO
 131:Drivers/STM32U5xx_HAL_Driver/Inc/stm32u5xx_ll_exti.h **** #endif /* GPIOJ */
 132:Drivers/STM32U5xx_HAL_Driver/Inc/stm32u5xx_ll_exti.h **** 
 133:Drivers/STM32U5xx_HAL_Driver/Inc/stm32u5xx_ll_exti.h **** /**
 134:Drivers/STM32U5xx_HAL_Driver/Inc/stm32u5xx_ll_exti.h ****   * @}
 135:Drivers/STM32U5xx_HAL_Driver/Inc/stm32u5xx_ll_exti.h ****   */
 136:Drivers/STM32U5xx_HAL_Driver/Inc/stm32u5xx_ll_exti.h **** 
 137:Drivers/STM32U5xx_HAL_Driver/Inc/stm32u5xx_ll_exti.h **** /** @defgroup SYSTEM_LL_EC_EXTI_LINE EXTI EXTI LINE
 138:Drivers/STM32U5xx_HAL_Driver/Inc/stm32u5xx_ll_exti.h ****   * @{
 139:Drivers/STM32U5xx_HAL_Driver/Inc/stm32u5xx_ll_exti.h ****   */
 140:Drivers/STM32U5xx_HAL_Driver/Inc/stm32u5xx_ll_exti.h **** #define LL_EXTI_EXTI_LINE0               ((0U  << LL_EXTI_REGISTER_PINPOS_SHFT) | 0U)  /*!< EXTI_PO
 141:Drivers/STM32U5xx_HAL_Driver/Inc/stm32u5xx_ll_exti.h **** #define LL_EXTI_EXTI_LINE1               ((8U  << LL_EXTI_REGISTER_PINPOS_SHFT) | 0U)  /*!< EXTI_PO
 142:Drivers/STM32U5xx_HAL_Driver/Inc/stm32u5xx_ll_exti.h **** #define LL_EXTI_EXTI_LINE2               ((16U << LL_EXTI_REGISTER_PINPOS_SHFT) | 0U)  /*!< EXTI_PO
 143:Drivers/STM32U5xx_HAL_Driver/Inc/stm32u5xx_ll_exti.h **** #define LL_EXTI_EXTI_LINE3               ((24U << LL_EXTI_REGISTER_PINPOS_SHFT) | 0U)  /*!< EXTI_PO
 144:Drivers/STM32U5xx_HAL_Driver/Inc/stm32u5xx_ll_exti.h **** #define LL_EXTI_EXTI_LINE4               ((0U  << LL_EXTI_REGISTER_PINPOS_SHFT) | 1U)  /*!< EXTI_PO
 145:Drivers/STM32U5xx_HAL_Driver/Inc/stm32u5xx_ll_exti.h **** #define LL_EXTI_EXTI_LINE5               ((8U  << LL_EXTI_REGISTER_PINPOS_SHFT) | 1U)  /*!< EXTI_PO
 146:Drivers/STM32U5xx_HAL_Driver/Inc/stm32u5xx_ll_exti.h **** #define LL_EXTI_EXTI_LINE6               ((16U << LL_EXTI_REGISTER_PINPOS_SHFT) | 1U)  /*!< EXTI_PO
 147:Drivers/STM32U5xx_HAL_Driver/Inc/stm32u5xx_ll_exti.h **** #define LL_EXTI_EXTI_LINE7               ((24U << LL_EXTI_REGISTER_PINPOS_SHFT) | 1U)  /*!< EXTI_PO
 148:Drivers/STM32U5xx_HAL_Driver/Inc/stm32u5xx_ll_exti.h **** #define LL_EXTI_EXTI_LINE8               ((0U  << LL_EXTI_REGISTER_PINPOS_SHFT) | 2U)  /*!< EXTI_PO
 149:Drivers/STM32U5xx_HAL_Driver/Inc/stm32u5xx_ll_exti.h **** #define LL_EXTI_EXTI_LINE9               ((8U  << LL_EXTI_REGISTER_PINPOS_SHFT) | 2U)  /*!< EXTI_PO
 150:Drivers/STM32U5xx_HAL_Driver/Inc/stm32u5xx_ll_exti.h **** #define LL_EXTI_EXTI_LINE10              ((16U << LL_EXTI_REGISTER_PINPOS_SHFT) | 2U)  /*!< EXTI_PO
 151:Drivers/STM32U5xx_HAL_Driver/Inc/stm32u5xx_ll_exti.h **** #define LL_EXTI_EXTI_LINE11              ((24U << LL_EXTI_REGISTER_PINPOS_SHFT) | 2U)  /*!< EXTI_PO
 152:Drivers/STM32U5xx_HAL_Driver/Inc/stm32u5xx_ll_exti.h **** #define LL_EXTI_EXTI_LINE12              ((0U  << LL_EXTI_REGISTER_PINPOS_SHFT) | 3U)  /*!< EXTI_PO
 153:Drivers/STM32U5xx_HAL_Driver/Inc/stm32u5xx_ll_exti.h **** #define LL_EXTI_EXTI_LINE13              ((8U  << LL_EXTI_REGISTER_PINPOS_SHFT) | 3U)  /*!< EXTI_PO
 154:Drivers/STM32U5xx_HAL_Driver/Inc/stm32u5xx_ll_exti.h **** #define LL_EXTI_EXTI_LINE14              ((16U << LL_EXTI_REGISTER_PINPOS_SHFT) | 3U)  /*!< EXTI_PO
 155:Drivers/STM32U5xx_HAL_Driver/Inc/stm32u5xx_ll_exti.h **** #define LL_EXTI_EXTI_LINE15              ((24U << LL_EXTI_REGISTER_PINPOS_SHFT) | 3U)  /*!< EXTI_PO
 156:Drivers/STM32U5xx_HAL_Driver/Inc/stm32u5xx_ll_exti.h **** /**
 157:Drivers/STM32U5xx_HAL_Driver/Inc/stm32u5xx_ll_exti.h ****   * @}
 158:Drivers/STM32U5xx_HAL_Driver/Inc/stm32u5xx_ll_exti.h ****   */
 159:Drivers/STM32U5xx_HAL_Driver/Inc/stm32u5xx_ll_exti.h **** /**
 160:Drivers/STM32U5xx_HAL_Driver/Inc/stm32u5xx_ll_exti.h ****   * @}
 161:Drivers/STM32U5xx_HAL_Driver/Inc/stm32u5xx_ll_exti.h ****   */
 162:Drivers/STM32U5xx_HAL_Driver/Inc/stm32u5xx_ll_exti.h **** #if defined(USE_FULL_LL_DRIVER)
 163:Drivers/STM32U5xx_HAL_Driver/Inc/stm32u5xx_ll_exti.h **** 
 164:Drivers/STM32U5xx_HAL_Driver/Inc/stm32u5xx_ll_exti.h **** /** @defgroup EXTI_LL_EC_MODE Mode
 165:Drivers/STM32U5xx_HAL_Driver/Inc/stm32u5xx_ll_exti.h ****   * @{
 166:Drivers/STM32U5xx_HAL_Driver/Inc/stm32u5xx_ll_exti.h ****   */
 167:Drivers/STM32U5xx_HAL_Driver/Inc/stm32u5xx_ll_exti.h **** #define LL_EXTI_MODE_IT                 ((uint8_t)0x00U) /*!< Interrupt Mode */
 168:Drivers/STM32U5xx_HAL_Driver/Inc/stm32u5xx_ll_exti.h **** #define LL_EXTI_MODE_EVENT              ((uint8_t)0x01U) /*!< Event Mode */
ARM GAS  C:\Users\Yamaan\AppData\Local\Temp\ccnzxzH5.s 			page 9


 169:Drivers/STM32U5xx_HAL_Driver/Inc/stm32u5xx_ll_exti.h **** #define LL_EXTI_MODE_IT_EVENT           ((uint8_t)0x02U) /*!< Interrupt & Event Mode */
 170:Drivers/STM32U5xx_HAL_Driver/Inc/stm32u5xx_ll_exti.h **** /**
 171:Drivers/STM32U5xx_HAL_Driver/Inc/stm32u5xx_ll_exti.h ****   * @}
 172:Drivers/STM32U5xx_HAL_Driver/Inc/stm32u5xx_ll_exti.h ****   */
 173:Drivers/STM32U5xx_HAL_Driver/Inc/stm32u5xx_ll_exti.h **** 
 174:Drivers/STM32U5xx_HAL_Driver/Inc/stm32u5xx_ll_exti.h **** /** @defgroup EXTI_LL_EC_TRIGGER Edge Trigger
 175:Drivers/STM32U5xx_HAL_Driver/Inc/stm32u5xx_ll_exti.h ****   * @{
 176:Drivers/STM32U5xx_HAL_Driver/Inc/stm32u5xx_ll_exti.h ****   */
 177:Drivers/STM32U5xx_HAL_Driver/Inc/stm32u5xx_ll_exti.h **** #define LL_EXTI_TRIGGER_NONE            ((uint8_t)0x00U) /*!< No Trigger Mode */
 178:Drivers/STM32U5xx_HAL_Driver/Inc/stm32u5xx_ll_exti.h **** #define LL_EXTI_TRIGGER_RISING          ((uint8_t)0x01U) /*!< Trigger Rising Mode */
 179:Drivers/STM32U5xx_HAL_Driver/Inc/stm32u5xx_ll_exti.h **** #define LL_EXTI_TRIGGER_FALLING         ((uint8_t)0x02U) /*!< Trigger Falling Mode */
 180:Drivers/STM32U5xx_HAL_Driver/Inc/stm32u5xx_ll_exti.h **** #define LL_EXTI_TRIGGER_RISING_FALLING  ((uint8_t)0x03U) /*!< Trigger Rising & Falling Mode */
 181:Drivers/STM32U5xx_HAL_Driver/Inc/stm32u5xx_ll_exti.h **** 
 182:Drivers/STM32U5xx_HAL_Driver/Inc/stm32u5xx_ll_exti.h **** /**
 183:Drivers/STM32U5xx_HAL_Driver/Inc/stm32u5xx_ll_exti.h ****   * @}
 184:Drivers/STM32U5xx_HAL_Driver/Inc/stm32u5xx_ll_exti.h ****   */
 185:Drivers/STM32U5xx_HAL_Driver/Inc/stm32u5xx_ll_exti.h **** 
 186:Drivers/STM32U5xx_HAL_Driver/Inc/stm32u5xx_ll_exti.h **** 
 187:Drivers/STM32U5xx_HAL_Driver/Inc/stm32u5xx_ll_exti.h **** #endif /*USE_FULL_LL_DRIVER*/
 188:Drivers/STM32U5xx_HAL_Driver/Inc/stm32u5xx_ll_exti.h **** 
 189:Drivers/STM32U5xx_HAL_Driver/Inc/stm32u5xx_ll_exti.h **** 
 190:Drivers/STM32U5xx_HAL_Driver/Inc/stm32u5xx_ll_exti.h **** /**
 191:Drivers/STM32U5xx_HAL_Driver/Inc/stm32u5xx_ll_exti.h ****   * @}
 192:Drivers/STM32U5xx_HAL_Driver/Inc/stm32u5xx_ll_exti.h ****   */
 193:Drivers/STM32U5xx_HAL_Driver/Inc/stm32u5xx_ll_exti.h **** 
 194:Drivers/STM32U5xx_HAL_Driver/Inc/stm32u5xx_ll_exti.h **** /* Exported macro ------------------------------------------------------------*/
 195:Drivers/STM32U5xx_HAL_Driver/Inc/stm32u5xx_ll_exti.h **** /** @defgroup EXTI_LL_Exported_Macros EXTI Exported Macros
 196:Drivers/STM32U5xx_HAL_Driver/Inc/stm32u5xx_ll_exti.h ****   * @{
 197:Drivers/STM32U5xx_HAL_Driver/Inc/stm32u5xx_ll_exti.h ****   */
 198:Drivers/STM32U5xx_HAL_Driver/Inc/stm32u5xx_ll_exti.h **** 
 199:Drivers/STM32U5xx_HAL_Driver/Inc/stm32u5xx_ll_exti.h **** /** @defgroup EXTI_LL_EM_WRITE_READ Common Write and read registers Macros
 200:Drivers/STM32U5xx_HAL_Driver/Inc/stm32u5xx_ll_exti.h ****   * @{
 201:Drivers/STM32U5xx_HAL_Driver/Inc/stm32u5xx_ll_exti.h ****   */
 202:Drivers/STM32U5xx_HAL_Driver/Inc/stm32u5xx_ll_exti.h **** 
 203:Drivers/STM32U5xx_HAL_Driver/Inc/stm32u5xx_ll_exti.h **** /**
 204:Drivers/STM32U5xx_HAL_Driver/Inc/stm32u5xx_ll_exti.h ****   * @brief  Write a value in EXTI register
 205:Drivers/STM32U5xx_HAL_Driver/Inc/stm32u5xx_ll_exti.h ****   * @param  __REG__ Register to be written
 206:Drivers/STM32U5xx_HAL_Driver/Inc/stm32u5xx_ll_exti.h ****   * @param  __VALUE__ Value to be written in the register
 207:Drivers/STM32U5xx_HAL_Driver/Inc/stm32u5xx_ll_exti.h ****   * @retval None
 208:Drivers/STM32U5xx_HAL_Driver/Inc/stm32u5xx_ll_exti.h ****   */
 209:Drivers/STM32U5xx_HAL_Driver/Inc/stm32u5xx_ll_exti.h **** #define LL_EXTI_WriteReg(__REG__, __VALUE__) WRITE_REG(EXTI->__REG__, (__VALUE__))
 210:Drivers/STM32U5xx_HAL_Driver/Inc/stm32u5xx_ll_exti.h **** 
 211:Drivers/STM32U5xx_HAL_Driver/Inc/stm32u5xx_ll_exti.h **** /**
 212:Drivers/STM32U5xx_HAL_Driver/Inc/stm32u5xx_ll_exti.h ****   * @brief  Read a value in EXTI register
 213:Drivers/STM32U5xx_HAL_Driver/Inc/stm32u5xx_ll_exti.h ****   * @param  __REG__ Register to be read
 214:Drivers/STM32U5xx_HAL_Driver/Inc/stm32u5xx_ll_exti.h ****   * @retval Register value
 215:Drivers/STM32U5xx_HAL_Driver/Inc/stm32u5xx_ll_exti.h ****   */
 216:Drivers/STM32U5xx_HAL_Driver/Inc/stm32u5xx_ll_exti.h **** #define LL_EXTI_ReadReg(__REG__) READ_REG(EXTI->__REG__)
 217:Drivers/STM32U5xx_HAL_Driver/Inc/stm32u5xx_ll_exti.h **** /**
 218:Drivers/STM32U5xx_HAL_Driver/Inc/stm32u5xx_ll_exti.h ****   * @}
 219:Drivers/STM32U5xx_HAL_Driver/Inc/stm32u5xx_ll_exti.h ****   */
 220:Drivers/STM32U5xx_HAL_Driver/Inc/stm32u5xx_ll_exti.h **** 
 221:Drivers/STM32U5xx_HAL_Driver/Inc/stm32u5xx_ll_exti.h **** 
 222:Drivers/STM32U5xx_HAL_Driver/Inc/stm32u5xx_ll_exti.h **** /**
 223:Drivers/STM32U5xx_HAL_Driver/Inc/stm32u5xx_ll_exti.h ****   * @}
 224:Drivers/STM32U5xx_HAL_Driver/Inc/stm32u5xx_ll_exti.h ****   */
 225:Drivers/STM32U5xx_HAL_Driver/Inc/stm32u5xx_ll_exti.h **** 
ARM GAS  C:\Users\Yamaan\AppData\Local\Temp\ccnzxzH5.s 			page 10


 226:Drivers/STM32U5xx_HAL_Driver/Inc/stm32u5xx_ll_exti.h **** 
 227:Drivers/STM32U5xx_HAL_Driver/Inc/stm32u5xx_ll_exti.h **** 
 228:Drivers/STM32U5xx_HAL_Driver/Inc/stm32u5xx_ll_exti.h **** /* Exported functions --------------------------------------------------------*/
 229:Drivers/STM32U5xx_HAL_Driver/Inc/stm32u5xx_ll_exti.h **** /** @defgroup EXTI_LL_Exported_Functions EXTI Exported Functions
 230:Drivers/STM32U5xx_HAL_Driver/Inc/stm32u5xx_ll_exti.h ****   * @{
 231:Drivers/STM32U5xx_HAL_Driver/Inc/stm32u5xx_ll_exti.h ****   */
 232:Drivers/STM32U5xx_HAL_Driver/Inc/stm32u5xx_ll_exti.h **** /** @defgroup EXTI_LL_EF_IT_Management IT_Management
 233:Drivers/STM32U5xx_HAL_Driver/Inc/stm32u5xx_ll_exti.h ****   * @{
 234:Drivers/STM32U5xx_HAL_Driver/Inc/stm32u5xx_ll_exti.h ****   */
 235:Drivers/STM32U5xx_HAL_Driver/Inc/stm32u5xx_ll_exti.h **** 
 236:Drivers/STM32U5xx_HAL_Driver/Inc/stm32u5xx_ll_exti.h **** /**
 237:Drivers/STM32U5xx_HAL_Driver/Inc/stm32u5xx_ll_exti.h ****   * @brief  Enable ExtiLine Interrupt request for Lines in range 0 to 31
 238:Drivers/STM32U5xx_HAL_Driver/Inc/stm32u5xx_ll_exti.h ****   * @note The reset value for the direct or internal lines (see RM)
 239:Drivers/STM32U5xx_HAL_Driver/Inc/stm32u5xx_ll_exti.h ****   *       is set to 1 in order to enable the interrupt by default.
 240:Drivers/STM32U5xx_HAL_Driver/Inc/stm32u5xx_ll_exti.h ****   *       Bits are set automatically at Power on.
 241:Drivers/STM32U5xx_HAL_Driver/Inc/stm32u5xx_ll_exti.h ****   * @rmtoll IMR1         IMx           LL_EXTI_EnableIT_0_31
 242:Drivers/STM32U5xx_HAL_Driver/Inc/stm32u5xx_ll_exti.h ****   * @param  ExtiLine This parameter can be one of the following values:
 243:Drivers/STM32U5xx_HAL_Driver/Inc/stm32u5xx_ll_exti.h ****   *         @arg @ref LL_EXTI_LINE_0
 244:Drivers/STM32U5xx_HAL_Driver/Inc/stm32u5xx_ll_exti.h ****   *         @arg @ref LL_EXTI_LINE_1
 245:Drivers/STM32U5xx_HAL_Driver/Inc/stm32u5xx_ll_exti.h ****   *         @arg @ref LL_EXTI_LINE_2
 246:Drivers/STM32U5xx_HAL_Driver/Inc/stm32u5xx_ll_exti.h ****   *         @arg @ref LL_EXTI_LINE_3
 247:Drivers/STM32U5xx_HAL_Driver/Inc/stm32u5xx_ll_exti.h ****   *         @arg @ref LL_EXTI_LINE_4
 248:Drivers/STM32U5xx_HAL_Driver/Inc/stm32u5xx_ll_exti.h ****   *         @arg @ref LL_EXTI_LINE_5
 249:Drivers/STM32U5xx_HAL_Driver/Inc/stm32u5xx_ll_exti.h ****   *         @arg @ref LL_EXTI_LINE_6
 250:Drivers/STM32U5xx_HAL_Driver/Inc/stm32u5xx_ll_exti.h ****   *         @arg @ref LL_EXTI_LINE_7
 251:Drivers/STM32U5xx_HAL_Driver/Inc/stm32u5xx_ll_exti.h ****   *         @arg @ref LL_EXTI_LINE_8
 252:Drivers/STM32U5xx_HAL_Driver/Inc/stm32u5xx_ll_exti.h ****   *         @arg @ref LL_EXTI_LINE_9
 253:Drivers/STM32U5xx_HAL_Driver/Inc/stm32u5xx_ll_exti.h ****   *         @arg @ref LL_EXTI_LINE_10
 254:Drivers/STM32U5xx_HAL_Driver/Inc/stm32u5xx_ll_exti.h ****   *         @arg @ref LL_EXTI_LINE_11
 255:Drivers/STM32U5xx_HAL_Driver/Inc/stm32u5xx_ll_exti.h ****   *         @arg @ref LL_EXTI_LINE_12
 256:Drivers/STM32U5xx_HAL_Driver/Inc/stm32u5xx_ll_exti.h ****   *         @arg @ref LL_EXTI_LINE_13
 257:Drivers/STM32U5xx_HAL_Driver/Inc/stm32u5xx_ll_exti.h ****   *         @arg @ref LL_EXTI_LINE_14
 258:Drivers/STM32U5xx_HAL_Driver/Inc/stm32u5xx_ll_exti.h ****   *         @arg @ref LL_EXTI_LINE_15
 259:Drivers/STM32U5xx_HAL_Driver/Inc/stm32u5xx_ll_exti.h ****   *         @arg @ref LL_EXTI_LINE_16
 260:Drivers/STM32U5xx_HAL_Driver/Inc/stm32u5xx_ll_exti.h ****   *         @arg @ref LL_EXTI_LINE_17
 261:Drivers/STM32U5xx_HAL_Driver/Inc/stm32u5xx_ll_exti.h ****   *         @arg @ref LL_EXTI_LINE_18
 262:Drivers/STM32U5xx_HAL_Driver/Inc/stm32u5xx_ll_exti.h ****   *         @arg @ref LL_EXTI_LINE_19
 263:Drivers/STM32U5xx_HAL_Driver/Inc/stm32u5xx_ll_exti.h ****   *         @arg @ref LL_EXTI_LINE_20
 264:Drivers/STM32U5xx_HAL_Driver/Inc/stm32u5xx_ll_exti.h ****   *         @arg @ref LL_EXTI_LINE_21
 265:Drivers/STM32U5xx_HAL_Driver/Inc/stm32u5xx_ll_exti.h ****   *         @arg @ref LL_EXTI_LINE_22
 266:Drivers/STM32U5xx_HAL_Driver/Inc/stm32u5xx_ll_exti.h ****   *         @arg @ref LL_EXTI_LINE_ALL_0_31
 267:Drivers/STM32U5xx_HAL_Driver/Inc/stm32u5xx_ll_exti.h ****   * @note   Please check each device line mapping for EXTI Line availability
 268:Drivers/STM32U5xx_HAL_Driver/Inc/stm32u5xx_ll_exti.h ****   * @retval None
 269:Drivers/STM32U5xx_HAL_Driver/Inc/stm32u5xx_ll_exti.h ****   */
 270:Drivers/STM32U5xx_HAL_Driver/Inc/stm32u5xx_ll_exti.h **** __STATIC_INLINE void LL_EXTI_EnableIT_0_31(uint32_t ExtiLine)
 271:Drivers/STM32U5xx_HAL_Driver/Inc/stm32u5xx_ll_exti.h **** {
 272:Drivers/STM32U5xx_HAL_Driver/Inc/stm32u5xx_ll_exti.h ****   SET_BIT(EXTI->IMR1, ExtiLine);
 273:Drivers/STM32U5xx_HAL_Driver/Inc/stm32u5xx_ll_exti.h **** }
 274:Drivers/STM32U5xx_HAL_Driver/Inc/stm32u5xx_ll_exti.h **** 
 275:Drivers/STM32U5xx_HAL_Driver/Inc/stm32u5xx_ll_exti.h **** /**
 276:Drivers/STM32U5xx_HAL_Driver/Inc/stm32u5xx_ll_exti.h ****   * @brief  Disable ExtiLine Interrupt request for Lines in range 0 to 31
 277:Drivers/STM32U5xx_HAL_Driver/Inc/stm32u5xx_ll_exti.h ****   * @note The reset value for the direct or internal lines (see RM)
 278:Drivers/STM32U5xx_HAL_Driver/Inc/stm32u5xx_ll_exti.h ****   *       is set to 1 in order to enable the interrupt by default.
 279:Drivers/STM32U5xx_HAL_Driver/Inc/stm32u5xx_ll_exti.h ****   *       Bits are set automatically at Power on.
 280:Drivers/STM32U5xx_HAL_Driver/Inc/stm32u5xx_ll_exti.h ****   * @rmtoll IMR1         IMx           LL_EXTI_DisableIT_0_31
 281:Drivers/STM32U5xx_HAL_Driver/Inc/stm32u5xx_ll_exti.h ****   * @param  ExtiLine This parameter can be one of the following values:
 282:Drivers/STM32U5xx_HAL_Driver/Inc/stm32u5xx_ll_exti.h ****   *         @arg @ref LL_EXTI_LINE_0
ARM GAS  C:\Users\Yamaan\AppData\Local\Temp\ccnzxzH5.s 			page 11


 283:Drivers/STM32U5xx_HAL_Driver/Inc/stm32u5xx_ll_exti.h ****   *         @arg @ref LL_EXTI_LINE_1
 284:Drivers/STM32U5xx_HAL_Driver/Inc/stm32u5xx_ll_exti.h ****   *         @arg @ref LL_EXTI_LINE_2
 285:Drivers/STM32U5xx_HAL_Driver/Inc/stm32u5xx_ll_exti.h ****   *         @arg @ref LL_EXTI_LINE_3
 286:Drivers/STM32U5xx_HAL_Driver/Inc/stm32u5xx_ll_exti.h ****   *         @arg @ref LL_EXTI_LINE_4
 287:Drivers/STM32U5xx_HAL_Driver/Inc/stm32u5xx_ll_exti.h ****   *         @arg @ref LL_EXTI_LINE_5
 288:Drivers/STM32U5xx_HAL_Driver/Inc/stm32u5xx_ll_exti.h ****   *         @arg @ref LL_EXTI_LINE_6
 289:Drivers/STM32U5xx_HAL_Driver/Inc/stm32u5xx_ll_exti.h ****   *         @arg @ref LL_EXTI_LINE_7
 290:Drivers/STM32U5xx_HAL_Driver/Inc/stm32u5xx_ll_exti.h ****   *         @arg @ref LL_EXTI_LINE_8
 291:Drivers/STM32U5xx_HAL_Driver/Inc/stm32u5xx_ll_exti.h ****   *         @arg @ref LL_EXTI_LINE_9
 292:Drivers/STM32U5xx_HAL_Driver/Inc/stm32u5xx_ll_exti.h ****   *         @arg @ref LL_EXTI_LINE_10
 293:Drivers/STM32U5xx_HAL_Driver/Inc/stm32u5xx_ll_exti.h ****   *         @arg @ref LL_EXTI_LINE_11
 294:Drivers/STM32U5xx_HAL_Driver/Inc/stm32u5xx_ll_exti.h ****   *         @arg @ref LL_EXTI_LINE_12
 295:Drivers/STM32U5xx_HAL_Driver/Inc/stm32u5xx_ll_exti.h ****   *         @arg @ref LL_EXTI_LINE_13
 296:Drivers/STM32U5xx_HAL_Driver/Inc/stm32u5xx_ll_exti.h ****   *         @arg @ref LL_EXTI_LINE_14
 297:Drivers/STM32U5xx_HAL_Driver/Inc/stm32u5xx_ll_exti.h ****   *         @arg @ref LL_EXTI_LINE_15
 298:Drivers/STM32U5xx_HAL_Driver/Inc/stm32u5xx_ll_exti.h ****   *         @arg @ref LL_EXTI_LINE_16
 299:Drivers/STM32U5xx_HAL_Driver/Inc/stm32u5xx_ll_exti.h ****   *         @arg @ref LL_EXTI_LINE_17
 300:Drivers/STM32U5xx_HAL_Driver/Inc/stm32u5xx_ll_exti.h ****   *         @arg @ref LL_EXTI_LINE_18
 301:Drivers/STM32U5xx_HAL_Driver/Inc/stm32u5xx_ll_exti.h ****   *         @arg @ref LL_EXTI_LINE_19
 302:Drivers/STM32U5xx_HAL_Driver/Inc/stm32u5xx_ll_exti.h ****   *         @arg @ref LL_EXTI_LINE_20
 303:Drivers/STM32U5xx_HAL_Driver/Inc/stm32u5xx_ll_exti.h ****   *         @arg @ref LL_EXTI_LINE_21
 304:Drivers/STM32U5xx_HAL_Driver/Inc/stm32u5xx_ll_exti.h ****   *         @arg @ref LL_EXTI_LINE_22
 305:Drivers/STM32U5xx_HAL_Driver/Inc/stm32u5xx_ll_exti.h ****   *         @arg @ref LL_EXTI_LINE_ALL_0_31
 306:Drivers/STM32U5xx_HAL_Driver/Inc/stm32u5xx_ll_exti.h ****   * @note   Please check each device line mapping for EXTI Line availability
 307:Drivers/STM32U5xx_HAL_Driver/Inc/stm32u5xx_ll_exti.h ****   * @retval None
 308:Drivers/STM32U5xx_HAL_Driver/Inc/stm32u5xx_ll_exti.h ****   */
 309:Drivers/STM32U5xx_HAL_Driver/Inc/stm32u5xx_ll_exti.h **** __STATIC_INLINE void LL_EXTI_DisableIT_0_31(uint32_t ExtiLine)
 310:Drivers/STM32U5xx_HAL_Driver/Inc/stm32u5xx_ll_exti.h **** {
 311:Drivers/STM32U5xx_HAL_Driver/Inc/stm32u5xx_ll_exti.h ****   CLEAR_BIT(EXTI->IMR1, ExtiLine);
 312:Drivers/STM32U5xx_HAL_Driver/Inc/stm32u5xx_ll_exti.h **** }
 313:Drivers/STM32U5xx_HAL_Driver/Inc/stm32u5xx_ll_exti.h **** 
 314:Drivers/STM32U5xx_HAL_Driver/Inc/stm32u5xx_ll_exti.h **** /**
 315:Drivers/STM32U5xx_HAL_Driver/Inc/stm32u5xx_ll_exti.h ****   * @brief  Indicate if ExtiLine Interrupt request is enabled for Lines in range 0 to 31
 316:Drivers/STM32U5xx_HAL_Driver/Inc/stm32u5xx_ll_exti.h ****   * @note The reset value for the direct or internal lines (see RM)
 317:Drivers/STM32U5xx_HAL_Driver/Inc/stm32u5xx_ll_exti.h ****   *       is set to 1 in order to enable the interrupt by default.
 318:Drivers/STM32U5xx_HAL_Driver/Inc/stm32u5xx_ll_exti.h ****   *       Bits are set automatically at Power on.
 319:Drivers/STM32U5xx_HAL_Driver/Inc/stm32u5xx_ll_exti.h ****   * @rmtoll IMR1         IMx           LL_EXTI_IsEnabledIT_0_31
 320:Drivers/STM32U5xx_HAL_Driver/Inc/stm32u5xx_ll_exti.h ****   * @param  ExtiLine This parameter can be one of the following values:
 321:Drivers/STM32U5xx_HAL_Driver/Inc/stm32u5xx_ll_exti.h ****   *         @arg @ref LL_EXTI_LINE_0
 322:Drivers/STM32U5xx_HAL_Driver/Inc/stm32u5xx_ll_exti.h ****   *         @arg @ref LL_EXTI_LINE_1
 323:Drivers/STM32U5xx_HAL_Driver/Inc/stm32u5xx_ll_exti.h ****   *         @arg @ref LL_EXTI_LINE_2
 324:Drivers/STM32U5xx_HAL_Driver/Inc/stm32u5xx_ll_exti.h ****   *         @arg @ref LL_EXTI_LINE_3
 325:Drivers/STM32U5xx_HAL_Driver/Inc/stm32u5xx_ll_exti.h ****   *         @arg @ref LL_EXTI_LINE_4
 326:Drivers/STM32U5xx_HAL_Driver/Inc/stm32u5xx_ll_exti.h ****   *         @arg @ref LL_EXTI_LINE_5
 327:Drivers/STM32U5xx_HAL_Driver/Inc/stm32u5xx_ll_exti.h ****   *         @arg @ref LL_EXTI_LINE_6
 328:Drivers/STM32U5xx_HAL_Driver/Inc/stm32u5xx_ll_exti.h ****   *         @arg @ref LL_EXTI_LINE_7
 329:Drivers/STM32U5xx_HAL_Driver/Inc/stm32u5xx_ll_exti.h ****   *         @arg @ref LL_EXTI_LINE_8
 330:Drivers/STM32U5xx_HAL_Driver/Inc/stm32u5xx_ll_exti.h ****   *         @arg @ref LL_EXTI_LINE_9
 331:Drivers/STM32U5xx_HAL_Driver/Inc/stm32u5xx_ll_exti.h ****   *         @arg @ref LL_EXTI_LINE_10
 332:Drivers/STM32U5xx_HAL_Driver/Inc/stm32u5xx_ll_exti.h ****   *         @arg @ref LL_EXTI_LINE_11
 333:Drivers/STM32U5xx_HAL_Driver/Inc/stm32u5xx_ll_exti.h ****   *         @arg @ref LL_EXTI_LINE_12
 334:Drivers/STM32U5xx_HAL_Driver/Inc/stm32u5xx_ll_exti.h ****   *         @arg @ref LL_EXTI_LINE_13
 335:Drivers/STM32U5xx_HAL_Driver/Inc/stm32u5xx_ll_exti.h ****   *         @arg @ref LL_EXTI_LINE_14
 336:Drivers/STM32U5xx_HAL_Driver/Inc/stm32u5xx_ll_exti.h ****   *         @arg @ref LL_EXTI_LINE_15
 337:Drivers/STM32U5xx_HAL_Driver/Inc/stm32u5xx_ll_exti.h ****   *         @arg @ref LL_EXTI_LINE_16
 338:Drivers/STM32U5xx_HAL_Driver/Inc/stm32u5xx_ll_exti.h ****   *         @arg @ref LL_EXTI_LINE_17
 339:Drivers/STM32U5xx_HAL_Driver/Inc/stm32u5xx_ll_exti.h ****   *         @arg @ref LL_EXTI_LINE_18
ARM GAS  C:\Users\Yamaan\AppData\Local\Temp\ccnzxzH5.s 			page 12


 340:Drivers/STM32U5xx_HAL_Driver/Inc/stm32u5xx_ll_exti.h ****   *         @arg @ref LL_EXTI_LINE_19
 341:Drivers/STM32U5xx_HAL_Driver/Inc/stm32u5xx_ll_exti.h ****   *         @arg @ref LL_EXTI_LINE_20
 342:Drivers/STM32U5xx_HAL_Driver/Inc/stm32u5xx_ll_exti.h ****   *         @arg @ref LL_EXTI_LINE_21
 343:Drivers/STM32U5xx_HAL_Driver/Inc/stm32u5xx_ll_exti.h ****   *         @arg @ref LL_EXTI_LINE_22
 344:Drivers/STM32U5xx_HAL_Driver/Inc/stm32u5xx_ll_exti.h ****   *         @arg @ref LL_EXTI_LINE_ALL_0_31
 345:Drivers/STM32U5xx_HAL_Driver/Inc/stm32u5xx_ll_exti.h ****   * @note   Please check each device line mapping for EXTI Line availability
 346:Drivers/STM32U5xx_HAL_Driver/Inc/stm32u5xx_ll_exti.h ****   * @retval State of bit (1 or 0).
 347:Drivers/STM32U5xx_HAL_Driver/Inc/stm32u5xx_ll_exti.h ****   */
 348:Drivers/STM32U5xx_HAL_Driver/Inc/stm32u5xx_ll_exti.h **** __STATIC_INLINE uint32_t LL_EXTI_IsEnabledIT_0_31(uint32_t ExtiLine)
 349:Drivers/STM32U5xx_HAL_Driver/Inc/stm32u5xx_ll_exti.h **** {
 350:Drivers/STM32U5xx_HAL_Driver/Inc/stm32u5xx_ll_exti.h ****   return ((READ_BIT(EXTI->IMR1, ExtiLine) == (ExtiLine)) ? 1UL : 0UL);
 351:Drivers/STM32U5xx_HAL_Driver/Inc/stm32u5xx_ll_exti.h **** }
 352:Drivers/STM32U5xx_HAL_Driver/Inc/stm32u5xx_ll_exti.h **** 
 353:Drivers/STM32U5xx_HAL_Driver/Inc/stm32u5xx_ll_exti.h **** /**
 354:Drivers/STM32U5xx_HAL_Driver/Inc/stm32u5xx_ll_exti.h ****   * @}
 355:Drivers/STM32U5xx_HAL_Driver/Inc/stm32u5xx_ll_exti.h ****   */
 356:Drivers/STM32U5xx_HAL_Driver/Inc/stm32u5xx_ll_exti.h **** 
 357:Drivers/STM32U5xx_HAL_Driver/Inc/stm32u5xx_ll_exti.h **** /** @defgroup EXTI_LL_EF_Event_Management Event_Management
 358:Drivers/STM32U5xx_HAL_Driver/Inc/stm32u5xx_ll_exti.h ****   * @{
 359:Drivers/STM32U5xx_HAL_Driver/Inc/stm32u5xx_ll_exti.h ****   */
 360:Drivers/STM32U5xx_HAL_Driver/Inc/stm32u5xx_ll_exti.h **** 
 361:Drivers/STM32U5xx_HAL_Driver/Inc/stm32u5xx_ll_exti.h **** /**
 362:Drivers/STM32U5xx_HAL_Driver/Inc/stm32u5xx_ll_exti.h ****   * @brief  Enable ExtiLine Event request for Lines in range 0 to 31
 363:Drivers/STM32U5xx_HAL_Driver/Inc/stm32u5xx_ll_exti.h ****   * @rmtoll EMR1         EMx           LL_EXTI_EnableEvent_0_31
 364:Drivers/STM32U5xx_HAL_Driver/Inc/stm32u5xx_ll_exti.h ****   * @param  ExtiLine This parameter can be one of the following values:
 365:Drivers/STM32U5xx_HAL_Driver/Inc/stm32u5xx_ll_exti.h ****   *         @arg @ref LL_EXTI_LINE_0
 366:Drivers/STM32U5xx_HAL_Driver/Inc/stm32u5xx_ll_exti.h ****   *         @arg @ref LL_EXTI_LINE_1
 367:Drivers/STM32U5xx_HAL_Driver/Inc/stm32u5xx_ll_exti.h ****   *         @arg @ref LL_EXTI_LINE_2
 368:Drivers/STM32U5xx_HAL_Driver/Inc/stm32u5xx_ll_exti.h ****   *         @arg @ref LL_EXTI_LINE_3
 369:Drivers/STM32U5xx_HAL_Driver/Inc/stm32u5xx_ll_exti.h ****   *         @arg @ref LL_EXTI_LINE_4
 370:Drivers/STM32U5xx_HAL_Driver/Inc/stm32u5xx_ll_exti.h ****   *         @arg @ref LL_EXTI_LINE_5
 371:Drivers/STM32U5xx_HAL_Driver/Inc/stm32u5xx_ll_exti.h ****   *         @arg @ref LL_EXTI_LINE_6
 372:Drivers/STM32U5xx_HAL_Driver/Inc/stm32u5xx_ll_exti.h ****   *         @arg @ref LL_EXTI_LINE_7
 373:Drivers/STM32U5xx_HAL_Driver/Inc/stm32u5xx_ll_exti.h ****   *         @arg @ref LL_EXTI_LINE_8
 374:Drivers/STM32U5xx_HAL_Driver/Inc/stm32u5xx_ll_exti.h ****   *         @arg @ref LL_EXTI_LINE_9
 375:Drivers/STM32U5xx_HAL_Driver/Inc/stm32u5xx_ll_exti.h ****   *         @arg @ref LL_EXTI_LINE_10
 376:Drivers/STM32U5xx_HAL_Driver/Inc/stm32u5xx_ll_exti.h ****   *         @arg @ref LL_EXTI_LINE_11
 377:Drivers/STM32U5xx_HAL_Driver/Inc/stm32u5xx_ll_exti.h ****   *         @arg @ref LL_EXTI_LINE_12
 378:Drivers/STM32U5xx_HAL_Driver/Inc/stm32u5xx_ll_exti.h ****   *         @arg @ref LL_EXTI_LINE_13
 379:Drivers/STM32U5xx_HAL_Driver/Inc/stm32u5xx_ll_exti.h ****   *         @arg @ref LL_EXTI_LINE_14
 380:Drivers/STM32U5xx_HAL_Driver/Inc/stm32u5xx_ll_exti.h ****   *         @arg @ref LL_EXTI_LINE_15
 381:Drivers/STM32U5xx_HAL_Driver/Inc/stm32u5xx_ll_exti.h ****   *         @arg @ref LL_EXTI_LINE_16
 382:Drivers/STM32U5xx_HAL_Driver/Inc/stm32u5xx_ll_exti.h ****   *         @arg @ref LL_EXTI_LINE_17
 383:Drivers/STM32U5xx_HAL_Driver/Inc/stm32u5xx_ll_exti.h ****   *         @arg @ref LL_EXTI_LINE_18
 384:Drivers/STM32U5xx_HAL_Driver/Inc/stm32u5xx_ll_exti.h ****   *         @arg @ref LL_EXTI_LINE_19
 385:Drivers/STM32U5xx_HAL_Driver/Inc/stm32u5xx_ll_exti.h ****   *         @arg @ref LL_EXTI_LINE_20
 386:Drivers/STM32U5xx_HAL_Driver/Inc/stm32u5xx_ll_exti.h ****   *         @arg @ref LL_EXTI_LINE_21
 387:Drivers/STM32U5xx_HAL_Driver/Inc/stm32u5xx_ll_exti.h ****   *         @arg @ref LL_EXTI_LINE_22
 388:Drivers/STM32U5xx_HAL_Driver/Inc/stm32u5xx_ll_exti.h ****   *         @arg @ref LL_EXTI_LINE_ALL_0_31
 389:Drivers/STM32U5xx_HAL_Driver/Inc/stm32u5xx_ll_exti.h ****   * @note   Please check each device line mapping for EXTI Line availability
 390:Drivers/STM32U5xx_HAL_Driver/Inc/stm32u5xx_ll_exti.h ****   * @retval None
 391:Drivers/STM32U5xx_HAL_Driver/Inc/stm32u5xx_ll_exti.h ****   */
 392:Drivers/STM32U5xx_HAL_Driver/Inc/stm32u5xx_ll_exti.h **** __STATIC_INLINE void LL_EXTI_EnableEvent_0_31(uint32_t ExtiLine)
 393:Drivers/STM32U5xx_HAL_Driver/Inc/stm32u5xx_ll_exti.h **** {
 394:Drivers/STM32U5xx_HAL_Driver/Inc/stm32u5xx_ll_exti.h ****   SET_BIT(EXTI->EMR1, ExtiLine);
 395:Drivers/STM32U5xx_HAL_Driver/Inc/stm32u5xx_ll_exti.h **** 
 396:Drivers/STM32U5xx_HAL_Driver/Inc/stm32u5xx_ll_exti.h **** }
ARM GAS  C:\Users\Yamaan\AppData\Local\Temp\ccnzxzH5.s 			page 13


 397:Drivers/STM32U5xx_HAL_Driver/Inc/stm32u5xx_ll_exti.h **** 
 398:Drivers/STM32U5xx_HAL_Driver/Inc/stm32u5xx_ll_exti.h **** /**
 399:Drivers/STM32U5xx_HAL_Driver/Inc/stm32u5xx_ll_exti.h ****   * @brief  Disable ExtiLine Event request for Lines in range 0 to 31
 400:Drivers/STM32U5xx_HAL_Driver/Inc/stm32u5xx_ll_exti.h ****   * @rmtoll EMR1         EMx           LL_EXTI_DisableEvent_0_31
 401:Drivers/STM32U5xx_HAL_Driver/Inc/stm32u5xx_ll_exti.h ****   * @param  ExtiLine This parameter can be one of the following values:
 402:Drivers/STM32U5xx_HAL_Driver/Inc/stm32u5xx_ll_exti.h ****   *         @arg @ref LL_EXTI_LINE_0
 403:Drivers/STM32U5xx_HAL_Driver/Inc/stm32u5xx_ll_exti.h ****   *         @arg @ref LL_EXTI_LINE_1
 404:Drivers/STM32U5xx_HAL_Driver/Inc/stm32u5xx_ll_exti.h ****   *         @arg @ref LL_EXTI_LINE_2
 405:Drivers/STM32U5xx_HAL_Driver/Inc/stm32u5xx_ll_exti.h ****   *         @arg @ref LL_EXTI_LINE_3
 406:Drivers/STM32U5xx_HAL_Driver/Inc/stm32u5xx_ll_exti.h ****   *         @arg @ref LL_EXTI_LINE_4
 407:Drivers/STM32U5xx_HAL_Driver/Inc/stm32u5xx_ll_exti.h ****   *         @arg @ref LL_EXTI_LINE_5
 408:Drivers/STM32U5xx_HAL_Driver/Inc/stm32u5xx_ll_exti.h ****   *         @arg @ref LL_EXTI_LINE_6
 409:Drivers/STM32U5xx_HAL_Driver/Inc/stm32u5xx_ll_exti.h ****   *         @arg @ref LL_EXTI_LINE_7
 410:Drivers/STM32U5xx_HAL_Driver/Inc/stm32u5xx_ll_exti.h ****   *         @arg @ref LL_EXTI_LINE_8
 411:Drivers/STM32U5xx_HAL_Driver/Inc/stm32u5xx_ll_exti.h ****   *         @arg @ref LL_EXTI_LINE_9
 412:Drivers/STM32U5xx_HAL_Driver/Inc/stm32u5xx_ll_exti.h ****   *         @arg @ref LL_EXTI_LINE_10
 413:Drivers/STM32U5xx_HAL_Driver/Inc/stm32u5xx_ll_exti.h ****   *         @arg @ref LL_EXTI_LINE_11
 414:Drivers/STM32U5xx_HAL_Driver/Inc/stm32u5xx_ll_exti.h ****   *         @arg @ref LL_EXTI_LINE_12
 415:Drivers/STM32U5xx_HAL_Driver/Inc/stm32u5xx_ll_exti.h ****   *         @arg @ref LL_EXTI_LINE_13
 416:Drivers/STM32U5xx_HAL_Driver/Inc/stm32u5xx_ll_exti.h ****   *         @arg @ref LL_EXTI_LINE_14
 417:Drivers/STM32U5xx_HAL_Driver/Inc/stm32u5xx_ll_exti.h ****   *         @arg @ref LL_EXTI_LINE_15
 418:Drivers/STM32U5xx_HAL_Driver/Inc/stm32u5xx_ll_exti.h ****   *         @arg @ref LL_EXTI_LINE_16
 419:Drivers/STM32U5xx_HAL_Driver/Inc/stm32u5xx_ll_exti.h ****   *         @arg @ref LL_EXTI_LINE_17
 420:Drivers/STM32U5xx_HAL_Driver/Inc/stm32u5xx_ll_exti.h ****   *         @arg @ref LL_EXTI_LINE_18
 421:Drivers/STM32U5xx_HAL_Driver/Inc/stm32u5xx_ll_exti.h ****   *         @arg @ref LL_EXTI_LINE_19
 422:Drivers/STM32U5xx_HAL_Driver/Inc/stm32u5xx_ll_exti.h ****   *         @arg @ref LL_EXTI_LINE_20
 423:Drivers/STM32U5xx_HAL_Driver/Inc/stm32u5xx_ll_exti.h ****   *         @arg @ref LL_EXTI_LINE_21
 424:Drivers/STM32U5xx_HAL_Driver/Inc/stm32u5xx_ll_exti.h ****   *         @arg @ref LL_EXTI_LINE_22
 425:Drivers/STM32U5xx_HAL_Driver/Inc/stm32u5xx_ll_exti.h ****   *         @arg @ref LL_EXTI_LINE_ALL_0_31
 426:Drivers/STM32U5xx_HAL_Driver/Inc/stm32u5xx_ll_exti.h ****   * @note   Please check each device line mapping for EXTI Line availability
 427:Drivers/STM32U5xx_HAL_Driver/Inc/stm32u5xx_ll_exti.h ****   * @retval None
 428:Drivers/STM32U5xx_HAL_Driver/Inc/stm32u5xx_ll_exti.h ****   */
 429:Drivers/STM32U5xx_HAL_Driver/Inc/stm32u5xx_ll_exti.h **** __STATIC_INLINE void LL_EXTI_DisableEvent_0_31(uint32_t ExtiLine)
 140              		.loc 2 429 22 view .LVU33
 141              	.LBB31:
 430:Drivers/STM32U5xx_HAL_Driver/Inc/stm32u5xx_ll_exti.h **** {
 431:Drivers/STM32U5xx_HAL_Driver/Inc/stm32u5xx_ll_exti.h ****   CLEAR_BIT(EXTI->EMR1, ExtiLine);
 142              		.loc 2 431 3 view .LVU34
 143 0034 2F49     		ldr	r1, .L18
 144 0036 D1F88440 		ldr	r4, [r1, #132]
 145 003a 24EA0202 		bic	r2, r4, r2
 146              	.LVL6:
 147              		.loc 2 431 3 is_stmt 0 view .LVU35
 148 003e C1F88420 		str	r2, [r1, #132]
 149              	.LVL7:
 150              		.loc 2 431 3 view .LVU36
 151              	.LBE31:
 152              	.LBE30:
 132:Drivers/STM32U5xx_HAL_Driver/Src/stm32u5xx_ll_exti.c ****           break;
 153              		.loc 1 132 11 is_stmt 1 view .LVU37
 154 0042 1A68     		ldr	r2, [r3]
 155              	.LVL8:
 156              	.LBB32:
 157              	.LBI32:
 270:Drivers/STM32U5xx_HAL_Driver/Inc/stm32u5xx_ll_exti.h **** {
 158              		.loc 2 270 22 view .LVU38
 159              	.LBB33:
ARM GAS  C:\Users\Yamaan\AppData\Local\Temp\ccnzxzH5.s 			page 14


 272:Drivers/STM32U5xx_HAL_Driver/Inc/stm32u5xx_ll_exti.h **** }
 160              		.loc 2 272 3 view .LVU39
 161 0044 D1F88040 		ldr	r4, [r1, #128]
 162 0048 2243     		orrs	r2, r2, r4
 163              	.LVL9:
 272:Drivers/STM32U5xx_HAL_Driver/Inc/stm32u5xx_ll_exti.h **** }
 164              		.loc 2 272 3 is_stmt 0 view .LVU40
 165 004a C1F88020 		str	r2, [r1, #128]
 166              	.LVL10:
 273:Drivers/STM32U5xx_HAL_Driver/Inc/stm32u5xx_ll_exti.h **** 
 167              		.loc 2 273 1 view .LVU41
 168 004e E6E7     		b	.L9
 169              	.LVL11:
 170              	.L7:
 273:Drivers/STM32U5xx_HAL_Driver/Inc/stm32u5xx_ll_exti.h **** 
 171              		.loc 2 273 1 view .LVU42
 172              	.LBE33:
 173              	.LBE32:
 136:Drivers/STM32U5xx_HAL_Driver/Src/stm32u5xx_ll_exti.c ****           /* Then Enable Event on provided Lines */
 174              		.loc 1 136 11 is_stmt 1 view .LVU43
 175              	.LBB34:
 176              	.LBI34:
 309:Drivers/STM32U5xx_HAL_Driver/Inc/stm32u5xx_ll_exti.h **** {
 177              		.loc 2 309 22 view .LVU44
 178              	.LBB35:
 311:Drivers/STM32U5xx_HAL_Driver/Inc/stm32u5xx_ll_exti.h **** }
 179              		.loc 2 311 3 view .LVU45
 180 0050 2849     		ldr	r1, .L18
 181 0052 D1F88000 		ldr	r0, [r1, #128]
 182 0056 20EA0202 		bic	r2, r0, r2
 183              	.LVL12:
 311:Drivers/STM32U5xx_HAL_Driver/Inc/stm32u5xx_ll_exti.h **** }
 184              		.loc 2 311 3 is_stmt 0 view .LVU46
 185 005a C1F88020 		str	r2, [r1, #128]
 186              	.LVL13:
 311:Drivers/STM32U5xx_HAL_Driver/Inc/stm32u5xx_ll_exti.h **** }
 187              		.loc 2 311 3 view .LVU47
 188              	.LBE35:
 189              	.LBE34:
 138:Drivers/STM32U5xx_HAL_Driver/Src/stm32u5xx_ll_exti.c ****           break;
 190              		.loc 1 138 11 is_stmt 1 view .LVU48
 191 005e 1A68     		ldr	r2, [r3]
 192              	.LVL14:
 193              	.LBB36:
 194              	.LBI36:
 392:Drivers/STM32U5xx_HAL_Driver/Inc/stm32u5xx_ll_exti.h **** {
 195              		.loc 2 392 22 view .LVU49
 196              	.LBB37:
 394:Drivers/STM32U5xx_HAL_Driver/Inc/stm32u5xx_ll_exti.h **** 
 197              		.loc 2 394 3 view .LVU50
 198 0060 D1F88400 		ldr	r0, [r1, #132]
 199 0064 0243     		orrs	r2, r2, r0
 200              	.LVL15:
 394:Drivers/STM32U5xx_HAL_Driver/Inc/stm32u5xx_ll_exti.h **** 
 201              		.loc 2 394 3 is_stmt 0 view .LVU51
 202 0066 C1F88420 		str	r2, [r1, #132]
 203              	.LVL16:
ARM GAS  C:\Users\Yamaan\AppData\Local\Temp\ccnzxzH5.s 			page 15


 394:Drivers/STM32U5xx_HAL_Driver/Inc/stm32u5xx_ll_exti.h **** 
 204              		.loc 2 394 3 view .LVU52
 205              	.LBE37:
 206              	.LBE36:
 112:Drivers/STM32U5xx_HAL_Driver/Src/stm32u5xx_ll_exti.c ****   /* Check the parameters */
 207              		.loc 1 112 15 view .LVU53
 208 006a 0020     		movs	r0, #0
 209              	.LBB39:
 210              	.LBB38:
 396:Drivers/STM32U5xx_HAL_Driver/Inc/stm32u5xx_ll_exti.h **** 
 211              		.loc 2 396 1 view .LVU54
 212 006c D7E7     		b	.L9
 213              	.LVL17:
 214              	.L8:
 396:Drivers/STM32U5xx_HAL_Driver/Inc/stm32u5xx_ll_exti.h **** 
 215              		.loc 2 396 1 view .LVU55
 216              	.LBE38:
 217              	.LBE39:
 142:Drivers/STM32U5xx_HAL_Driver/Src/stm32u5xx_ll_exti.c ****           LL_EXTI_EnableEvent_0_31(EXTI_InitStruct->Line_0_31);
 218              		.loc 1 142 11 is_stmt 1 view .LVU56
 219              	.LBB40:
 220              	.LBI40:
 270:Drivers/STM32U5xx_HAL_Driver/Inc/stm32u5xx_ll_exti.h **** {
 221              		.loc 2 270 22 view .LVU57
 222              	.LBB41:
 272:Drivers/STM32U5xx_HAL_Driver/Inc/stm32u5xx_ll_exti.h **** }
 223              		.loc 2 272 3 view .LVU58
 224 006e 2149     		ldr	r1, .L18
 225 0070 D1F88000 		ldr	r0, [r1, #128]
 226 0074 0243     		orrs	r2, r2, r0
 227              	.LVL18:
 272:Drivers/STM32U5xx_HAL_Driver/Inc/stm32u5xx_ll_exti.h **** }
 228              		.loc 2 272 3 is_stmt 0 view .LVU59
 229 0076 C1F88020 		str	r2, [r1, #128]
 230              	.LVL19:
 272:Drivers/STM32U5xx_HAL_Driver/Inc/stm32u5xx_ll_exti.h **** }
 231              		.loc 2 272 3 view .LVU60
 232              	.LBE41:
 233              	.LBE40:
 143:Drivers/STM32U5xx_HAL_Driver/Src/stm32u5xx_ll_exti.c ****           break;
 234              		.loc 1 143 11 is_stmt 1 view .LVU61
 235 007a 1A68     		ldr	r2, [r3]
 236              	.LVL20:
 237              	.LBB42:
 238              	.LBI42:
 392:Drivers/STM32U5xx_HAL_Driver/Inc/stm32u5xx_ll_exti.h **** {
 239              		.loc 2 392 22 view .LVU62
 240              	.LBB43:
 394:Drivers/STM32U5xx_HAL_Driver/Inc/stm32u5xx_ll_exti.h **** 
 241              		.loc 2 394 3 view .LVU63
 242 007c D1F88400 		ldr	r0, [r1, #132]
 243 0080 0243     		orrs	r2, r2, r0
 244              	.LVL21:
 394:Drivers/STM32U5xx_HAL_Driver/Inc/stm32u5xx_ll_exti.h **** 
 245              		.loc 2 394 3 is_stmt 0 view .LVU64
 246 0082 C1F88420 		str	r2, [r1, #132]
 247              	.LVL22:
ARM GAS  C:\Users\Yamaan\AppData\Local\Temp\ccnzxzH5.s 			page 16


 394:Drivers/STM32U5xx_HAL_Driver/Inc/stm32u5xx_ll_exti.h **** 
 248              		.loc 2 394 3 view .LVU65
 249              	.LBE43:
 250              	.LBE42:
 112:Drivers/STM32U5xx_HAL_Driver/Src/stm32u5xx_ll_exti.c ****   /* Check the parameters */
 251              		.loc 1 112 15 view .LVU66
 252 0086 0020     		movs	r0, #0
 253              	.LBB45:
 254              	.LBB44:
 396:Drivers/STM32U5xx_HAL_Driver/Inc/stm32u5xx_ll_exti.h **** 
 255              		.loc 2 396 1 view .LVU67
 256 0088 C9E7     		b	.L9
 257              	.LVL23:
 258              	.L17:
 396:Drivers/STM32U5xx_HAL_Driver/Inc/stm32u5xx_ll_exti.h **** 
 259              		.loc 2 396 1 view .LVU68
 260              	.LBE44:
 261              	.LBE45:
 152:Drivers/STM32U5xx_HAL_Driver/Src/stm32u5xx_ll_exti.c ****         {
 153:Drivers/STM32U5xx_HAL_Driver/Src/stm32u5xx_ll_exti.c ****           case LL_EXTI_TRIGGER_RISING:
 154:Drivers/STM32U5xx_HAL_Driver/Src/stm32u5xx_ll_exti.c ****             /* First Disable Falling Trigger on provided Lines */
 155:Drivers/STM32U5xx_HAL_Driver/Src/stm32u5xx_ll_exti.c ****             LL_EXTI_DisableFallingTrig_0_31(EXTI_InitStruct->Line_0_31);
 262              		.loc 1 155 13 is_stmt 1 view .LVU69
 263 008a 1C68     		ldr	r4, [r3]
 264              	.LVL24:
 265              	.LBB46:
 266              	.LBI46:
 432:Drivers/STM32U5xx_HAL_Driver/Inc/stm32u5xx_ll_exti.h **** }
 433:Drivers/STM32U5xx_HAL_Driver/Inc/stm32u5xx_ll_exti.h **** 
 434:Drivers/STM32U5xx_HAL_Driver/Inc/stm32u5xx_ll_exti.h **** /**
 435:Drivers/STM32U5xx_HAL_Driver/Inc/stm32u5xx_ll_exti.h ****   * @brief  Indicate if ExtiLine Event request is enabled for Lines in range 0 to 31
 436:Drivers/STM32U5xx_HAL_Driver/Inc/stm32u5xx_ll_exti.h ****   * @rmtoll EMR1         EMx           LL_EXTI_IsEnabledEvent_0_31
 437:Drivers/STM32U5xx_HAL_Driver/Inc/stm32u5xx_ll_exti.h ****   * @param  ExtiLine This parameter can be one of the following values:
 438:Drivers/STM32U5xx_HAL_Driver/Inc/stm32u5xx_ll_exti.h ****   *         @arg @ref LL_EXTI_LINE_0
 439:Drivers/STM32U5xx_HAL_Driver/Inc/stm32u5xx_ll_exti.h ****   *         @arg @ref LL_EXTI_LINE_1
 440:Drivers/STM32U5xx_HAL_Driver/Inc/stm32u5xx_ll_exti.h ****   *         @arg @ref LL_EXTI_LINE_2
 441:Drivers/STM32U5xx_HAL_Driver/Inc/stm32u5xx_ll_exti.h ****   *         @arg @ref LL_EXTI_LINE_3
 442:Drivers/STM32U5xx_HAL_Driver/Inc/stm32u5xx_ll_exti.h ****   *         @arg @ref LL_EXTI_LINE_4
 443:Drivers/STM32U5xx_HAL_Driver/Inc/stm32u5xx_ll_exti.h ****   *         @arg @ref LL_EXTI_LINE_5
 444:Drivers/STM32U5xx_HAL_Driver/Inc/stm32u5xx_ll_exti.h ****   *         @arg @ref LL_EXTI_LINE_6
 445:Drivers/STM32U5xx_HAL_Driver/Inc/stm32u5xx_ll_exti.h ****   *         @arg @ref LL_EXTI_LINE_7
 446:Drivers/STM32U5xx_HAL_Driver/Inc/stm32u5xx_ll_exti.h ****   *         @arg @ref LL_EXTI_LINE_8
 447:Drivers/STM32U5xx_HAL_Driver/Inc/stm32u5xx_ll_exti.h ****   *         @arg @ref LL_EXTI_LINE_9
 448:Drivers/STM32U5xx_HAL_Driver/Inc/stm32u5xx_ll_exti.h ****   *         @arg @ref LL_EXTI_LINE_10
 449:Drivers/STM32U5xx_HAL_Driver/Inc/stm32u5xx_ll_exti.h ****   *         @arg @ref LL_EXTI_LINE_11
 450:Drivers/STM32U5xx_HAL_Driver/Inc/stm32u5xx_ll_exti.h ****   *         @arg @ref LL_EXTI_LINE_12
 451:Drivers/STM32U5xx_HAL_Driver/Inc/stm32u5xx_ll_exti.h ****   *         @arg @ref LL_EXTI_LINE_13
 452:Drivers/STM32U5xx_HAL_Driver/Inc/stm32u5xx_ll_exti.h ****   *         @arg @ref LL_EXTI_LINE_14
 453:Drivers/STM32U5xx_HAL_Driver/Inc/stm32u5xx_ll_exti.h ****   *         @arg @ref LL_EXTI_LINE_15
 454:Drivers/STM32U5xx_HAL_Driver/Inc/stm32u5xx_ll_exti.h ****   *         @arg @ref LL_EXTI_LINE_16
 455:Drivers/STM32U5xx_HAL_Driver/Inc/stm32u5xx_ll_exti.h ****   *         @arg @ref LL_EXTI_LINE_17
 456:Drivers/STM32U5xx_HAL_Driver/Inc/stm32u5xx_ll_exti.h ****   *         @arg @ref LL_EXTI_LINE_18
 457:Drivers/STM32U5xx_HAL_Driver/Inc/stm32u5xx_ll_exti.h ****   *         @arg @ref LL_EXTI_LINE_19
 458:Drivers/STM32U5xx_HAL_Driver/Inc/stm32u5xx_ll_exti.h ****   *         @arg @ref LL_EXTI_LINE_20
 459:Drivers/STM32U5xx_HAL_Driver/Inc/stm32u5xx_ll_exti.h ****   *         @arg @ref LL_EXTI_LINE_21
 460:Drivers/STM32U5xx_HAL_Driver/Inc/stm32u5xx_ll_exti.h ****   *         @arg @ref LL_EXTI_LINE_22
 461:Drivers/STM32U5xx_HAL_Driver/Inc/stm32u5xx_ll_exti.h ****   *         @arg @ref LL_EXTI_LINE_ALL_0_31
ARM GAS  C:\Users\Yamaan\AppData\Local\Temp\ccnzxzH5.s 			page 17


 462:Drivers/STM32U5xx_HAL_Driver/Inc/stm32u5xx_ll_exti.h ****   * @note   Please check each device line mapping for EXTI Line availability
 463:Drivers/STM32U5xx_HAL_Driver/Inc/stm32u5xx_ll_exti.h ****   * @retval State of bit (1 or 0).
 464:Drivers/STM32U5xx_HAL_Driver/Inc/stm32u5xx_ll_exti.h ****   */
 465:Drivers/STM32U5xx_HAL_Driver/Inc/stm32u5xx_ll_exti.h **** __STATIC_INLINE uint32_t LL_EXTI_IsEnabledEvent_0_31(uint32_t ExtiLine)
 466:Drivers/STM32U5xx_HAL_Driver/Inc/stm32u5xx_ll_exti.h **** {
 467:Drivers/STM32U5xx_HAL_Driver/Inc/stm32u5xx_ll_exti.h ****   return ((READ_BIT(EXTI->EMR1, ExtiLine) == (ExtiLine)) ? 1UL : 0UL);
 468:Drivers/STM32U5xx_HAL_Driver/Inc/stm32u5xx_ll_exti.h **** 
 469:Drivers/STM32U5xx_HAL_Driver/Inc/stm32u5xx_ll_exti.h **** }
 470:Drivers/STM32U5xx_HAL_Driver/Inc/stm32u5xx_ll_exti.h **** 
 471:Drivers/STM32U5xx_HAL_Driver/Inc/stm32u5xx_ll_exti.h **** /**
 472:Drivers/STM32U5xx_HAL_Driver/Inc/stm32u5xx_ll_exti.h ****   * @}
 473:Drivers/STM32U5xx_HAL_Driver/Inc/stm32u5xx_ll_exti.h ****   */
 474:Drivers/STM32U5xx_HAL_Driver/Inc/stm32u5xx_ll_exti.h **** 
 475:Drivers/STM32U5xx_HAL_Driver/Inc/stm32u5xx_ll_exti.h **** /** @defgroup EXTI_LL_EF_Rising_Trigger_Management Rising_Trigger_Management
 476:Drivers/STM32U5xx_HAL_Driver/Inc/stm32u5xx_ll_exti.h ****   * @{
 477:Drivers/STM32U5xx_HAL_Driver/Inc/stm32u5xx_ll_exti.h ****   */
 478:Drivers/STM32U5xx_HAL_Driver/Inc/stm32u5xx_ll_exti.h **** 
 479:Drivers/STM32U5xx_HAL_Driver/Inc/stm32u5xx_ll_exti.h **** /**
 480:Drivers/STM32U5xx_HAL_Driver/Inc/stm32u5xx_ll_exti.h ****   * @brief  Enable ExtiLine Rising Edge Trigger for Lines in range 0 to 31
 481:Drivers/STM32U5xx_HAL_Driver/Inc/stm32u5xx_ll_exti.h ****   * @note The configurable wakeup lines are edge-triggered. No glitch must be
 482:Drivers/STM32U5xx_HAL_Driver/Inc/stm32u5xx_ll_exti.h ****   *       generated on these lines. If a rising edge on a configurable interrupt
 483:Drivers/STM32U5xx_HAL_Driver/Inc/stm32u5xx_ll_exti.h ****   *       line occurs during a write operation in the EXTI_RTSR register, the
 484:Drivers/STM32U5xx_HAL_Driver/Inc/stm32u5xx_ll_exti.h ****   *       pending bit is not set.
 485:Drivers/STM32U5xx_HAL_Driver/Inc/stm32u5xx_ll_exti.h ****   *       Rising and falling edge triggers can be set for
 486:Drivers/STM32U5xx_HAL_Driver/Inc/stm32u5xx_ll_exti.h ****   *       the same interrupt line. In this case, both generate a trigger
 487:Drivers/STM32U5xx_HAL_Driver/Inc/stm32u5xx_ll_exti.h ****   *       condition.
 488:Drivers/STM32U5xx_HAL_Driver/Inc/stm32u5xx_ll_exti.h ****   * @rmtoll RTSR1        RTx           LL_EXTI_EnableRisingTrig_0_31
 489:Drivers/STM32U5xx_HAL_Driver/Inc/stm32u5xx_ll_exti.h ****   * @param  ExtiLine This parameter can be a combination of the following values:
 490:Drivers/STM32U5xx_HAL_Driver/Inc/stm32u5xx_ll_exti.h ****   *         @arg @ref LL_EXTI_LINE_0
 491:Drivers/STM32U5xx_HAL_Driver/Inc/stm32u5xx_ll_exti.h ****   *         @arg @ref LL_EXTI_LINE_1
 492:Drivers/STM32U5xx_HAL_Driver/Inc/stm32u5xx_ll_exti.h ****   *         @arg @ref LL_EXTI_LINE_2
 493:Drivers/STM32U5xx_HAL_Driver/Inc/stm32u5xx_ll_exti.h ****   *         @arg @ref LL_EXTI_LINE_3
 494:Drivers/STM32U5xx_HAL_Driver/Inc/stm32u5xx_ll_exti.h ****   *         @arg @ref LL_EXTI_LINE_4
 495:Drivers/STM32U5xx_HAL_Driver/Inc/stm32u5xx_ll_exti.h ****   *         @arg @ref LL_EXTI_LINE_5
 496:Drivers/STM32U5xx_HAL_Driver/Inc/stm32u5xx_ll_exti.h ****   *         @arg @ref LL_EXTI_LINE_6
 497:Drivers/STM32U5xx_HAL_Driver/Inc/stm32u5xx_ll_exti.h ****   *         @arg @ref LL_EXTI_LINE_7
 498:Drivers/STM32U5xx_HAL_Driver/Inc/stm32u5xx_ll_exti.h ****   *         @arg @ref LL_EXTI_LINE_8
 499:Drivers/STM32U5xx_HAL_Driver/Inc/stm32u5xx_ll_exti.h ****   *         @arg @ref LL_EXTI_LINE_9
 500:Drivers/STM32U5xx_HAL_Driver/Inc/stm32u5xx_ll_exti.h ****   *         @arg @ref LL_EXTI_LINE_10
 501:Drivers/STM32U5xx_HAL_Driver/Inc/stm32u5xx_ll_exti.h ****   *         @arg @ref LL_EXTI_LINE_11
 502:Drivers/STM32U5xx_HAL_Driver/Inc/stm32u5xx_ll_exti.h ****   *         @arg @ref LL_EXTI_LINE_12
 503:Drivers/STM32U5xx_HAL_Driver/Inc/stm32u5xx_ll_exti.h ****   *         @arg @ref LL_EXTI_LINE_13
 504:Drivers/STM32U5xx_HAL_Driver/Inc/stm32u5xx_ll_exti.h ****   *         @arg @ref LL_EXTI_LINE_14
 505:Drivers/STM32U5xx_HAL_Driver/Inc/stm32u5xx_ll_exti.h ****   *         @arg @ref LL_EXTI_LINE_15
 506:Drivers/STM32U5xx_HAL_Driver/Inc/stm32u5xx_ll_exti.h ****   *         @arg @ref LL_EXTI_LINE_16
 507:Drivers/STM32U5xx_HAL_Driver/Inc/stm32u5xx_ll_exti.h ****   *         @arg @ref LL_EXTI_LINE_17
 508:Drivers/STM32U5xx_HAL_Driver/Inc/stm32u5xx_ll_exti.h ****   *         @arg @ref LL_EXTI_LINE_18
 509:Drivers/STM32U5xx_HAL_Driver/Inc/stm32u5xx_ll_exti.h ****   *         @arg @ref LL_EXTI_LINE_19
 510:Drivers/STM32U5xx_HAL_Driver/Inc/stm32u5xx_ll_exti.h ****   *         @arg @ref LL_EXTI_LINE_20
 511:Drivers/STM32U5xx_HAL_Driver/Inc/stm32u5xx_ll_exti.h ****   *         @arg @ref LL_EXTI_LINE_21
 512:Drivers/STM32U5xx_HAL_Driver/Inc/stm32u5xx_ll_exti.h ****   *         @arg @ref LL_EXTI_LINE_22
 513:Drivers/STM32U5xx_HAL_Driver/Inc/stm32u5xx_ll_exti.h ****   * @note   Please check each device line mapping for EXTI Line availability
 514:Drivers/STM32U5xx_HAL_Driver/Inc/stm32u5xx_ll_exti.h ****   * @retval None
 515:Drivers/STM32U5xx_HAL_Driver/Inc/stm32u5xx_ll_exti.h ****   */
 516:Drivers/STM32U5xx_HAL_Driver/Inc/stm32u5xx_ll_exti.h **** __STATIC_INLINE void LL_EXTI_EnableRisingTrig_0_31(uint32_t ExtiLine)
 517:Drivers/STM32U5xx_HAL_Driver/Inc/stm32u5xx_ll_exti.h **** {
 518:Drivers/STM32U5xx_HAL_Driver/Inc/stm32u5xx_ll_exti.h ****   SET_BIT(EXTI->RTSR1, ExtiLine);
ARM GAS  C:\Users\Yamaan\AppData\Local\Temp\ccnzxzH5.s 			page 18


 519:Drivers/STM32U5xx_HAL_Driver/Inc/stm32u5xx_ll_exti.h **** }
 520:Drivers/STM32U5xx_HAL_Driver/Inc/stm32u5xx_ll_exti.h **** 
 521:Drivers/STM32U5xx_HAL_Driver/Inc/stm32u5xx_ll_exti.h **** /**
 522:Drivers/STM32U5xx_HAL_Driver/Inc/stm32u5xx_ll_exti.h ****   * @brief  Disable ExtiLine Rising Edge Trigger for Lines in range 0 to 31
 523:Drivers/STM32U5xx_HAL_Driver/Inc/stm32u5xx_ll_exti.h ****   * @note The configurable wakeup lines are edge-triggered. No glitch must be
 524:Drivers/STM32U5xx_HAL_Driver/Inc/stm32u5xx_ll_exti.h ****   *       generated on these lines. If a rising edge on a configurable interrupt
 525:Drivers/STM32U5xx_HAL_Driver/Inc/stm32u5xx_ll_exti.h ****   *       line occurs during a write operation in the EXTI_RTSR register, the
 526:Drivers/STM32U5xx_HAL_Driver/Inc/stm32u5xx_ll_exti.h ****   *       pending bit is not set.
 527:Drivers/STM32U5xx_HAL_Driver/Inc/stm32u5xx_ll_exti.h ****   *       Rising and falling edge triggers can be set for
 528:Drivers/STM32U5xx_HAL_Driver/Inc/stm32u5xx_ll_exti.h ****   *       the same interrupt line. In this case, both generate a trigger
 529:Drivers/STM32U5xx_HAL_Driver/Inc/stm32u5xx_ll_exti.h ****   *       condition.
 530:Drivers/STM32U5xx_HAL_Driver/Inc/stm32u5xx_ll_exti.h ****   * @rmtoll RTSR1        RTx           LL_EXTI_DisableRisingTrig_0_31
 531:Drivers/STM32U5xx_HAL_Driver/Inc/stm32u5xx_ll_exti.h ****   * @param  ExtiLine This parameter can be a combination of the following values:
 532:Drivers/STM32U5xx_HAL_Driver/Inc/stm32u5xx_ll_exti.h ****   *         @arg @ref LL_EXTI_LINE_0
 533:Drivers/STM32U5xx_HAL_Driver/Inc/stm32u5xx_ll_exti.h ****   *         @arg @ref LL_EXTI_LINE_1
 534:Drivers/STM32U5xx_HAL_Driver/Inc/stm32u5xx_ll_exti.h ****   *         @arg @ref LL_EXTI_LINE_2
 535:Drivers/STM32U5xx_HAL_Driver/Inc/stm32u5xx_ll_exti.h ****   *         @arg @ref LL_EXTI_LINE_3
 536:Drivers/STM32U5xx_HAL_Driver/Inc/stm32u5xx_ll_exti.h ****   *         @arg @ref LL_EXTI_LINE_4
 537:Drivers/STM32U5xx_HAL_Driver/Inc/stm32u5xx_ll_exti.h ****   *         @arg @ref LL_EXTI_LINE_5
 538:Drivers/STM32U5xx_HAL_Driver/Inc/stm32u5xx_ll_exti.h ****   *         @arg @ref LL_EXTI_LINE_6
 539:Drivers/STM32U5xx_HAL_Driver/Inc/stm32u5xx_ll_exti.h ****   *         @arg @ref LL_EXTI_LINE_7
 540:Drivers/STM32U5xx_HAL_Driver/Inc/stm32u5xx_ll_exti.h ****   *         @arg @ref LL_EXTI_LINE_8
 541:Drivers/STM32U5xx_HAL_Driver/Inc/stm32u5xx_ll_exti.h ****   *         @arg @ref LL_EXTI_LINE_9
 542:Drivers/STM32U5xx_HAL_Driver/Inc/stm32u5xx_ll_exti.h ****   *         @arg @ref LL_EXTI_LINE_10
 543:Drivers/STM32U5xx_HAL_Driver/Inc/stm32u5xx_ll_exti.h ****   *         @arg @ref LL_EXTI_LINE_11
 544:Drivers/STM32U5xx_HAL_Driver/Inc/stm32u5xx_ll_exti.h ****   *         @arg @ref LL_EXTI_LINE_12
 545:Drivers/STM32U5xx_HAL_Driver/Inc/stm32u5xx_ll_exti.h ****   *         @arg @ref LL_EXTI_LINE_13
 546:Drivers/STM32U5xx_HAL_Driver/Inc/stm32u5xx_ll_exti.h ****   *         @arg @ref LL_EXTI_LINE_14
 547:Drivers/STM32U5xx_HAL_Driver/Inc/stm32u5xx_ll_exti.h ****   *         @arg @ref LL_EXTI_LINE_15
 548:Drivers/STM32U5xx_HAL_Driver/Inc/stm32u5xx_ll_exti.h ****   *         @arg @ref LL_EXTI_LINE_16
 549:Drivers/STM32U5xx_HAL_Driver/Inc/stm32u5xx_ll_exti.h ****   *         @arg @ref LL_EXTI_LINE_17
 550:Drivers/STM32U5xx_HAL_Driver/Inc/stm32u5xx_ll_exti.h ****   *         @arg @ref LL_EXTI_LINE_18
 551:Drivers/STM32U5xx_HAL_Driver/Inc/stm32u5xx_ll_exti.h ****   *         @arg @ref LL_EXTI_LINE_19
 552:Drivers/STM32U5xx_HAL_Driver/Inc/stm32u5xx_ll_exti.h ****   *         @arg @ref LL_EXTI_LINE_20
 553:Drivers/STM32U5xx_HAL_Driver/Inc/stm32u5xx_ll_exti.h ****   *         @arg @ref LL_EXTI_LINE_21
 554:Drivers/STM32U5xx_HAL_Driver/Inc/stm32u5xx_ll_exti.h ****   *         @arg @ref LL_EXTI_LINE_22
 555:Drivers/STM32U5xx_HAL_Driver/Inc/stm32u5xx_ll_exti.h ****   * @note   Please check each device line mapping for EXTI Line availability
 556:Drivers/STM32U5xx_HAL_Driver/Inc/stm32u5xx_ll_exti.h ****   * @retval None
 557:Drivers/STM32U5xx_HAL_Driver/Inc/stm32u5xx_ll_exti.h ****   */
 558:Drivers/STM32U5xx_HAL_Driver/Inc/stm32u5xx_ll_exti.h **** __STATIC_INLINE void LL_EXTI_DisableRisingTrig_0_31(uint32_t ExtiLine)
 559:Drivers/STM32U5xx_HAL_Driver/Inc/stm32u5xx_ll_exti.h **** {
 560:Drivers/STM32U5xx_HAL_Driver/Inc/stm32u5xx_ll_exti.h ****   CLEAR_BIT(EXTI->RTSR1, ExtiLine);
 561:Drivers/STM32U5xx_HAL_Driver/Inc/stm32u5xx_ll_exti.h **** 
 562:Drivers/STM32U5xx_HAL_Driver/Inc/stm32u5xx_ll_exti.h **** }
 563:Drivers/STM32U5xx_HAL_Driver/Inc/stm32u5xx_ll_exti.h **** 
 564:Drivers/STM32U5xx_HAL_Driver/Inc/stm32u5xx_ll_exti.h **** /**
 565:Drivers/STM32U5xx_HAL_Driver/Inc/stm32u5xx_ll_exti.h ****   * @brief  Check if rising edge trigger is enabled for Lines in range 0 to 31
 566:Drivers/STM32U5xx_HAL_Driver/Inc/stm32u5xx_ll_exti.h ****   * @rmtoll RTSR1        RTx           LL_EXTI_IsEnabledRisingTrig_0_31
 567:Drivers/STM32U5xx_HAL_Driver/Inc/stm32u5xx_ll_exti.h ****   * @param  ExtiLine This parameter can be a combination of the following values:
 568:Drivers/STM32U5xx_HAL_Driver/Inc/stm32u5xx_ll_exti.h ****   *         @arg @ref LL_EXTI_LINE_0
 569:Drivers/STM32U5xx_HAL_Driver/Inc/stm32u5xx_ll_exti.h ****   *         @arg @ref LL_EXTI_LINE_1
 570:Drivers/STM32U5xx_HAL_Driver/Inc/stm32u5xx_ll_exti.h ****   *         @arg @ref LL_EXTI_LINE_2
 571:Drivers/STM32U5xx_HAL_Driver/Inc/stm32u5xx_ll_exti.h ****   *         @arg @ref LL_EXTI_LINE_3
 572:Drivers/STM32U5xx_HAL_Driver/Inc/stm32u5xx_ll_exti.h ****   *         @arg @ref LL_EXTI_LINE_4
 573:Drivers/STM32U5xx_HAL_Driver/Inc/stm32u5xx_ll_exti.h ****   *         @arg @ref LL_EXTI_LINE_5
 574:Drivers/STM32U5xx_HAL_Driver/Inc/stm32u5xx_ll_exti.h ****   *         @arg @ref LL_EXTI_LINE_6
 575:Drivers/STM32U5xx_HAL_Driver/Inc/stm32u5xx_ll_exti.h ****   *         @arg @ref LL_EXTI_LINE_7
ARM GAS  C:\Users\Yamaan\AppData\Local\Temp\ccnzxzH5.s 			page 19


 576:Drivers/STM32U5xx_HAL_Driver/Inc/stm32u5xx_ll_exti.h ****   *         @arg @ref LL_EXTI_LINE_8
 577:Drivers/STM32U5xx_HAL_Driver/Inc/stm32u5xx_ll_exti.h ****   *         @arg @ref LL_EXTI_LINE_9
 578:Drivers/STM32U5xx_HAL_Driver/Inc/stm32u5xx_ll_exti.h ****   *         @arg @ref LL_EXTI_LINE_10
 579:Drivers/STM32U5xx_HAL_Driver/Inc/stm32u5xx_ll_exti.h ****   *         @arg @ref LL_EXTI_LINE_11
 580:Drivers/STM32U5xx_HAL_Driver/Inc/stm32u5xx_ll_exti.h ****   *         @arg @ref LL_EXTI_LINE_12
 581:Drivers/STM32U5xx_HAL_Driver/Inc/stm32u5xx_ll_exti.h ****   *         @arg @ref LL_EXTI_LINE_13
 582:Drivers/STM32U5xx_HAL_Driver/Inc/stm32u5xx_ll_exti.h ****   *         @arg @ref LL_EXTI_LINE_14
 583:Drivers/STM32U5xx_HAL_Driver/Inc/stm32u5xx_ll_exti.h ****   *         @arg @ref LL_EXTI_LINE_15
 584:Drivers/STM32U5xx_HAL_Driver/Inc/stm32u5xx_ll_exti.h ****   *         @arg @ref LL_EXTI_LINE_16
 585:Drivers/STM32U5xx_HAL_Driver/Inc/stm32u5xx_ll_exti.h ****   *         @arg @ref LL_EXTI_LINE_17
 586:Drivers/STM32U5xx_HAL_Driver/Inc/stm32u5xx_ll_exti.h ****   *         @arg @ref LL_EXTI_LINE_18
 587:Drivers/STM32U5xx_HAL_Driver/Inc/stm32u5xx_ll_exti.h ****   *         @arg @ref LL_EXTI_LINE_19
 588:Drivers/STM32U5xx_HAL_Driver/Inc/stm32u5xx_ll_exti.h ****   *         @arg @ref LL_EXTI_LINE_20
 589:Drivers/STM32U5xx_HAL_Driver/Inc/stm32u5xx_ll_exti.h ****   *         @arg @ref LL_EXTI_LINE_21
 590:Drivers/STM32U5xx_HAL_Driver/Inc/stm32u5xx_ll_exti.h ****   *         @arg @ref LL_EXTI_LINE_22
 591:Drivers/STM32U5xx_HAL_Driver/Inc/stm32u5xx_ll_exti.h ****   * @note   Please check each device line mapping for EXTI Line availability
 592:Drivers/STM32U5xx_HAL_Driver/Inc/stm32u5xx_ll_exti.h ****   * @retval State of bit (1 or 0).
 593:Drivers/STM32U5xx_HAL_Driver/Inc/stm32u5xx_ll_exti.h ****   */
 594:Drivers/STM32U5xx_HAL_Driver/Inc/stm32u5xx_ll_exti.h **** __STATIC_INLINE uint32_t LL_EXTI_IsEnabledRisingTrig_0_31(uint32_t ExtiLine)
 595:Drivers/STM32U5xx_HAL_Driver/Inc/stm32u5xx_ll_exti.h **** {
 596:Drivers/STM32U5xx_HAL_Driver/Inc/stm32u5xx_ll_exti.h ****   return ((READ_BIT(EXTI->RTSR1, ExtiLine) == (ExtiLine)) ? 1UL : 0UL);
 597:Drivers/STM32U5xx_HAL_Driver/Inc/stm32u5xx_ll_exti.h **** }
 598:Drivers/STM32U5xx_HAL_Driver/Inc/stm32u5xx_ll_exti.h **** 
 599:Drivers/STM32U5xx_HAL_Driver/Inc/stm32u5xx_ll_exti.h **** /**
 600:Drivers/STM32U5xx_HAL_Driver/Inc/stm32u5xx_ll_exti.h ****   * @}
 601:Drivers/STM32U5xx_HAL_Driver/Inc/stm32u5xx_ll_exti.h ****   */
 602:Drivers/STM32U5xx_HAL_Driver/Inc/stm32u5xx_ll_exti.h **** 
 603:Drivers/STM32U5xx_HAL_Driver/Inc/stm32u5xx_ll_exti.h **** /** @defgroup EXTI_LL_EF_Falling_Trigger_Management Falling_Trigger_Management
 604:Drivers/STM32U5xx_HAL_Driver/Inc/stm32u5xx_ll_exti.h ****   * @{
 605:Drivers/STM32U5xx_HAL_Driver/Inc/stm32u5xx_ll_exti.h ****   */
 606:Drivers/STM32U5xx_HAL_Driver/Inc/stm32u5xx_ll_exti.h **** 
 607:Drivers/STM32U5xx_HAL_Driver/Inc/stm32u5xx_ll_exti.h **** /**
 608:Drivers/STM32U5xx_HAL_Driver/Inc/stm32u5xx_ll_exti.h ****   * @brief  Enable ExtiLine Falling Edge Trigger for Lines in range 0 to 31
 609:Drivers/STM32U5xx_HAL_Driver/Inc/stm32u5xx_ll_exti.h ****   * @note The configurable wakeup lines are edge-triggered. No glitch must be
 610:Drivers/STM32U5xx_HAL_Driver/Inc/stm32u5xx_ll_exti.h ****   *       generated on these lines. If a falling edge on a configurable interrupt
 611:Drivers/STM32U5xx_HAL_Driver/Inc/stm32u5xx_ll_exti.h ****   *       line occurs during a write operation in the EXTI_FTSR register, the
 612:Drivers/STM32U5xx_HAL_Driver/Inc/stm32u5xx_ll_exti.h ****   *       pending bit is not set.
 613:Drivers/STM32U5xx_HAL_Driver/Inc/stm32u5xx_ll_exti.h ****   *       Rising and falling edge triggers can be set for
 614:Drivers/STM32U5xx_HAL_Driver/Inc/stm32u5xx_ll_exti.h ****   *       the same interrupt line. In this case, both generate a trigger
 615:Drivers/STM32U5xx_HAL_Driver/Inc/stm32u5xx_ll_exti.h ****   *       condition.
 616:Drivers/STM32U5xx_HAL_Driver/Inc/stm32u5xx_ll_exti.h ****   * @rmtoll FTSR1        FTx           LL_EXTI_EnableFallingTrig_0_31
 617:Drivers/STM32U5xx_HAL_Driver/Inc/stm32u5xx_ll_exti.h ****   * @param  ExtiLine This parameter can be a combination of the following values:
 618:Drivers/STM32U5xx_HAL_Driver/Inc/stm32u5xx_ll_exti.h ****   *         @arg @ref LL_EXTI_LINE_0
 619:Drivers/STM32U5xx_HAL_Driver/Inc/stm32u5xx_ll_exti.h ****   *         @arg @ref LL_EXTI_LINE_1
 620:Drivers/STM32U5xx_HAL_Driver/Inc/stm32u5xx_ll_exti.h ****   *         @arg @ref LL_EXTI_LINE_2
 621:Drivers/STM32U5xx_HAL_Driver/Inc/stm32u5xx_ll_exti.h ****   *         @arg @ref LL_EXTI_LINE_3
 622:Drivers/STM32U5xx_HAL_Driver/Inc/stm32u5xx_ll_exti.h ****   *         @arg @ref LL_EXTI_LINE_4
 623:Drivers/STM32U5xx_HAL_Driver/Inc/stm32u5xx_ll_exti.h ****   *         @arg @ref LL_EXTI_LINE_5
 624:Drivers/STM32U5xx_HAL_Driver/Inc/stm32u5xx_ll_exti.h ****   *         @arg @ref LL_EXTI_LINE_6
 625:Drivers/STM32U5xx_HAL_Driver/Inc/stm32u5xx_ll_exti.h ****   *         @arg @ref LL_EXTI_LINE_7
 626:Drivers/STM32U5xx_HAL_Driver/Inc/stm32u5xx_ll_exti.h ****   *         @arg @ref LL_EXTI_LINE_8
 627:Drivers/STM32U5xx_HAL_Driver/Inc/stm32u5xx_ll_exti.h ****   *         @arg @ref LL_EXTI_LINE_9
 628:Drivers/STM32U5xx_HAL_Driver/Inc/stm32u5xx_ll_exti.h ****   *         @arg @ref LL_EXTI_LINE_10
 629:Drivers/STM32U5xx_HAL_Driver/Inc/stm32u5xx_ll_exti.h ****   *         @arg @ref LL_EXTI_LINE_11
 630:Drivers/STM32U5xx_HAL_Driver/Inc/stm32u5xx_ll_exti.h ****   *         @arg @ref LL_EXTI_LINE_12
 631:Drivers/STM32U5xx_HAL_Driver/Inc/stm32u5xx_ll_exti.h ****   *         @arg @ref LL_EXTI_LINE_13
 632:Drivers/STM32U5xx_HAL_Driver/Inc/stm32u5xx_ll_exti.h ****   *         @arg @ref LL_EXTI_LINE_14
ARM GAS  C:\Users\Yamaan\AppData\Local\Temp\ccnzxzH5.s 			page 20


 633:Drivers/STM32U5xx_HAL_Driver/Inc/stm32u5xx_ll_exti.h ****   *         @arg @ref LL_EXTI_LINE_15
 634:Drivers/STM32U5xx_HAL_Driver/Inc/stm32u5xx_ll_exti.h ****   *         @arg @ref LL_EXTI_LINE_16
 635:Drivers/STM32U5xx_HAL_Driver/Inc/stm32u5xx_ll_exti.h ****   *         @arg @ref LL_EXTI_LINE_17
 636:Drivers/STM32U5xx_HAL_Driver/Inc/stm32u5xx_ll_exti.h ****   *         @arg @ref LL_EXTI_LINE_18
 637:Drivers/STM32U5xx_HAL_Driver/Inc/stm32u5xx_ll_exti.h ****   *         @arg @ref LL_EXTI_LINE_19
 638:Drivers/STM32U5xx_HAL_Driver/Inc/stm32u5xx_ll_exti.h ****   *         @arg @ref LL_EXTI_LINE_20
 639:Drivers/STM32U5xx_HAL_Driver/Inc/stm32u5xx_ll_exti.h ****   *         @arg @ref LL_EXTI_LINE_21
 640:Drivers/STM32U5xx_HAL_Driver/Inc/stm32u5xx_ll_exti.h ****   *         @arg @ref LL_EXTI_LINE_22
 641:Drivers/STM32U5xx_HAL_Driver/Inc/stm32u5xx_ll_exti.h ****   * @note   Please check each device line mapping for EXTI Line availability
 642:Drivers/STM32U5xx_HAL_Driver/Inc/stm32u5xx_ll_exti.h ****   * @retval None
 643:Drivers/STM32U5xx_HAL_Driver/Inc/stm32u5xx_ll_exti.h ****   */
 644:Drivers/STM32U5xx_HAL_Driver/Inc/stm32u5xx_ll_exti.h **** __STATIC_INLINE void LL_EXTI_EnableFallingTrig_0_31(uint32_t ExtiLine)
 645:Drivers/STM32U5xx_HAL_Driver/Inc/stm32u5xx_ll_exti.h **** {
 646:Drivers/STM32U5xx_HAL_Driver/Inc/stm32u5xx_ll_exti.h ****   SET_BIT(EXTI->FTSR1, ExtiLine);
 647:Drivers/STM32U5xx_HAL_Driver/Inc/stm32u5xx_ll_exti.h **** }
 648:Drivers/STM32U5xx_HAL_Driver/Inc/stm32u5xx_ll_exti.h **** 
 649:Drivers/STM32U5xx_HAL_Driver/Inc/stm32u5xx_ll_exti.h **** /**
 650:Drivers/STM32U5xx_HAL_Driver/Inc/stm32u5xx_ll_exti.h ****   * @brief  Disable ExtiLine Falling Edge Trigger for Lines in range 0 to 31
 651:Drivers/STM32U5xx_HAL_Driver/Inc/stm32u5xx_ll_exti.h ****   * @note The configurable wakeup lines are edge-triggered. No glitch must be
 652:Drivers/STM32U5xx_HAL_Driver/Inc/stm32u5xx_ll_exti.h ****   *       generated on these lines. If a Falling edge on a configurable interrupt
 653:Drivers/STM32U5xx_HAL_Driver/Inc/stm32u5xx_ll_exti.h ****   *       line occurs during a write operation in the EXTI_FTSR register, the
 654:Drivers/STM32U5xx_HAL_Driver/Inc/stm32u5xx_ll_exti.h ****   *       pending bit is not set.
 655:Drivers/STM32U5xx_HAL_Driver/Inc/stm32u5xx_ll_exti.h ****   *       Rising and falling edge triggers can be set for the same interrupt line.
 656:Drivers/STM32U5xx_HAL_Driver/Inc/stm32u5xx_ll_exti.h ****   *       In this case, both generate a trigger condition.
 657:Drivers/STM32U5xx_HAL_Driver/Inc/stm32u5xx_ll_exti.h ****   * @rmtoll FTSR1        FTx           LL_EXTI_DisableFallingTrig_0_31
 658:Drivers/STM32U5xx_HAL_Driver/Inc/stm32u5xx_ll_exti.h ****   * @param  ExtiLine This parameter can be a combination of the following values:
 659:Drivers/STM32U5xx_HAL_Driver/Inc/stm32u5xx_ll_exti.h ****   *         @arg @ref LL_EXTI_LINE_0
 660:Drivers/STM32U5xx_HAL_Driver/Inc/stm32u5xx_ll_exti.h ****   *         @arg @ref LL_EXTI_LINE_1
 661:Drivers/STM32U5xx_HAL_Driver/Inc/stm32u5xx_ll_exti.h ****   *         @arg @ref LL_EXTI_LINE_2
 662:Drivers/STM32U5xx_HAL_Driver/Inc/stm32u5xx_ll_exti.h ****   *         @arg @ref LL_EXTI_LINE_3
 663:Drivers/STM32U5xx_HAL_Driver/Inc/stm32u5xx_ll_exti.h ****   *         @arg @ref LL_EXTI_LINE_4
 664:Drivers/STM32U5xx_HAL_Driver/Inc/stm32u5xx_ll_exti.h ****   *         @arg @ref LL_EXTI_LINE_5
 665:Drivers/STM32U5xx_HAL_Driver/Inc/stm32u5xx_ll_exti.h ****   *         @arg @ref LL_EXTI_LINE_6
 666:Drivers/STM32U5xx_HAL_Driver/Inc/stm32u5xx_ll_exti.h ****   *         @arg @ref LL_EXTI_LINE_7
 667:Drivers/STM32U5xx_HAL_Driver/Inc/stm32u5xx_ll_exti.h ****   *         @arg @ref LL_EXTI_LINE_8
 668:Drivers/STM32U5xx_HAL_Driver/Inc/stm32u5xx_ll_exti.h ****   *         @arg @ref LL_EXTI_LINE_9
 669:Drivers/STM32U5xx_HAL_Driver/Inc/stm32u5xx_ll_exti.h ****   *         @arg @ref LL_EXTI_LINE_10
 670:Drivers/STM32U5xx_HAL_Driver/Inc/stm32u5xx_ll_exti.h ****   *         @arg @ref LL_EXTI_LINE_11
 671:Drivers/STM32U5xx_HAL_Driver/Inc/stm32u5xx_ll_exti.h ****   *         @arg @ref LL_EXTI_LINE_12
 672:Drivers/STM32U5xx_HAL_Driver/Inc/stm32u5xx_ll_exti.h ****   *         @arg @ref LL_EXTI_LINE_13
 673:Drivers/STM32U5xx_HAL_Driver/Inc/stm32u5xx_ll_exti.h ****   *         @arg @ref LL_EXTI_LINE_14
 674:Drivers/STM32U5xx_HAL_Driver/Inc/stm32u5xx_ll_exti.h ****   *         @arg @ref LL_EXTI_LINE_15
 675:Drivers/STM32U5xx_HAL_Driver/Inc/stm32u5xx_ll_exti.h ****   *         @arg @ref LL_EXTI_LINE_16
 676:Drivers/STM32U5xx_HAL_Driver/Inc/stm32u5xx_ll_exti.h ****   *         @arg @ref LL_EXTI_LINE_17
 677:Drivers/STM32U5xx_HAL_Driver/Inc/stm32u5xx_ll_exti.h ****   *         @arg @ref LL_EXTI_LINE_18
 678:Drivers/STM32U5xx_HAL_Driver/Inc/stm32u5xx_ll_exti.h ****   *         @arg @ref LL_EXTI_LINE_19
 679:Drivers/STM32U5xx_HAL_Driver/Inc/stm32u5xx_ll_exti.h ****   *         @arg @ref LL_EXTI_LINE_20
 680:Drivers/STM32U5xx_HAL_Driver/Inc/stm32u5xx_ll_exti.h ****   *         @arg @ref LL_EXTI_LINE_21
 681:Drivers/STM32U5xx_HAL_Driver/Inc/stm32u5xx_ll_exti.h ****   *         @arg @ref LL_EXTI_LINE_22
 682:Drivers/STM32U5xx_HAL_Driver/Inc/stm32u5xx_ll_exti.h ****   * @note   Please check each device line mapping for EXTI Line availability
 683:Drivers/STM32U5xx_HAL_Driver/Inc/stm32u5xx_ll_exti.h ****   * @retval None
 684:Drivers/STM32U5xx_HAL_Driver/Inc/stm32u5xx_ll_exti.h ****   */
 685:Drivers/STM32U5xx_HAL_Driver/Inc/stm32u5xx_ll_exti.h **** __STATIC_INLINE void LL_EXTI_DisableFallingTrig_0_31(uint32_t ExtiLine)
 267              		.loc 2 685 22 view .LVU70
 268              	.LBB47:
 686:Drivers/STM32U5xx_HAL_Driver/Inc/stm32u5xx_ll_exti.h **** {
 687:Drivers/STM32U5xx_HAL_Driver/Inc/stm32u5xx_ll_exti.h ****   CLEAR_BIT(EXTI->FTSR1, ExtiLine);
ARM GAS  C:\Users\Yamaan\AppData\Local\Temp\ccnzxzH5.s 			page 21


 269              		.loc 2 687 3 view .LVU71
 270 008c 194A     		ldr	r2, .L18
 271 008e 5168     		ldr	r1, [r2, #4]
 272 0090 21EA0401 		bic	r1, r1, r4
 273 0094 5160     		str	r1, [r2, #4]
 274              	.LVL25:
 275              		.loc 2 687 3 is_stmt 0 view .LVU72
 276              	.LBE47:
 277              	.LBE46:
 156:Drivers/STM32U5xx_HAL_Driver/Src/stm32u5xx_ll_exti.c ****             /* Then Enable Rising Trigger on provided Lines */
 157:Drivers/STM32U5xx_HAL_Driver/Src/stm32u5xx_ll_exti.c ****             LL_EXTI_EnableRisingTrig_0_31(EXTI_InitStruct->Line_0_31);
 278              		.loc 1 157 13 is_stmt 1 view .LVU73
 279 0096 1B68     		ldr	r3, [r3]
 280              	.LVL26:
 281              	.LBB48:
 282              	.LBI48:
 516:Drivers/STM32U5xx_HAL_Driver/Inc/stm32u5xx_ll_exti.h **** {
 283              		.loc 2 516 22 view .LVU74
 284              	.LBB49:
 518:Drivers/STM32U5xx_HAL_Driver/Inc/stm32u5xx_ll_exti.h **** }
 285              		.loc 2 518 3 view .LVU75
 286 0098 1168     		ldr	r1, [r2]
 287 009a 0B43     		orrs	r3, r3, r1
 288              	.LVL27:
 518:Drivers/STM32U5xx_HAL_Driver/Inc/stm32u5xx_ll_exti.h **** }
 289              		.loc 2 518 3 is_stmt 0 view .LVU76
 290 009c 1360     		str	r3, [r2]
 291              	.LVL28:
 519:Drivers/STM32U5xx_HAL_Driver/Inc/stm32u5xx_ll_exti.h **** 
 292              		.loc 2 519 1 view .LVU77
 293 009e 23E0     		b	.L6
 294              	.LVL29:
 295              	.L10:
 519:Drivers/STM32U5xx_HAL_Driver/Inc/stm32u5xx_ll_exti.h **** 
 296              		.loc 2 519 1 view .LVU78
 297              	.LBE49:
 298              	.LBE48:
 158:Drivers/STM32U5xx_HAL_Driver/Src/stm32u5xx_ll_exti.c ****             break;
 159:Drivers/STM32U5xx_HAL_Driver/Src/stm32u5xx_ll_exti.c ****           case LL_EXTI_TRIGGER_FALLING:
 160:Drivers/STM32U5xx_HAL_Driver/Src/stm32u5xx_ll_exti.c ****             /* First Disable Rising Trigger on provided Lines */
 161:Drivers/STM32U5xx_HAL_Driver/Src/stm32u5xx_ll_exti.c ****             LL_EXTI_DisableRisingTrig_0_31(EXTI_InitStruct->Line_0_31);
 299              		.loc 1 161 13 is_stmt 1 view .LVU79
 300 00a0 1C68     		ldr	r4, [r3]
 301              	.LVL30:
 302              	.LBB50:
 303              	.LBI50:
 558:Drivers/STM32U5xx_HAL_Driver/Inc/stm32u5xx_ll_exti.h **** {
 304              		.loc 2 558 22 view .LVU80
 305              	.LBB51:
 560:Drivers/STM32U5xx_HAL_Driver/Inc/stm32u5xx_ll_exti.h **** 
 306              		.loc 2 560 3 view .LVU81
 307 00a2 144A     		ldr	r2, .L18
 308 00a4 1168     		ldr	r1, [r2]
 309 00a6 21EA0401 		bic	r1, r1, r4
 310 00aa 1160     		str	r1, [r2]
 311              	.LVL31:
 560:Drivers/STM32U5xx_HAL_Driver/Inc/stm32u5xx_ll_exti.h **** 
ARM GAS  C:\Users\Yamaan\AppData\Local\Temp\ccnzxzH5.s 			page 22


 312              		.loc 2 560 3 is_stmt 0 view .LVU82
 313              	.LBE51:
 314              	.LBE50:
 162:Drivers/STM32U5xx_HAL_Driver/Src/stm32u5xx_ll_exti.c ****             /* Then Enable Falling Trigger on provided Lines */
 163:Drivers/STM32U5xx_HAL_Driver/Src/stm32u5xx_ll_exti.c ****             LL_EXTI_EnableFallingTrig_0_31(EXTI_InitStruct->Line_0_31);
 315              		.loc 1 163 13 is_stmt 1 view .LVU83
 316 00ac 1B68     		ldr	r3, [r3]
 317              	.LVL32:
 318              	.LBB52:
 319              	.LBI52:
 644:Drivers/STM32U5xx_HAL_Driver/Inc/stm32u5xx_ll_exti.h **** {
 320              		.loc 2 644 22 view .LVU84
 321              	.LBB53:
 646:Drivers/STM32U5xx_HAL_Driver/Inc/stm32u5xx_ll_exti.h **** }
 322              		.loc 2 646 3 view .LVU85
 323 00ae 5168     		ldr	r1, [r2, #4]
 324 00b0 0B43     		orrs	r3, r3, r1
 325              	.LVL33:
 646:Drivers/STM32U5xx_HAL_Driver/Inc/stm32u5xx_ll_exti.h **** }
 326              		.loc 2 646 3 is_stmt 0 view .LVU86
 327 00b2 5360     		str	r3, [r2, #4]
 328              	.LVL34:
 647:Drivers/STM32U5xx_HAL_Driver/Inc/stm32u5xx_ll_exti.h **** 
 329              		.loc 2 647 1 view .LVU87
 330 00b4 18E0     		b	.L6
 331              	.LVL35:
 332              	.L11:
 647:Drivers/STM32U5xx_HAL_Driver/Inc/stm32u5xx_ll_exti.h **** 
 333              		.loc 2 647 1 view .LVU88
 334              	.LBE53:
 335              	.LBE52:
 164:Drivers/STM32U5xx_HAL_Driver/Src/stm32u5xx_ll_exti.c ****             break;
 165:Drivers/STM32U5xx_HAL_Driver/Src/stm32u5xx_ll_exti.c ****           case LL_EXTI_TRIGGER_RISING_FALLING:
 166:Drivers/STM32U5xx_HAL_Driver/Src/stm32u5xx_ll_exti.c ****             LL_EXTI_EnableRisingTrig_0_31(EXTI_InitStruct->Line_0_31);
 336              		.loc 1 166 13 is_stmt 1 view .LVU89
 337 00b6 1968     		ldr	r1, [r3]
 338              	.LVL36:
 339              	.LBB54:
 340              	.LBI54:
 516:Drivers/STM32U5xx_HAL_Driver/Inc/stm32u5xx_ll_exti.h **** {
 341              		.loc 2 516 22 view .LVU90
 342              	.LBB55:
 518:Drivers/STM32U5xx_HAL_Driver/Inc/stm32u5xx_ll_exti.h **** }
 343              		.loc 2 518 3 view .LVU91
 344 00b8 0E4A     		ldr	r2, .L18
 345 00ba 1468     		ldr	r4, [r2]
 346 00bc 2143     		orrs	r1, r1, r4
 347              	.LVL37:
 518:Drivers/STM32U5xx_HAL_Driver/Inc/stm32u5xx_ll_exti.h **** }
 348              		.loc 2 518 3 is_stmt 0 view .LVU92
 349 00be 1160     		str	r1, [r2]
 350              	.LVL38:
 518:Drivers/STM32U5xx_HAL_Driver/Inc/stm32u5xx_ll_exti.h **** }
 351              		.loc 2 518 3 view .LVU93
 352              	.LBE55:
 353              	.LBE54:
 167:Drivers/STM32U5xx_HAL_Driver/Src/stm32u5xx_ll_exti.c ****             LL_EXTI_EnableFallingTrig_0_31(EXTI_InitStruct->Line_0_31);
ARM GAS  C:\Users\Yamaan\AppData\Local\Temp\ccnzxzH5.s 			page 23


 354              		.loc 1 167 13 is_stmt 1 view .LVU94
 355 00c0 1B68     		ldr	r3, [r3]
 356              	.LVL39:
 357              	.LBB56:
 358              	.LBI56:
 644:Drivers/STM32U5xx_HAL_Driver/Inc/stm32u5xx_ll_exti.h **** {
 359              		.loc 2 644 22 view .LVU95
 360              	.LBB57:
 646:Drivers/STM32U5xx_HAL_Driver/Inc/stm32u5xx_ll_exti.h **** }
 361              		.loc 2 646 3 view .LVU96
 362 00c2 5168     		ldr	r1, [r2, #4]
 363 00c4 0B43     		orrs	r3, r3, r1
 364              	.LVL40:
 646:Drivers/STM32U5xx_HAL_Driver/Inc/stm32u5xx_ll_exti.h **** }
 365              		.loc 2 646 3 is_stmt 0 view .LVU97
 366 00c6 5360     		str	r3, [r2, #4]
 367              	.LVL41:
 647:Drivers/STM32U5xx_HAL_Driver/Inc/stm32u5xx_ll_exti.h **** 
 368              		.loc 2 647 1 view .LVU98
 369 00c8 0EE0     		b	.L6
 370              	.LVL42:
 371              	.L5:
 647:Drivers/STM32U5xx_HAL_Driver/Inc/stm32u5xx_ll_exti.h **** 
 372              		.loc 2 647 1 view .LVU99
 373              	.LBE57:
 374              	.LBE56:
 168:Drivers/STM32U5xx_HAL_Driver/Src/stm32u5xx_ll_exti.c ****             break;
 169:Drivers/STM32U5xx_HAL_Driver/Src/stm32u5xx_ll_exti.c ****           default:
 170:Drivers/STM32U5xx_HAL_Driver/Src/stm32u5xx_ll_exti.c ****             status = ERROR;
 171:Drivers/STM32U5xx_HAL_Driver/Src/stm32u5xx_ll_exti.c ****             break;
 172:Drivers/STM32U5xx_HAL_Driver/Src/stm32u5xx_ll_exti.c ****         }
 173:Drivers/STM32U5xx_HAL_Driver/Src/stm32u5xx_ll_exti.c ****       }
 174:Drivers/STM32U5xx_HAL_Driver/Src/stm32u5xx_ll_exti.c ****     }
 175:Drivers/STM32U5xx_HAL_Driver/Src/stm32u5xx_ll_exti.c ****   }
 176:Drivers/STM32U5xx_HAL_Driver/Src/stm32u5xx_ll_exti.c ****   /* DISABLE LineCommand */
 177:Drivers/STM32U5xx_HAL_Driver/Src/stm32u5xx_ll_exti.c ****   else
 178:Drivers/STM32U5xx_HAL_Driver/Src/stm32u5xx_ll_exti.c ****   {
 179:Drivers/STM32U5xx_HAL_Driver/Src/stm32u5xx_ll_exti.c ****     /* De-configure EXTI Lines in range from 0 to 31 */
 180:Drivers/STM32U5xx_HAL_Driver/Src/stm32u5xx_ll_exti.c ****     LL_EXTI_DisableIT_0_31(EXTI_InitStruct->Line_0_31);
 375              		.loc 1 180 5 is_stmt 1 view .LVU100
 376              	.LBB58:
 377              	.LBI58:
 309:Drivers/STM32U5xx_HAL_Driver/Inc/stm32u5xx_ll_exti.h **** {
 378              		.loc 2 309 22 view .LVU101
 379              	.LBB59:
 311:Drivers/STM32U5xx_HAL_Driver/Inc/stm32u5xx_ll_exti.h **** }
 380              		.loc 2 311 3 view .LVU102
 381 00ca 0A4A     		ldr	r2, .L18
 382 00cc D2F88010 		ldr	r1, [r2, #128]
 383 00d0 1C68     		ldr	r4, [r3]
 384 00d2 21EA0401 		bic	r1, r1, r4
 385 00d6 C2F88010 		str	r1, [r2, #128]
 386              	.LVL43:
 311:Drivers/STM32U5xx_HAL_Driver/Inc/stm32u5xx_ll_exti.h **** }
 387              		.loc 2 311 3 is_stmt 0 view .LVU103
 388              	.LBE59:
 389              	.LBE58:
ARM GAS  C:\Users\Yamaan\AppData\Local\Temp\ccnzxzH5.s 			page 24


 181:Drivers/STM32U5xx_HAL_Driver/Src/stm32u5xx_ll_exti.c ****     LL_EXTI_DisableEvent_0_31(EXTI_InitStruct->Line_0_31);
 390              		.loc 1 181 5 is_stmt 1 view .LVU104
 391 00da 1968     		ldr	r1, [r3]
 392              	.LVL44:
 393              	.LBB60:
 394              	.LBI60:
 429:Drivers/STM32U5xx_HAL_Driver/Inc/stm32u5xx_ll_exti.h **** {
 395              		.loc 2 429 22 view .LVU105
 396              	.LBB61:
 431:Drivers/STM32U5xx_HAL_Driver/Inc/stm32u5xx_ll_exti.h **** }
 397              		.loc 2 431 3 view .LVU106
 398 00dc D2F88430 		ldr	r3, [r2, #132]
 399              	.LVL45:
 431:Drivers/STM32U5xx_HAL_Driver/Inc/stm32u5xx_ll_exti.h **** }
 400              		.loc 2 431 3 is_stmt 0 view .LVU107
 401 00e0 23EA0103 		bic	r3, r3, r1
 402 00e4 C2F88430 		str	r3, [r2, #132]
 403              	.LVL46:
 404              	.L6:
 431:Drivers/STM32U5xx_HAL_Driver/Inc/stm32u5xx_ll_exti.h **** }
 405              		.loc 2 431 3 view .LVU108
 406              	.LBE61:
 407              	.LBE60:
 182:Drivers/STM32U5xx_HAL_Driver/Src/stm32u5xx_ll_exti.c ****   }
 183:Drivers/STM32U5xx_HAL_Driver/Src/stm32u5xx_ll_exti.c ****   return status;
 408              		.loc 1 183 3 is_stmt 1 view .LVU109
 184:Drivers/STM32U5xx_HAL_Driver/Src/stm32u5xx_ll_exti.c **** }
 409              		.loc 1 184 1 is_stmt 0 view .LVU110
 410 00e8 5DF8044B 		ldr	r4, [sp], #4
 411              		.cfi_remember_state
 412              		.cfi_restore 4
 413              		.cfi_def_cfa_offset 0
 414 00ec 7047     		bx	lr
 415              	.LVL47:
 416              	.L12:
 417              		.cfi_restore_state
 112:Drivers/STM32U5xx_HAL_Driver/Src/stm32u5xx_ll_exti.c ****   /* Check the parameters */
 418              		.loc 1 112 15 view .LVU111
 419 00ee 0020     		movs	r0, #0
 420 00f0 FAE7     		b	.L6
 421              	.L19:
 422 00f2 00BF     		.align	2
 423              	.L18:
 424 00f4 00200246 		.word	1174544384
 425              		.cfi_endproc
 426              	.LFE366:
 428              		.section	.text.LL_EXTI_StructInit,"ax",%progbits
 429              		.align	1
 430              		.global	LL_EXTI_StructInit
 431              		.syntax unified
 432              		.thumb
 433              		.thumb_func
 435              	LL_EXTI_StructInit:
 436              	.LVL48:
 437              	.LFB367:
 185:Drivers/STM32U5xx_HAL_Driver/Src/stm32u5xx_ll_exti.c **** 
 186:Drivers/STM32U5xx_HAL_Driver/Src/stm32u5xx_ll_exti.c **** /**
ARM GAS  C:\Users\Yamaan\AppData\Local\Temp\ccnzxzH5.s 			page 25


 187:Drivers/STM32U5xx_HAL_Driver/Src/stm32u5xx_ll_exti.c ****   * @brief  Set each @ref LL_EXTI_InitTypeDef field to default value.
 188:Drivers/STM32U5xx_HAL_Driver/Src/stm32u5xx_ll_exti.c ****   * @param  EXTI_InitStruct Pointer to a @ref LL_EXTI_InitTypeDef structure.
 189:Drivers/STM32U5xx_HAL_Driver/Src/stm32u5xx_ll_exti.c ****   * @retval None
 190:Drivers/STM32U5xx_HAL_Driver/Src/stm32u5xx_ll_exti.c ****   */
 191:Drivers/STM32U5xx_HAL_Driver/Src/stm32u5xx_ll_exti.c **** void LL_EXTI_StructInit(LL_EXTI_InitTypeDef *EXTI_InitStruct)
 192:Drivers/STM32U5xx_HAL_Driver/Src/stm32u5xx_ll_exti.c **** {
 438              		.loc 1 192 1 is_stmt 1 view -0
 439              		.cfi_startproc
 440              		@ args = 0, pretend = 0, frame = 0
 441              		@ frame_needed = 0, uses_anonymous_args = 0
 442              		@ link register save eliminated.
 193:Drivers/STM32U5xx_HAL_Driver/Src/stm32u5xx_ll_exti.c ****   EXTI_InitStruct->Line_0_31      = LL_EXTI_LINE_NONE;
 443              		.loc 1 193 3 view .LVU113
 444              		.loc 1 193 35 is_stmt 0 view .LVU114
 445 0000 0023     		movs	r3, #0
 446 0002 0360     		str	r3, [r0]
 194:Drivers/STM32U5xx_HAL_Driver/Src/stm32u5xx_ll_exti.c ****   EXTI_InitStruct->LineCommand    = DISABLE;
 447              		.loc 1 194 3 is_stmt 1 view .LVU115
 448              		.loc 1 194 35 is_stmt 0 view .LVU116
 449 0004 0371     		strb	r3, [r0, #4]
 195:Drivers/STM32U5xx_HAL_Driver/Src/stm32u5xx_ll_exti.c ****   EXTI_InitStruct->Mode           = LL_EXTI_MODE_IT;
 450              		.loc 1 195 3 is_stmt 1 view .LVU117
 451              		.loc 1 195 35 is_stmt 0 view .LVU118
 452 0006 4371     		strb	r3, [r0, #5]
 196:Drivers/STM32U5xx_HAL_Driver/Src/stm32u5xx_ll_exti.c ****   EXTI_InitStruct->Trigger        = LL_EXTI_TRIGGER_FALLING;
 453              		.loc 1 196 3 is_stmt 1 view .LVU119
 454              		.loc 1 196 35 is_stmt 0 view .LVU120
 455 0008 0223     		movs	r3, #2
 456 000a 8371     		strb	r3, [r0, #6]
 197:Drivers/STM32U5xx_HAL_Driver/Src/stm32u5xx_ll_exti.c **** }
 457              		.loc 1 197 1 view .LVU121
 458 000c 7047     		bx	lr
 459              		.cfi_endproc
 460              	.LFE367:
 462              		.text
 463              	.Letext0:
 464              		.file 3 "c:\\users\\yamaan\\appdata\\roaming\\code\\user\\globalstorage\\bmd.stm32-for-vscode\\@xp
 465              		.file 4 "c:\\users\\yamaan\\appdata\\roaming\\code\\user\\globalstorage\\bmd.stm32-for-vscode\\@xp
 466              		.file 5 "Drivers/CMSIS/Device/ST/STM32U5xx/Include/stm32u575xx.h"
 467              		.file 6 "Drivers/CMSIS/Device/ST/STM32U5xx/Include/stm32u5xx.h"
ARM GAS  C:\Users\Yamaan\AppData\Local\Temp\ccnzxzH5.s 			page 26


DEFINED SYMBOLS
                            *ABS*:0000000000000000 stm32u5xx_ll_exti.c
C:\Users\Yamaan\AppData\Local\Temp\ccnzxzH5.s:22     .text.LL_EXTI_DeInit:0000000000000000 $t
C:\Users\Yamaan\AppData\Local\Temp\ccnzxzH5.s:28     .text.LL_EXTI_DeInit:0000000000000000 LL_EXTI_DeInit
C:\Users\Yamaan\AppData\Local\Temp\ccnzxzH5.s:61     .text.LL_EXTI_DeInit:0000000000000020 $d
C:\Users\Yamaan\AppData\Local\Temp\ccnzxzH5.s:67     .text.LL_EXTI_Init:0000000000000000 $t
C:\Users\Yamaan\AppData\Local\Temp\ccnzxzH5.s:73     .text.LL_EXTI_Init:0000000000000000 LL_EXTI_Init
C:\Users\Yamaan\AppData\Local\Temp\ccnzxzH5.s:424    .text.LL_EXTI_Init:00000000000000f4 $d
C:\Users\Yamaan\AppData\Local\Temp\ccnzxzH5.s:429    .text.LL_EXTI_StructInit:0000000000000000 $t
C:\Users\Yamaan\AppData\Local\Temp\ccnzxzH5.s:435    .text.LL_EXTI_StructInit:0000000000000000 LL_EXTI_StructInit

NO UNDEFINED SYMBOLS
